Firmware v130 Disassembly:

vector_table:
  0x3400:   0x200021e0  ; Stack Pointer     (stack_max)
    3404:   0x3555      ; PC Reset          (reset)
    3408:   0x3561      ; NMI               (nmi)
    340c:   0x3563      ; Hard Fault        (hard_fault)
    3410:   0x3565      ; MCU Fault         (mcu_fault)
    3414:   0x3567      ; Bus Fault         (bus_fault)
    3418:   0x3569      ; Usage Fault       (usage_fault)
    341c:   0x0000      ; Reserved
    3420:   0x0000      ; Reserved
    3424:   0x0000      ; Reserved
    3428:   0x0000      ; Reserved
    342c:   0x356b      ; SVCCall           (svccall_intr)
    3430:   0x356d      ; Debug Monitor     (debug_intr)
    3434:   0x0000      ; Reserved
    3438:   0x356f      ; PendSV            (pendsv_intr)
    343c:   0x3571      ; SySTick           (systick_intr)
    3440:   0x3573      ;  0 CKRDY          (generic_intr)
    3444:   0x3573      ;  1 LVD            (generic_intr)
    3448:   0x3573      ;  2 BOD            (generic_intr)
    344c:   0x3573      ;  3 WDT            (generic_intr)
    3450:   0x3573      ;  4 RTC            (generic_intr)
    3454:   0x3573      ;  5 FMC            (generic_intr)
    3458:   0x3573      ;  6 EVWUP          (generic_intr)
    345c:   0x3573      ;  7 LPWUP          (generic_intr)
    3460:   0x3573      ;  8 EXTI0          (generic_intr)
    3464:   0x3573      ;  9 EXTI1          (generic_intr)
    3468:   0x3573      ; 10 EXTI2          (generic_intr)
    346c:   0x3573      ; 11 EXTI3          (generic_intr)
    3470:   0x3573      ; 12 EXTI4          (generic_intr)
    3474:   0x3573      ; 13 EXTI5          (generic_intr)
    3478:   0x3573      ; 14 EXTI6          (generic_intr)
    347c:   0x3573      ; 15 EXTI7          (generic_intr)
    3480:   0x3573      ; 16 EXTI8          (generic_intr)
    3484:   0x3573      ; 17 EXTI9          (generic_intr)
    3488:   0x3573      ; 18 EXTI10         (generic_intr)
    348c:   0x3573      ; 19 EXTI11         (generic_intr)
    3490:   0x3573      ; 20 EXTI12         (generic_intr)
    3494:   0x3573      ; 21 EXTI13         (generic_intr)
    3498:   0x3573      ; 22 EXTI14         (generic_intr)
    349c:   0x3573      ; 23 EXTI15         (generic_intr)
    34a0:   0x3573      ; 24 COMP           (generic_intr)
    34a4:   0x3573      ; 25 ADC            (generic_intr)
    34a8:   0x0000      ; Reserved
    34ac:   0x3573      ; 27 MCTM0_BRK      (generic_intr)
    34b0:   0x3573      ; 28 MCTM0_UP       (generic_intr)
    34b4:   0x3573      ; 29 MCTM0_TR_UP2   (generic_intr)
    34b8:   0x3573      ; 30 MCTM0_CC       (generic_intr)
    34bc:   0x3573      ; 31 MCTM1_BRK      (generic_intr)
    34c0:   0x3573      ; 32 MCTM1_UP       (generic_intr)
    34c4:   0x3573      ; 33 MCTM1_TR_UP2   (generic_intr)
    34c8:   0x3573      ; 34 MCTM1_CC       (generic_intr)
    34cc:   0x3573      ; 35 GPTM0          (generic_intr)
    34d0:   0x3573      ; 36 GPTM1          (generic_intr)
    34d4:   0x0000      ; Reserved
    34d8:   0x0000      ; Reserved
    34dc:   0x0000      ; Reserved
    34e0:   0x0000      ; Reserved
    34e4:   0x366d      ; 41 BFTM0          (bftm0_intr)
    34e8:   0x36fd      ; 42 BFTM1          (bftm1_intr)
    34ec:   0x3573      ; 43 I2C0           (generic_intr)
    34f0:   0x3573      ; 44 I2C1           (generic_intr)
    34f4:   0x3573      ; 45 SPI0           (generic_intr)
    34f8:   0x3573      ; 46 SPI1           (generic_intr)
    34fc:   0x3573      ; 47 USART0         (generic_intr)
    3500:   0x3573      ; 48 USART1         (generic_intr)
    3504:   0x3573      ; 49 UART0          (generic_intr)
    3508:   0x3573      ; 50 UART1          (generic_intr)
    350c:   0x3573      ; 51 SCI            (generic_intr)
    3510:   0x3573      ; 52 I2S            (generic_intr)
    3514:   0x6c1d      ; 53 USB            (usb_intr)
    3518:   0x0000      ; Reserved
    351c:   0x3573      ; 55 PDMA_CH0       (generic_intr)
    3520:   0x3573      ; 56 PDMA_CH1       (generic_intr)
    3524:   0x3573      ; 57 PDMA_CH2       (generic_intr)
    3528:   0x3573      ; 58 PDMA_CH3       (generic_intr)
    352c:   0x3573      ; 59 PDMA_CH4       (generic_intr)
    3530:   0x3573      ; 60 PDMA_CH5       (generic_intr)
    3534:   0x3573      ; 61 PDMA_CH6       (generic_intr)
    3538:   0x3573      ; 62 PDMA_CH7       (generic_intr)
    353c:   0x0000      ; Reserved
    3540:   0x0000      ; Reserved
    3544:   0x0000      ; Reserved
    3548:   0x0000      ; Reserved
    354c:   0x0000      ; Reserved
    3550:   0x3573      ; 68 EBI            (generic_intr)

.text:

reset:
  0x3554:   4807        ldr r0, [pc, #28]   ; (0x3574)
    3556:   4780        blx r0
    3558:   4807        ldr r0, [pc, #28]   ; (0x3578)
    355a:   4780        blx r0
    355c:   4807        ldr r0, [pc, #28]   ; (0x357c)
    355e:   4700        bx r0

    ; all the faults and unused interrupts are dead loops
    ; they just wait to be killed by the watchdog
nmi:
  0x3560:   e7fe        b.n 0x3560
hard_fault:
  0x3562:   e7fe        b.n 0x3562
mcu_fault:
  0x3564:   e7fe        b.n 0x3564
bus_fault:
  0x3566:   e7fe        b.n 0x3566
usage_fault:
  0x3568:   e7fe        b.n 0x3568
svccall_intr:
  0x356a:   e7fe        b.n 0x356a
debug_intr:
  0x356c:   e7fe        b.n 0x356c
pendsv_intr:
  0x356e:   e7fe        b.n 0x356e
systick_intr:
  0x3570:   e7fe        b.n 0x3570
generic_intr:
  0x3572:   e7fe        b.n 0x3572

  0x3574:   0x6c29      ; (watchdog_init)
  0x3578:   0x65a5      ; (clock_init)
  0x357c:   0x3581      ; (entry)

entry:
  0x3580:   f8df d00c   ldr.w sp, [pc, #12]     ; (0x3590)
    3584:   f000 f84a   bl 0x361c               ; call sram_init
    3588:   4800        ldr r0, [pc, #0]        ; (0x358c)
    358a:   4700        bx r0                   ; jump main

  0x358c:   0x786d      ; (main)
  0x3590:   0x200021e0  ; stack_max

rand:
    ; This is a pseudo random number generator (PRNG)
    ; Each result is the next seed
    ; Look at http://stackoverflow.com/a/4768189/4526277
    ; Only difference is RAND_MAX, here it is 0x7fffffff
  0x3594:   4906        ldr r1, [pc, #24]   ; (0x35b0)
    3596:   4a07        ldr r2, [pc, #28]   ; (0x35b4)
    3598:   6808        ldr r0, [r1, #0]
    359a:   4350        muls r0, r2
    359c:   f243 0239   movw r2, #12345   ; 0x3039
    35a0:   4410        add r0, r2
    35a2:   6008        str r0, [r1, #0]
    35a4:   0840        lsrs r0, r0, #1
    35a6:   4770        bx lr

srand:
    ; r0 = seed
    ; Sets the PRNG seed
  0x35a8:   4901        ldr r1, [pc, #4]   ; (0x35b0)
    35aa:   6008        str r0, [r1, #0]
    35ac:   4770        bx lr
    35ae:   0000        movs r0, r0

  0x35b0:   0x20000064  ; (prng_seed)
  0x35b4:   0x41c64e6d  ; 1103515145 LCG multiplier

memcpy:
    ; r0 = dest
    ; r1 = src
    ; r2 = length (in bytes)
  0x35b8:   ea40 0301   orr.w r3, r0, r1
    35bc:   079b        lsls r3, r3, #30
    35be:   d003        beq.n 0x35c8
    35c0:   e009        b.n 0x35d6
    35c2:   c908        ldmia r1!, {r3}
    35c4:   1f12        subs r2, r2, #4
    35c6:   c008        stmia r0!, {r3}
    35c8:   2a04        cmp r2, #4
    35ca:   d2fa        bcs.n 0x35c2
    35cc:   e003        b.n 0x35d6
    35ce:   f811 3b01   ldrb.w r3, [r1], #1
    35d2:   f800 3b01   strb.w r3, [r0], #1
    35d6:   1e52        subs r2, r2, #1
    35d8:   d2f9        bcs.n 0x35ce
    35da:   4770        bx lr

mem_set:
    ; r0 = dest
    ; r1 = len
    ; r2 = byte
  0x35dc:   b2d2        uxtb r2, r2
    35de:   e001        b.n 0x35e4

  0x35e0:   f800 2b01   strb.w r2, [r0], #1
  0x35e4:   1e49        subs r1, r1, #1
    35e6:   d2fb        bcs.n 0x35e0
    35e8:   4770        bx lr

mem_zero:
    ; r0 = dest
    ; r1 = len
  0x35ea:   2200        movs r2, #0
    35ec:   e7f6        b.n 0x35dc      ; call mem_set(r0, r1, 0)

mem_set2:
    ; r0 = dest
    ; r1 = byte
    ; r2 = len
  0x35ee:   b510        push {r4, lr}
    35f0:   4613        mov r3, r2
    35f2:   460a        mov r2, r1
    35f4:   4604        mov r4, r0
    35f6:   4619        mov r1, r3
    35f8:   f7ff fff0   bl 0x35dc       ; call mem_set(r0, r2, r1)
    35fc:   4620        mov r0, r4
    35fe:   bd10        pop {r4, pc}

memcmp:
    ; r0 = ptr
    ; r1 = ptr
    ; r2 = len
  0x3600:   b530        push {r4, r5, lr}
    3602:   4604        mov r4, r0
    3604:   2000        movs r0, #0
    3606:   4603        mov r3, r0
    3608:   e000        b.n 0x360c

  0x360a:   1c5b        adds r3, r3, #1
  0x360c:   4293        cmp r3, r2
    360e:   d203        bcs.n 0x3618
    3610:   5ce0        ldrb r0, [r4, r3]
    3612:   5ccd        ldrb r5, [r1, r3]
    3614:   1b40        subs r0, r0, r5
    3616:   d0f8        beq.n 0x360a
    3618:   bd30        pop {r4, r5, pc}
    361a:   0000

sram_init:
  0x361c:   4c06        ldr r4, [pc, #24]   ; (0x3638)
    361e:   4d07        ldr r5, [pc, #28]   ; (0x363c)
    3620:   e006        b.n 0x3630

    3622:   68e0        ldr r0, [r4, #12]
    3624:   f040 0301   orr.w r3, r0, #1
    3628:   e894 0007   ldmia.w r4, {r0, r1, r2}
    362c:   4798        blx r3
    362e:   3410        adds r4, #16

    3630:   42ac        cmp r4, r5
    3632:   d3f6        bcc.n 0x3622
    3634:   f7ff ffa8   bl 0x3588

  0x3638:   0x811c      ; task_1
  0x363c:   0x813c

afio_exti_ssr_write:
    ; this writes to the EXTI source selection register 0 or 1 (ESSR0, ESSR1) in the AFIO control registers
    ; r0 = some notion of which bit to set. this also controls which register to set it in.
    ; r1 = ? value to be put into the 4 bit EXTnPIN field (n is controlled by r0)
  0x3640:   b510        push {r4, lr}
    3642:   2200        movs r2, #0
    3644:   2807        cmp r0, #7
    3646:   d902        bls.n 0x364e
    3648:   2201        movs r2, #1
    364a:   3808        subs r0, #8
    364c:   b2c0        uxtb r0, r0
    364e:   0093        lsls r3, r2, #2
    3650:   4a05        ldr r2, [pc, #20]   ; (0x3668)
    3652:   441a        add r2, r3
    3654:   6813        ldr r3, [r2, #0]
    3656:   0080        lsls r0, r0, #2
    3658:   240f        movs r4, #15
    365a:   4084        lsls r4, r0
    365c:   43a3        bics r3, r4
    365e:   4081        lsls r1, r0
    3660:   4319        orrs r1, r3
    3662:   6011        str r1, [r2, #0]
    3664:   bd10        pop {r4, pc}
    3666:   0000

  0x3668:   0x40022000  ; AFIO

  0x366c:   b510        push {r4, lr}
    366e:   481b        ldr r0, [pc, #108]      ; (0x36dc)
    3670:   f000 f874   bl 0x375c               ; call bftm_clear(BFTM0)
    3674:   f002 fca8   bl 0x5fc8
    3678:   4819        ldr r0, [pc, #100]      ; (0x36e0)
    367a:   6801        ldr r1, [r0, #0]
    367c:   b111        cbz r1, 0x3684
    367e:   6801        ldr r1, [r0, #0]
    3680:   1e49        subs r1, r1, #1
    3682:   6001        str r1, [r0, #0]
    3684:   6841        ldr r1, [r0, #4]
    3686:   b111        cbz r1, 0x368e
    3688:   6841        ldr r1, [r0, #4]
    368a:   1e49        subs r1, r1, #1
    368c:   6041        str r1, [r0, #4]
    368e:   4815        ldr r0, [pc, #84]   ; (0x36e4)
    3690:   8801        ldrh r1, [r0, #0]
    3692:   1c49        adds r1, r1, #1
    3694:   8001        strh r1, [r0, #0]
    3696:   4814        ldr r0, [pc, #80]   ; (0x36e8)
    3698:   6801        ldr r1, [r0, #0]
    369a:   b111        cbz r1, 0x36a2
    369c:   6801        ldr r1, [r0, #0]
    369e:   1c49        adds r1, r1, #1
    36a0:   6001        str r1, [r0, #0]
    36a2:   4812        ldr r0, [pc, #72]   ; (0x36ec)
    36a4:   6801        ldr r1, [r0, #0]
    36a6:   b111        cbz r1, 0x36ae
    36a8:   6801        ldr r1, [r0, #0]
    36aa:   1e49        subs r1, r1, #1
    36ac:   6001        str r1, [r0, #0]
    36ae:   4810        ldr r0, [pc, #64]   ; (0x36f0)
    36b0:   7801        ldrb r1, [r0, #0]
    36b2:   1c49        adds r1, r1, #1
    36b4:   7001        strb r1, [r0, #0]
    36b6:   490f        ldr r1, [pc, #60]   ; (0x36f4)
    36b8:   8808        ldrh r0, [r1, #0]
    36ba:   2801        cmp r0, #1
    36bc:   d901        bls.n 0x36c2
    36be:   1e40        subs r0, r0, #1
    36c0:   8008        strh r0, [r1, #0]
    36c2:   480d        ldr r0, [pc, #52]   ; (0x36f8)
    36c4:   8801        ldrh r1, [r0, #0]
    36c6:   2900        cmp r1, #0
    36c8:   d006        beq.n 0x36d8
    36ca:   8801        ldrh r1, [r0, #0]
    36cc:   f5b1 4f7f   cmp.w r1, #65280   ; 0xff00
    36d0:   d202        bcs.n 0x36d8
    36d2:   8801        ldrh r1, [r0, #0]
    36d4:   1c49        adds r1, r1, #1
    36d6:   8001        strh r1, [r0, #0]
    36d8:   bd10        pop {r4, pc}
    36da:   0000

  0x36dc:   0x40076000  ; BFTM0
  0x36e0:   0x200006bc
  0x36e4:   0x2000000e
  0x36e8:   0x20000008
  0x36ec:   0x20000060
  0x36f0:   0x2000002a
  0x36f4:   0x20000002
  0x36f8:   0x2000001c

  0x36fc:   b510        push {r4, lr}
    36fe:   4813        ldr r0, [pc, #76]   ; (0x374c)
    3700:   f000 f82c   bl 0x375c
    3704:   4c12        ldr r4, [pc, #72]   ; (0x3750)
    3706:   6860        ldr r0, [r4, #4]
    3708:   8881        ldrh r1, [r0, #4]
    370a:   6800        ldr r0, [r0, #0]
    370c:   b289        uxth r1, r1
    370e:   f000 ff47   bl 0x45a0
    3712:   200a        movs r0, #10
    3714:   f000 f856   bl 0x37c4
    3718:   2002        movs r0, #2
    371a:   f003 fd95   bl 0x7248
    371e:   490d        ldr r1, [pc, #52]   ; (0x3754)
    3720:   f44f 4000   mov.w r0, #32768   ; 0x8000
    3724:   6248        str r0, [r1, #36]   ; 0x24
    3726:   480c        ldr r0, [pc, #48]   ; (0x3758)
    3728:   7861        ldrb r1, [r4, #1]
    372a:   eb00 00c1   add.w r0, r0, r1, lsl #3
    372e:   6060        str r0, [r4, #4]
    3730:   8881        ldrh r1, [r0, #4]
    3732:   6800        ldr r0, [r0, #0]
    3734:   b289        uxth r1, r1
    3736:   f000 fefd   bl 0x4534
    373a:   7860        ldrb r0, [r4, #1]
    373c:   1c40        adds r0, r0, #1
    373e:   f000 0007   and.w r0, r0, #7
    3742:   7060        strb r0, [r4, #1]
    3744:   e8bd 4010   ldmia.w sp!, {r4, lr}
    3748:   f002 be8e   b.w 0x6468

  0x374c:   0x40077000  ; BFTM1
  0x3750:   0x20000020
  0x3754:   0x400b0000
  0x3758:   0x7d24      ; gpio_map_1

bftm_clear:
    ; r0 = pointer
    ; Clear the function timer compare match flag
    ; This will stop repetitive timers, or cancel one-shot timers
  0x375c:   6841        ldr r1, [r0, #4]
    375e:   f021 0101   bic.w r1, r1, #1
    3762:   6041        str r1, [r0, #4]
    3764:   f3bf 8f4f   dsb sy
    3768:   4770        bx lr

    376a:   2900        cmp r1, #0
    376c:   6801        ldr r1, [r0, #0]
    376e:   d002        beq.n 0x3776
    3770:   f041 0104   orr.w r1, r1, #4
    3774:   e001        b.n 0x377a
    3776:   f021 0104   bic.w r1, r1, #4
    377a:   6001        str r1, [r0, #0]
    377c:   4770        bx lr
    377e:   2900        cmp r1, #0
    3780:   6801        ldr r1, [r0, #0]
    3782:   d002        beq.n 0x378a
    3784:   f041 0101   orr.w r1, r1, #1
    3788:   e001        b.n 0x378e
    378a:   f021 0101   bic.w r1, r1, #1
    378e:   6001        str r1, [r0, #0]
    3790:   4770        bx lr
    3792:   60c1        str r1, [r0, #12]
    3794:   4770        bx lr
    3796:   6081        str r1, [r0, #8]
    3798:   4770        bx lr
    379a:   0000        movs r0, r0

afio_pin_config:
    ; r0 = GPIO # 0/1/2/3/4 (A/B/C/D/E)
    ; r1 = Pin #
    ; r2 = Alternate function #
  0x379c:   00c0        lsls r0, r0, #3
    379e:   08cb        lsrs r3, r1, #3
    37a0:   eb00 0083   add.w r0, r0, r3, lsl #2
    37a4:   4b06        ldr r3, [pc, #24]   ; (0x37c0)
    37a6:   b510        push {r4, lr}
    37a8:   4418        add r0, r3
    37aa:   0749        lsls r1, r1, #29
    37ac:   6803        ldr r3, [r0, #0]
    37ae:   0ec9        lsrs r1, r1, #27
    37b0:   240f        movs r4, #15
    37b2:   408c        lsls r4, r1
    37b4:   43a3        bics r3, r4
    37b6:   408a        lsls r2, r1
    37b8:   4313        orrs r3, r2
    37ba:   6003        str r3, [r0, #0]
    37bc:   bd10        pop {r4, pc}
    37be:   0000

  0x37c0:   0x40022020  ; AFIO.GPACFGLR GPIO Port A Configuration 0

spin_wait_maybe:
    ; Seems to spin and wait for (r0 * 20 * 2) instructions
    ; At 8MHz and 5 cycles / instruction, r0 = 10 should take around 250 us
    ; r0 = "time"
  0x37c4:   eb00 0080   add.w r0, r0, r0, lsl #2
    37c8:   0080        lsls r0, r0, #2
    37ca:   1e40        subs r0, r0, #1
    37cc:   d2fd        bcs.n 0x37ca
    37ce:   4770        bx lr

setup_afio_gpio:
  0x37d0:   e92d 41f0   stmdb sp!, {r4, r5, r6, r7, r8, lr}
    37d4:   f44f 4580   mov.w r5, #16384   ; 0x4000
    37d8:   2400        movs r4, #0
    37da:   00a8        lsls r0, r5, #2

    ; Enable AFIO clock
    ; Enable GPIO A clock
    37dc:   4622        mov r2, r4
    37de:   4680        mov r8, r0
    37e0:   2301        movs r3, #1
    37e2:   4629        mov r1, r5
    37e4:   f000 f850   bl 0x3888           ; call ckcu_clocks_enable(0x10000, 0x4000, 0, 1)

    37e8:   4e25        ldr r6, [pc, #148]   ; (0x3880)
    37ea:   2200        movs r2, #0
    37ec:   4629        mov r1, r5
    37ee:   4630        mov r0, r6
    37f0:   f000 feb2   bl 0x4558           ; call gpio_set_input_enable
    37f4:   006f        lsls r7, r5, #1
    37f6:   2200        movs r2, #0
    37f8:   4639        mov r1, r7
    37fa:   4630        mov r0, r6
    37fc:   f000 feac   bl 0x4558           ; call gpio_set_input_enable
    3800:   2202        movs r2, #2
    3802:   4629        mov r1, r5
    3804:   4630        mov r0, r6
    3806:   f000 feb7   bl 0x4578           ; call gpio_set_pin_pull_up_down
    380a:   2202        movs r2, #2
    380c:   4639        mov r1, r7
    380e:   4630        mov r0, r6
    3810:   f000 feb2   bl 0x4578           ; call gpio_set_pin_pull_up_down
    3814:   10ed        asrs r5, r5, #3
    3816:   2200        movs r2, #0
    3818:   4629        mov r1, r5
    381a:   4630        mov r0, r6
    381c:   f000 fe9c   bl 0x4558           ; call gpio_set_input_enable
    3820:   2202        movs r2, #2
    3822:   4629        mov r1, r5
    3824:   4630        mov r0, r6
    3826:   f000 fea7   bl 0x4578           ; call gpio_set_pin_pull_up_down

    ; Select AF1 (GPIO) for GPIO A pin 11, GPIO C pins 13,14,15 (pins 37, 22,23,24)
    382a:   2201        movs r2, #1
    382c:   210b        movs r1, #11
    382e:   2000        movs r0, #0
    3830:   f7ff ffb4   bl 0x379c           ; call afio_pin_config(0, 11, 1)
    3834:   2201        movs r2, #1
    3836:   210d        movs r1, #13
    3838:   2002        movs r0, #2
    383a:   f7ff ffaf   bl 0x379c           ; call afio_pin_config(2, 13 1)
    383e:   2201        movs r2, #1
    3840:   210e        movs r1, #14
    3842:   2002        movs r0, #2
    3844:   f7ff ffaa   bl 0x379c           ; call afio_pin_config(2, 14, 1)
    3848:   2201        movs r2, #1
    384a:   210f        movs r1, #15
    384c:   2002        movs r0, #2
    384e:   f7ff ffa5   bl 0x379c           ; call afio_pin_config(2, 15, 1)

    ; Check if CKCU.HSEEN set (external high-speed oscillator)
    3852:   480c        ldr r0, [pc, #48]   ; (0x3884)
    3854:   6840        ldr r0, [r0, #4]
    3856:   0540        lsls r0, r0, #21
    3858:   d409        bmi.n 0x386e

    ; Select AF1 (GPIO) for GPIO B pins 14,15 (pins 26,27)
    385a:   2201        movs r2, #1
    385c:   210e        movs r1, #14
    385e:   4610        mov r0, r2
    3860:   f7ff ff9c   bl 0x379c           ; call afio_pin_config(1, 14, 1)
    3864:   2201        movs r2, #1
    3866:   210f        movs r1, #15
    3868:   4610        mov r0, r2
    386a:   f7ff ff97   bl 0x379c           ; call afio_pin_config(1, 15, 1)

    ; Disable GPIO A clock
    386e:   4621        mov r1, r4
    3870:   2300        movs r3, #0
    3872:   4622        mov r2, r4
    3874:   4640        mov r0, r8
    3876:   f000 f807   bl 0x3888               ; call ckcu_clocks_enable(0x10000, 0, 0, 0)

    387a:   2001        movs r0, #1
    387c:   e8bd 81f0   ldmia.w sp!, {r4, r5, r6, r7, r8, pc}

  0x3880:   0x400b0000  ; GPIO A
  0x3884:   0x40088000  ; CKCU

ckcu_clocks_enable:
    ; Enable AHB, APB0, or APB1 clocks
    ; r0 = AHB clock mask
    ; r1 = APB0 clock mask
    ; r2 = APB1 clock mask
    ; r3 = enable/disable
  0x3888:   b5f0        push {r4, r5, r6, r7, lr}
    388a:   4f07        ldr r7, [pc, #28]   ; (0x38a8)
    388c:   6a7c        ldr r4, [r7, #36]   ; 0x24 AHB clock control
    388e:   6afd        ldr r5, [r7, #44]   ; 0x2c APB clock control 0
    3890:   6b3e        ldr r6, [r7, #48]   ; 0x30 APB clock control 1
    3892:   4384        bics r4, r0
    3894:   438d        bics r5, r1
    3896:   4396        bics r6, r2
    3898:   b113        cbz r3, 0x38a0
    389a:   4304        orrs r4, r0
    389c:   430d        orrs r5, r1
    389e:   4316        orrs r6, r2
    38a0:   627c        str r4, [r7, #36]   ; 0x24
    38a2:   62fd        str r5, [r7, #44]   ; 0x2c
    38a4:   633e        str r6, [r7, #48]   ; 0x30
    38a6:   bdf0        pop {r4, r5, r6, r7, pc}

  0x38a8:   0x40088000  ; CKCU

ckcu_set_usb_prescaler:
    ; r0 = usb clock prescaler 0/1/2
  0x38ac:   4903        ldr r1, [pc, #12]   ; (0x38bc)
    38ae:   680a        ldr r2, [r1, #0]
    38b0:   f422 0240   bic.w r2, r2, #12582912   ; 0xc00000
    38b4:   ea42 5080   orr.w r0, r2, r0, lsl #22
    38b8:   6008        str r0, [r1, #0]
    38ba:   4770        bx lr

  0x38bc:   0x40088000  ; CKCU

    38c0:   b570        push {r4, r5, r6, lr}
    38c2:   4910        ldr r1, [pc, #64]   ; (0x3904)
    38c4:   2501        movs r5, #1
    38c6:   fa05 f000   lsl.w r0, r5, r0
    38ca:   78c9        ldrb r1, [r1, #3]
    38cc:   4b0f        ldr r3, [pc, #60]   ; (0x390c)
    38ce:   078e        lsls r6, r1, #30
    38d0:   490d        ldr r1, [pc, #52]   ; (0x3908)
    38d2:   4c0f        ldr r4, [pc, #60]   ; (0x3910)
    38d4:   b2c0        uxtb r0, r0
    38d6:   788a        ldrb r2, [r1, #2]
    38d8:   7859        ldrb r1, [r3, #1]
    38da:   d506        bpl.n 0x38ea
    38dc:   4301        orrs r1, r0
    38de:   7059        strb r1, [r3, #1]
    38e0:   2808        cmp r0, #8
    38e2:   d10c        bne.n 0x38fe
    38e4:   b15a        cbz r2, 0x38fe
    38e6:   72a5        strb r5, [r4, #10]
    38e8:   e009        b.n 0x38fe
    38ea:   4381        bics r1, r0
    38ec:   7059        strb r1, [r3, #1]
    38ee:   2808        cmp r0, #8
    38f0:   d105        bne.n 0x38fe
    38f2:   b122        cbz r2, 0x38fe
    38f4:   2000        movs r0, #0
    38f6:   72a0        strb r0, [r4, #10]
    38f8:   7025        strb r5, [r4, #0]
    38fa:   f000 f977   bl 0x3bec
    38fe:   2003        movs r0, #3
    3900:   7120        strb r0, [r4, #4]
    3902:   bd70        pop {r4, r5, r6, pc}

  0x3904:   0x20000030
  0x3908:   0x2000005c
  0x390c:   0x20000000
  0x3910:   0x20000648

  0x3914:   b570        push {r4, r5, r6, lr}
    3916:   492b        ldr r1, [pc, #172]   ; (0x39c4)
    3918:   7988        ldrb r0, [r1, #6]
    391a:   2800        cmp r0, #0
    391c:   d021        beq.n 0x3962
    391e:   4d2a        ldr r5, [pc, #168]   ; (0x39c8)
    3920:   2201        movs r2, #1
    3922:   606a        str r2, [r5, #4]
    3924:   4829        ldr r0, [pc, #164]   ; (0x39cc)
    3926:   78c0        ldrb r0, [r0, #3]
    3928:   0780        lsls r0, r0, #30
    392a:   d51a        bpl.n 0x3962
    392c:   4827        ldr r0, [pc, #156]   ; (0x39cc)
    392e:   79cb        ldrb r3, [r1, #7]
    3930:   7800        ldrb r0, [r0, #0]
    3932:   b30b        cbz r3, 0x3978
    3934:   2827        cmp r0, #39   ; 0x27
    3936:   d00f        beq.n 0x3958
    3938:   dc08        bgt.n 0x394c
    393a:   281e        cmp r0, #30
    393c:   d012        beq.n 0x3964
    393e:   281f        cmp r0, #31
    3940:   d010        beq.n 0x3964
    3942:   2820        cmp r0, #32
    3944:   d00e        beq.n 0x3964
    3946:   2826        cmp r0, #38   ; 0x26
    3948:   d10b        bne.n 0x3962
    394a:   e005        b.n 0x3958
  0x394c:   2829        cmp r0, #41   ; 0x29
    394e:   d007        beq.n 0x3960
    3950:   282d        cmp r0, #45   ; 0x2d
    3952:   d001        beq.n 0x3958
    3954:   282e        cmp r0, #46   ; 0x2e
    3956:   d104        bne.n 0x3962
  0x3958:   e8bd 4070   ldmia.w sp!, {r4, r5, r6, lr}
    395c:   f003 b984   b.w 0x6c68
  0x3960:   708a        strb r2, [r1, #2]
  0x3962:   bd70        pop {r4, r5, r6, pc}

  0x3964:   381e        subs r0, #30
    3966:   b2c1        uxtb r1, r0
    3968:   4817        ldr r0, [pc, #92]   ; (0x39c8)
    396a:   2201        movs r2, #1
    396c:   1844        adds r4, r0, r1
    396e:   7820        ldrb r0, [r4, #0]
    3970:   f001 fc42   bl 0x51f8
    3974:   7020        strb r0, [r4, #0]
    3976:   bd70        pop {r4, r5, r6, pc}

  0x3978:   28cf        cmp r0, #207   ; 0xcf
    397a:   d0fc        beq.n 0x3976
    397c:   4914        ldr r1, [pc, #80]   ; (0x39d0)
    397e:   4a15        ldr r2, [pc, #84]   ; (0x39d4)
    3980:   78cb        ldrb r3, [r1, #3]
    3982:   5c10        ldrb r0, [r2, r0]
    3984:   2b05        cmp r3, #5
    3986:   d00f        beq.n 0x39a8
    3988:   eb00 0040   add.w r0, r0, r0, lsl #1
    398c:   1844        adds r4, r0, r1
    398e:   f504 74d9   add.w r4, r4, #434   ; 0x1b2
    3992:   2203        movs r2, #3
    3994:   4621        mov r1, r4
    3996:   480c        ldr r0, [pc, #48]   ; (0x39c8)
    3998:   f7ff fe32   bl 0x3600
    399c:   b170        cbz r0, 0x39bc
    399e:   8828        ldrh r0, [r5, #0]
    39a0:   8020        strh r0, [r4, #0]
    39a2:   78a8        ldrb r0, [r5, #2]
    39a4:   70a0        strb r0, [r4, #2]
    39a6:   bd70        pop {r4, r5, r6, pc}

  0x39a8:   4a0b        ldr r2, [pc, #44]   ; (0x39d8)
    39aa:   5c10        ldrb r0, [r2, r0]
    39ac:   f000 0007   and.w r0, r0, #7
    39b0:   eb00 0040   add.w r0, r0, r0, lsl #1
    39b4:   1844        adds r4, r0, r1
    39b6:   f204 248a   addw r4, r4, #650   ; 0x28a
    39ba:   e7ea        b.n 0x3992
  0x39bc:   2000        movs r0, #0
    39be:   8020        strh r0, [r4, #0]
    39c0:   e7f0        b.n 0x39a4
    39c2:   0000        movs r0, r0

  0x39c4:   0x20000648
  0x39c8:   0x20000004
  0x39cc:   0x20000030
  0x39d0:   0x20000730
  0x39d4:   0x200001c0
  0x39d8:   0x7b73

  0x39dc:   2103        movs r1, #3
    39de:   4a04        ldr r2, [pc, #16]   ; (0x39f0)
    39e0:   e001        b.n 0x39e6
    39e2:   5c43        ldrb r3, [r0, r1]
    39e4:   5453        strb r3, [r2, r1]
    39e6:   1e49        subs r1, r1, #1
    39e8:   b2c9        uxtb r1, r1
    39ea:   d2fa        bcs.n 0x39e2
    39ec:   4770        bx lr
    39ee:   0000        movs r0, r0

    39f0:   0x20000004

  0x39f4:   4806        ldr r0, [pc, #24]   ; (0x3a10)
    39f6:   7980        ldrb r0, [r0, #6]
    39f8:   2800        cmp r0, #0
    39fa:   d007        beq.n 0x3a0c
    39fc:   4805        ldr r0, [pc, #20]   ; (0x3a14)
    39fe:   6840        ldr r0, [r0, #4]
    3a00:   f649 4140   movw r1, #40000   ; 0x9c40
    3a04:   4288        cmp r0, r1
    3a06:   d301        bcc.n 0x3a0c
    3a08:   f003 b92e   b.w 0x6c68
    3a0c:   4770        bx lr
    3a0e:   0000

  0x3a10:   0x20000648
  0x3a14:   0x20000004

  0x3a18:   b570        push {r4, r5, r6, lr}
    3a1a:   b198        cbz r0, 0x3a44
    3a1c:   4d0f        ldr r5, [pc, #60]   ; (0x3a5c)
    3a1e:   2448        movs r4, #72   ; 0x48
    3a20:   4e0f        ldr r6, [pc, #60]   ; (0x3a60)
    3a22:   e00b        b.n 0x3a3c
    3a24:   f815 0901   ldrb.w r0, [r5], #-1
    3a28:   f000 0007   and.w r0, r0, #7
    3a2c:   eb00 0040   add.w r0, r0, r0, lsl #1
    3a30:   1981        adds r1, r0, r6
    3a32:   4620        mov r0, r4
    3a34:   f201 218a   addw r1, r1, #650   ; 0x28a
    3a38:   f000 fb28   bl 0x408c
  0x3a3c:   1e64        subs r4, r4, #1
    3a3e:   b2e4        uxtb r4, r4
    3a40:   d2f0        bcs.n 0x3a24
    3a42:   bd70        pop {r4, r5, r6, pc}

  0x3a44:   4d07        ldr r5, [pc, #28]   ; (0x3a64)
    3a46:   2448        movs r4, #72   ; 0x48
    3a48:   e004        b.n 0x3a54
  0x3a4a:   4629        mov r1, r5
    3a4c:   4620        mov r0, r4
    3a4e:   f000 fb1d   bl 0x408c
    3a52:   1eed        subs r5, r5, #3
  0x3a54:   1e64        subs r4, r4, #1
    3a56:   b2e4        uxtb r4, r4
    3a58:   d2f7        bcs.n 0x3a4a
    3a5a:   bd70        pop {r4, r5, r6, pc}

  0x3a5c:   7bba        ldrb r2, [r7, #14]
    3a5e:   0000        movs r0, r0
    3a60:   0730        lsls r0, r6, #28
    3a62:   2000        movs r0, #0
    3a64:   09b7        lsrs r7, r6, #6
    3a66:   2000        movs r0, #0
    3a68:   2801        cmp r0, #1
    3a6a:   d004        beq.n 0x3a76
    3a6c:   2005        movs r0, #5
    3a6e:   4903        ldr r1, [pc, #12]   ; (0x3a7c)
    3a70:   70c8        strb r0, [r1, #3]
    3a72:   f000 b8bb   b.w 0x3bec
    3a76:   2004        movs r0, #4
    3a78:   e7f9        b.n 0x3a6e
    3a7a:   0000

  0x3a7c:   0x20000730

  0x3a80:   b510        push {r4, lr}
    3a82:   f7ff fff1   bl 0x3a68
    3a86:   4805        ldr r0, [pc, #20]   ; (0x3a9c)
    3a88:   2101        movs r1, #1
    3a8a:   7181        strb r1, [r0, #6]
    3a8c:   4804        ldr r0, [pc, #16]   ; (0x3aa0)
    3a8e:   6041        str r1, [r0, #4]
    3a90:   4904        ldr r1, [pc, #16]   ; (0x3aa4)
    3a92:   880a        ldrh r2, [r1, #0]
    3a94:   8002        strh r2, [r0, #0]
    3a96:   7889        ldrb r1, [r1, #2]
    3a98:   7081        strb r1, [r0, #2]
    3a9a:   bd10        pop {r4, pc}

  0x3a9c:   0x20000648
  0x3aa0:   0x20000004
  0x3aa4:   0x7aa2

function_130_6:
  0x3aa8:   b570        push {r4, r5, r6, lr}
    3aaa:   4c17        ldr r4, [pc, #92]   ; (0x3b08)
    3aac:   7aa0        ldrb r0, [r4, #10]
    3aae:   2801        cmp r0, #1
    3ab0:   d008        beq.n 0x3ac4

    3ab2:   4816        ldr r0, [pc, #88]   ; (0x3b0c)
    3ab4:   f000 fafa   bl 0x40ac           ; call function_130_7(0x7aa5)

    3ab8:   2005        movs r0, #5
    3aba:   4915        ldr r1, [pc, #84]   ; (0x3b10)
    3abc:   2200        movs r2, #0
    3abe:   4b15        ldr r3, [pc, #84]   ; (0x3b14)
    3ac0:   4d15        ldr r5, [pc, #84]   ; (0x3b18)
    3ac2:   e013        b.n 0x3aec

    3ac4:   4812        ldr r0, [pc, #72]   ; (0x3b10)
    3ac6:   21d8        movs r1, #216   ; 0xd8
    3ac8:   3890        subs r0, #144   ; 0x90
    3aca:   f7ff fd8e   bl 0x35ea               ; call mem_zero(ptr, 0xd8)

    3ace:   4c13        ldr r4, [pc, #76]   ; (0x3b1c)
    3ad0:   490e        ldr r1, [pc, #56]   ; (0x3b0c)
    3ad2:   f814 0fe8   ldrb.w r0, [r4, #232]!
    3ad6:   f000 fad9   bl 0x408c
    3ada:   7860        ldrb r0, [r4, #1]
    3adc:   e8bd 4070   ldmia.w sp!, {r4, r5, r6, lr}
    3ae0:   490a        ldr r1, [pc, #40]   ; (0x3b0c)
    3ae2:   f000 bad3   b.w 0x408c
    3ae6:   5c1e        ldrb r6, [r3, r0]
    3ae8:   5dae        ldrb r6, [r5, r6]
    3aea:   5472        strb r2, [r6, r1]
    3aec:   1e40        subs r0, r0, #1
    3aee:   b2c0        uxtb r0, r0
    3af0:   d2f9        bcs.n 0x3ae6
    3af2:   4b0a        ldr r3, [pc, #40]   ; (0x3b1c)
    3af4:   22ff        movs r2, #255   ; 0xff
    3af6:   7aa0        ldrb r0, [r4, #10]
    3af8:   33e6        adds r3, #230   ; 0xe6
    3afa:   5cc3        ldrb r3, [r0, r3]
    3afc:   545a        strb r2, [r3, r1]
    3afe:   4b08        ldr r3, [pc, #32]   ; (0x3b20)
    3b00:   5cc0        ldrb r0, [r0, r3]
    3b02:   5442        strb r2, [r0, r1]
    3b04:   bd70        pop {r4, r5, r6, pc}
    3b06:   0000        movs r0, r0

  0x3b08:   0x20000648
  0x3b0c:   0x7aa5
  0x3b10:   0x200003be
  0x3b14:   0x7a48
  0x3b18:   0x200001c0
  0x3b1c:   0x20000730
  0x3b20:   0x7a3a

  0x3b24:   e92d 41f0   stmdb sp!, {r4, r5, r6, r7, r8, lr}
    3b28:   f003 f8d4   bl 0x6cd4
    3b2c:   4c27        ldr r4, [pc, #156]   ; (0x3bcc)
    3b2e:   4d28        ldr r5, [pc, #160]   ; (0x3bd0)
    3b30:   79e0        ldrb r0, [r4, #7]
    3b32:   b318        cbz r0, 0x3b7c
    3b34:   79a0        ldrb r0, [r4, #6]
    3b36:   b910        cbnz r0, 0x3b3e
    3b38:   f001 fc3e   bl 0x53b8
    3b3c:   b1f0        cbz r0, 0x3b7c
    3b3e:   79a0        ldrb r0, [r4, #6]
    3b40:   b108        cbz r0, 0x3b46
    3b42:   4f24        ldr r7, [pc, #144]   ; (0x3bd4)
    3b44:   e001        b.n 0x3b4a
    3b46:   4824        ldr r0, [pc, #144]   ; (0x3bd8)
    3b48:   6807        ldr r7, [r0, #0]
    3b4a:   2103        movs r1, #3
    3b4c:   f8df c08c   ldr.w ip, [pc, #140]   ; 0x3bdc
    3b50:   e011        b.n 0x3b76
    3b52:   eb0c 0001   add.w r0, ip, r1
    3b56:   7f83        ldrb r3, [r0, #30]
    3b58:   2003        movs r0, #3
    3b5a:   e009        b.n 0x3b70
    3b5c:   4281        cmp r1, r0
    3b5e:   d101        bne.n 0x3b64
    3b60:   5c3a        ldrb r2, [r7, r0]
    3b62:   e000        b.n 0x3b66
    3b64:   2200        movs r2, #0
    3b66:   eb00 06c0   add.w r6, r0, r0, lsl #3
    3b6a:   eb05 06c6   add.w r6, r5, r6, lsl #3
    3b6e:   54f2        strb r2, [r6, r3]
    3b70:   1e40        subs r0, r0, #1
    3b72:   b2c0        uxtb r0, r0
    3b74:   d2f2        bcs.n 0x3b5c
    3b76:   1e49        subs r1, r1, #1
    3b78:   b2c9        uxtb r1, r1
    3b7a:   d2ea        bcs.n 0x3b52
    3b7c:   79a0        ldrb r0, [r4, #6]
    3b7e:   b128        cbz r0, 0x3b8c
    3b80:   4817        ldr r0, [pc, #92]   ; (0x3be0)
    3b82:   4914        ldr r1, [pc, #80]   ; (0x3bd4)
    3b84:   f890 00e9   ldrb.w r0, [r0, #233]   ; 0xe9
    3b88:   f000 fa80   bl 0x408c
    3b8c:   7a60        ldrb r0, [r4, #9]
    3b8e:   b140        cbz r0, 0x3ba2
    3b90:   4814        ldr r0, [pc, #80]   ; (0x3be4)
    3b92:   8800        ldrh r0, [r0, #0]
    3b94:   0540        lsls r0, r0, #21
    3b96:   1200        asrs r0, r0, #8
    3b98:   0e01        lsrs r1, r0, #24
    3b9a:   2039        movs r0, #57   ; 0x39
    3b9c:   f000 fa98   bl 0x40d0
    3ba0:   e00d        b.n 0x3bbe
    3ba2:   2100        movs r1, #0
    3ba4:   2039        movs r0, #57   ; 0x39
    3ba6:   f000 fa93   bl 0x40d0
    3baa:   480f        ldr r0, [pc, #60]   ; (0x3be8)
    3bac:   7880        ldrb r0, [r0, #2]
    3bae:   b130        cbz r0, 0x3bbe
    3bb0:   eb00 00c0   add.w r0, r0, r0, lsl #3
    3bb4:   eb05 00c0   add.w r0, r5, r0, lsl #3
    3bb8:   21ff        movs r1, #255   ; 0xff
    3bba:   f800 1c0f   strb.w r1, [r0, #-15]
    3bbe:   e8bd 41f0   ldmia.w sp!, {r4, r5, r6, r7, r8, lr}
    3bc2:   2100        movs r1, #0
    3bc4:   2042        movs r0, #66   ; 0x42
    3bc6:   f000 ba83   b.w 0x40d0
    3bca:   0000        movs r0, r0

  0x3bcc:   0x20000648
  0x3bd0:   0x2000032e
  0x3bd4:   0x20000004
  0x3bd8:   0x2000008c
  0x3bdc:   0x200001c0
  0x3be0:   0x20000730
  0x3be4:   0x2000001c
  0x3be8:   0x2000005c

  0x3bec:   4801        ldr r0, [pc, #4]   ; (0x3bf4)
    3bee:   7880        ldrb r0, [r0, #2]
    3bf0:   f000 b9c8   b.w 0x3f84

  0x3bf4:   0x2000005c

  0x3bf8:   00 00 04 03
  0x3bfc:   01 00 00 34
  0x3c00:   04 00 02 00

    3c04:   b570        push {r4, r5, r6, lr}
    3c06:   483c        ldr r0, [pc, #240]   ; (0x3cf8)
    3c08:   4d3c        ldr r5, [pc, #240]   ; (0x3cfc)
    3c0a:   7ac0        ldrb r0, [r0, #11]
    3c0c:   2808        cmp r0, #8
    3c0e:   d22e        bcs.n 0x3c6e
    3c10:   e8df f000   tbb [pc, r0]
    3c14:   042d        lsls r5, r5, #16
    3c16:   0404        lsls r4, r0, #16
    3c18:   0f0d        lsrs r5, r1, #28
    3c1a:   3b16        subs r3, #22
    3c1c:   4938        ldr r1, [pc, #224]   ; (0x3d00)
    3c1e:   eb00 00c0   add.w r0, r0, r0, lsl #3
    3c22:   eb01 00c0   add.w r0, r1, r0, lsl #3
    3c26:   22ff        movs r2, #255   ; 0xff
    3c28:   2148        movs r1, #72   ; 0x48
    3c2a:   3848        subs r0, #72   ; 0x48
    3c2c:   e004        b.n 0x3c38
    3c2e:   2280        movs r2, #128   ; 0x80
    3c30:   e000        b.n 0x3c34
    3c32:   22ff        movs r2, #255   ; 0xff
    3c34:   4832        ldr r0, [pc, #200]   ; (0x3d00)
    3c36:   21d8        movs r1, #216   ; 0xd8
    3c38:   e8bd 4070   ldmia.w sp!, {r4, r5, r6, lr}
    3c3c:   f7ff bcce   b.w 0x35dc
    3c40:   2448        movs r4, #72   ; 0x48
    3c42:   e011        b.n 0x3c68
    3c44:   482f        ldr r0, [pc, #188]   ; (0x3d04)
    3c46:   7969        ldrb r1, [r5, #5]
    3c48:   5d00        ldrb r0, [r0, r4]
    3c4a:   4281        cmp r1, r0
    3c4c:   d110        bne.n 0x3c70
    3c4e:   2600        movs r6, #0
    3c50:   e012        b.n 0x3c78
    3c52:   4631        mov r1, r6
    3c54:   2039        movs r0, #57   ; 0x39
    3c56:   f000 fa3b   bl 0x40d0
    3c5a:   4631        mov r1, r6
    3c5c:   2042        movs r0, #66   ; 0x42
    3c5e:   e001        b.n 0x3c64
    3c60:   4631        mov r1, r6
    3c62:   2029        movs r0, #41   ; 0x29
    3c64:   f000 fa34   bl 0x40d0
    3c68:   1e64        subs r4, r4, #1
    3c6a:   b2e4        uxtb r4, r4
    3c6c:   d2ea        bcs.n 0x3c44
    3c6e:   bd70        pop {r4, r5, r6, pc}
    3c70:   7929        ldrb r1, [r5, #4]
    3c72:   4281        cmp r1, r0
    3c74:   d1f8        bne.n 0x3c68
    3c76:   26ff        movs r6, #255   ; 0xff
    3c78:   4631        mov r1, r6
    3c7a:   4620        mov r0, r4
    3c7c:   f000 fa28   bl 0x40d0
    3c80:   2c3a        cmp r4, #58   ; 0x3a
    3c82:   d0e6        beq.n 0x3c52
    3c84:   2c10        cmp r4, #16
    3c86:   d1ef        bne.n 0x3c68
    3c88:   e7ea        b.n 0x3c60
    3c8a:   21d8        movs r1, #216   ; 0xd8
    3c8c:   481c        ldr r0, [pc, #112]   ; (0x3d00)
    3c8e:   f7ff fcac   bl 0x35ea
    3c92:   7928        ldrb r0, [r5, #4]
    3c94:   b128        cbz r0, 0x3ca2
    3c96:   2000        movs r0, #0
    3c98:   f000 f8a0   bl 0x3ddc
    3c9c:   b120        cbz r0, 0x3ca8
    3c9e:   2012        movs r0, #18
    3ca0:   e003        b.n 0x3caa
    3ca2:   2001        movs r0, #1
    3ca4:   7128        strb r0, [r5, #4]
    3ca6:   e7f7        b.n 0x3c98
    3ca8:   2009        movs r0, #9
    3caa:   4c17        ldr r4, [pc, #92]   ; (0x3d08)
    3cac:   21b4        movs r1, #180   ; 0xb4
    3cae:   5c20        ldrb r0, [r4, r0]
    3cb0:   f000 fa0e   bl 0x40d0
    3cb4:   4d15        ldr r5, [pc, #84]   ; (0x3d0c)
    3cb6:   7828        ldrb r0, [r5, #0]
    3cb8:   07c0        lsls r0, r0, #31
    3cba:   d003        beq.n 0x3cc4
    3cbc:   7fa0        ldrb r0, [r4, #30]
    3cbe:   21b4        movs r1, #180   ; 0xb4
    3cc0:   f000 fa06   bl 0x40d0
    3cc4:   7828        ldrb r0, [r5, #0]
    3cc6:   0780        lsls r0, r0, #30
    3cc8:   d503        bpl.n 0x3cd2
    3cca:   7fe0        ldrb r0, [r4, #31]
    3ccc:   21b4        movs r1, #180   ; 0xb4
    3cce:   f000 f9ff   bl 0x40d0
    3cd2:   7828        ldrb r0, [r5, #0]
    3cd4:   0740        lsls r0, r0, #29
    3cd6:   d504        bpl.n 0x3ce2
    3cd8:   f894 0020   ldrb.w r0, [r4, #32]
    3cdc:   21b4        movs r1, #180   ; 0xb4
    3cde:   f000 f9f7   bl 0x40d0
    3ce2:   7828        ldrb r0, [r5, #0]
    3ce4:   0700        lsls r0, r0, #28
    3ce6:   d5c2        bpl.n 0x3c6e
    3ce8:   f894 0021   ldrb.w r0, [r4, #33]   ; 0x21
    3cec:   e8bd 4070   ldmia.w sp!, {r4, r5, r6, lr}
    3cf0:   21b4        movs r1, #180   ; 0xb4
    3cf2:   f000 b9ed   b.w 0x40d0
    3cf6:   0000        movs r0, r0
    3cf8:   0648        lsls r0, r1, #25
    3cfa:   2000        movs r0, #0
    3cfc:   008c        lsls r4, r1, #2
    3cfe:   2000        movs r0, #0
    3d00:   032e        lsls r6, r5, #12
    3d02:   2000        movs r0, #0
    3d04:   7ae3        ldrb r3, [r4, #11]
    3d06:   0000        movs r0, r0
    3d08:   01c0        lsls r0, r0, #7
    3d0a:   2000        movs r0, #0
    3d0c:   0001        movs r1, r0
    3d0e:   2000        movs r0, #0
    3d10:   4813        ldr r0, [pc, #76]   ; (0x3d60)
    3d12:   b510        push {r4, lr}
    3d14:   79c0        ldrb r0, [r0, #7]
    3d16:   2804        cmp r0, #4
    3d18:   d003        beq.n 0x3d22
    3d1a:   2805        cmp r0, #5
    3d1c:   d001        beq.n 0x3d22
    3d1e:   4911        ldr r1, [pc, #68]   ; (0x3d64)
    3d20:   e005        b.n 0x3d2e
    3d22:   4811        ldr r0, [pc, #68]   ; (0x3d68)
    3d24:   8840        ldrh r0, [r0, #2]
    3d26:   0540        lsls r0, r0, #21
    3d28:   d505        bpl.n 0x3d36
    3d2a:   490e        ldr r1, [pc, #56]   ; (0x3d64)
    3d2c:   1cc9        adds r1, r1, #3
    3d2e:   2042        movs r0, #66   ; 0x42
    3d30:   f000 f9ac   bl 0x408c
    3d34:   e003        b.n 0x3d3e
    3d36:   2100        movs r1, #0
    3d38:   2042        movs r0, #66   ; 0x42
    3d3a:   f000 f9c9   bl 0x40d0
    3d3e:   2100        movs r1, #0
    3d40:   2039        movs r0, #57   ; 0x39
    3d42:   f000 f9c5   bl 0x40d0
    3d46:   4809        ldr r0, [pc, #36]   ; (0x3d6c)
    3d48:   7880        ldrb r0, [r0, #2]
    3d4a:   2800        cmp r0, #0
    3d4c:   d007        beq.n 0x3d5e
    3d4e:   4a08        ldr r2, [pc, #32]   ; (0x3d70)
    3d50:   eb00 00c0   add.w r0, r0, r0, lsl #3
    3d54:   eb02 00c0   add.w r0, r2, r0, lsl #3
    3d58:   21ff        movs r1, #255   ; 0xff
    3d5a:   f800 1c0f   strb.w r1, [r0, #-15]
    3d5e:   bd10        pop {r4, pc}
    3d60:   19d0        adds r0, r2, r7
    3d62:   2000        movs r0, #0
    3d64:   7aa5        ldrb r5, [r4, #10]
    3d66:   0000        movs r0, r0
    3d68:   000c        movs r4, r1
    3d6a:   2000        movs r0, #0
    3d6c:   005c        lsls r4, r3, #1
    3d6e:   2000        movs r0, #0
    3d70:   032e        lsls r6, r5, #12
    3d72:   2000        movs r0, #0
    3d74:   b510        push {r4, lr}
    3d76:   f001 ff0b   bl 0x5b90
    3d7a:   2100        movs r1, #0
    3d7c:   2039        movs r0, #57   ; 0x39
    3d7e:   f000 f9a7   bl 0x40d0
    3d82:   2100        movs r1, #0
    3d84:   e8bd 4010   ldmia.w sp!, {r4, lr}
    3d88:   2042        movs r0, #66   ; 0x42
    3d8a:   f000 b9a1   b.w 0x40d0
    3d8e:   0000        movs r0, r0
    3d90:   460b        mov r3, r1
    3d92:   4910        ldr r1, [pc, #64]   ; (0x3dd4)
    3d94:   b510        push {r4, lr}
    3d96:   7889        ldrb r1, [r1, #2]
    3d98:   2900        cmp r1, #0
    3d9a:   d01a        beq.n 0x3dd2
    3d9c:   eb01 0141   add.w r1, r1, r1, lsl #1
    3da0:   eb00 1441   add.w r4, r0, r1, lsl #5
    3da4:   3c60        subs r4, #96   ; 0x60
    3da6:   08a0        lsrs r0, r4, #2
    3da8:   0301        lsls r1, r0, #12
    3daa:   480b        ldr r0, [pc, #44]   ; (0x3dd8)
    3dac:   f44f 5280   mov.w r2, #4096   ; 0x1000
    3db0:   f501 41a0   add.w r1, r1, #20480   ; 0x5000
    3db4:   b11b        cbz r3, 0x3dbe
    3db6:   e8bd 4010   ldmia.w sp!, {r4, lr}
    3dba:   f002 bf65   b.w 0x6c88
    3dbe:   f000 fad9   bl 0x4374
    3dc2:   4905        ldr r1, [pc, #20]   ; (0x3dd8)
    3dc4:   f004 0003   and.w r0, r4, #3
    3dc8:   eb01 2080   add.w r0, r1, r0, lsl #10
    3dcc:   4901        ldr r1, [pc, #4]   ; (0x3dd4)
    3dce:   1f09        subs r1, r1, #4
    3dd0:   6008        str r0, [r1, #0]
    3dd2:   bd10        pop {r4, pc}
    3dd4:   005c        lsls r4, r3, #1
    3dd6:   2000        movs r0, #0
    3dd8:   09ca        lsrs r2, r1, #7
    3dda:   2000        movs r0, #0
    3ddc:   b538        push {r3, r4, r5, lr}
    3dde:   4605        mov r5, r0
    3de0:   2202        movs r2, #2
    3de2:   2100        movs r1, #0
    3de4:   4668        mov r0, sp
    3de6:   f000 fac5   bl 0x4374
    3dea:   f8bd 1000   ldrh.w r1, [sp]
    3dee:   f248 0401   movw r4, #32769   ; 0x8001
    3df2:   42a1        cmp r1, r4
    3df4:   d00f        beq.n 0x3e16
    3df6:   b165        cbz r5, 0x3e12
    3df8:   4808        ldr r0, [pc, #32]   ; (0x3e1c)
    3dfa:   7880        ldrb r0, [r0, #2]
    3dfc:   f000 f882   bl 0x3f04
    3e00:   2202        movs r2, #2
    3e02:   2100        movs r1, #0
    3e04:   4668        mov r0, sp
    3e06:   f000 fab5   bl 0x4374
    3e0a:   f8bd 0000   ldrh.w r0, [sp]
    3e0e:   42a0        cmp r0, r4
    3e10:   d001        beq.n 0x3e16
    3e12:   2000        movs r0, #0
    3e14:   bd38        pop {r3, r4, r5, pc}
    3e16:   2001        movs r0, #1
    3e18:   bd38        pop {r3, r4, r5, pc}
    3e1a:   0000        movs r0, r0
    3e1c:   005c        lsls r4, r3, #1
    3e1e:   2000        movs r0, #0
    3e20:   b570        push {r4, r5, r6, lr}
    3e22:   4604        mov r4, r0
    3e24:   2204        movs r2, #4
    3e26:   2100        movs r1, #0
    3e28:   481b        ldr r0, [pc, #108]   ; (0x3e98)
    3e2a:   f000 faa3   bl 0x4374
    3e2e:   4d1a        ldr r5, [pc, #104]   ; (0x3e98)
    3e30:   f248 0101   movw r1, #32769   ; 0x8001
    3e34:   8828        ldrh r0, [r5, #0]
    3e36:   4288        cmp r0, r1
    3e38:   d00b        beq.n 0x3e52
    3e3a:   f5b0 5f80   cmp.w r0, #4096   ; 0x1000
    3e3e:   d201        bcs.n 0x3e44
    3e40:   78ac        ldrb r4, [r5, #2]
    3e42:   e002        b.n 0x3e4a
    3e44:   2cff        cmp r4, #255   ; 0xff
    3e46:   d100        bne.n 0x3e4a
    3e48:   2400        movs r4, #0
    3e4a:   4620        mov r0, r4
    3e4c:   f000 f85a   bl 0x3f04
    3e50:   e007        b.n 0x3e62
    3e52:   2cff        cmp r4, #255   ; 0xff
    3e54:   d005        beq.n 0x3e62
    3e56:   78a8        ldrb r0, [r5, #2]
    3e58:   42a0        cmp r0, r4
    3e5a:   d002        beq.n 0x3e62
    3e5c:   70ac        strb r4, [r5, #2]
    3e5e:   f000 f89b   bl 0x3f98
    3e62:   78a8        ldrb r0, [r5, #2]
    3e64:   2202        movs r2, #2
    3e66:   0301        lsls r1, r0, #12
    3e68:   480c        ldr r0, [pc, #48]   ; (0x3e9c)
    3e6a:   f501 5180   add.w r1, r1, #4096   ; 0x1000
    3e6e:   f000 fa81   bl 0x4374
    3e72:   480a        ldr r0, [pc, #40]   ; (0x3e9c)
    3e74:   8800        ldrh r0, [r0, #0]
    3e76:   2809        cmp r0, #9
    3e78:   d003        beq.n 0x3e82
    3e7a:   e8bd 4070   ldmia.w sp!, {r4, r5, r6, lr}
    3e7e:   f000 b80f   b.w 0x3ea0
    3e82:   78a8        ldrb r0, [r5, #2]
    3e84:   e8bd 4070   ldmia.w sp!, {r4, r5, r6, lr}
    3e88:   0301        lsls r1, r0, #12
    3e8a:   f240 229a   movw r2, #666   ; 0x29a
    3e8e:   4803        ldr r0, [pc, #12]   ; (0x3e9c)
    3e90:   f501 5180   add.w r1, r1, #4096   ; 0x1000
    3e94:   f000 ba6e   b.w 0x4374
    3e98:   005c        lsls r4, r3, #1
    3e9a:   2000        movs r0, #0
    3e9c:   0730        lsls r0, r6, #28
    3e9e:   2000        movs r0, #0
    3ea0:   490a        ldr r1, [pc, #40]   ; (0x3ecc)
    3ea2:   b510        push {r4, lr}
    3ea4:   2009        movs r0, #9
    3ea6:   8008        strh r0, [r1, #0]
    3ea8:   4808        ldr r0, [pc, #32]   ; (0x3ecc)
    3eaa:   22ff        movs r2, #255   ; 0xff
    3eac:   21c0        movs r1, #192   ; 0xc0
    3eae:   3028        adds r0, #40   ; 0x28
    3eb0:   f7ff fb94   bl 0x35dc
    3eb4:   4805        ldr r0, [pc, #20]   ; (0x3ecc)
    3eb6:   22ff        movs r2, #255   ; 0xff
    3eb8:   21c8        movs r1, #200   ; 0xc8
    3eba:   30ea        adds r0, #234   ; 0xea
    3ebc:   f7ff fb8e   bl 0x35dc
    3ec0:   f000 f82c   bl 0x3f1c
    3ec4:   e8bd 4010   ldmia.w sp!, {r4, lr}
    3ec8:   f7ff be90   b.w 0x3bec

  0x3ecc:   0x20000730

  0x3ed0:   b510        push {r4, lr}
    3ed2:   4c0b        ldr r4, [pc, #44]   ; (0x3f00)
    3ed4:   2000        movs r0, #0
    3ed6:   70a0        strb r0, [r4, #2]
    3ed8:   f7ff ffe2   bl 0x3ea0
    3edc:   78a0        ldrb r0, [r4, #2]
    3ede:   1c40        adds r0, r0, #1
    3ee0:   b2c0        uxtb r0, r0
    3ee2:   70a0        strb r0, [r4, #2]
    3ee4:   2804        cmp r0, #4
    3ee6:   d202        bcs.n 0x3eee
    3ee8:   f7ff fe80   bl 0x3bec
    3eec:   e7f6        b.n 0x3edc
    3eee:   2000        movs r0, #0
    3ef0:   f000 f808   bl 0x3f04
    3ef4:   e8bd 4010   ldmia.w sp!, {r4, lr}
    3ef8:   20ff        movs r0, #255   ; 0xff
    3efa:   f7ff bf91   b.w 0x3e20
    3efe:   0000        movs r0, r0

    3f00:   0x2000005c

  0x3f04:   4904        ldr r1, [pc, #16]   ; (0x3f18)
    3f06:   f248 0201   movw r2, #32769   ; 0x8001
    3f0a:   800a        strh r2, [r1, #0]
    3f0c:   7088        strb r0, [r1, #2]
    3f0e:   20ff        movs r0, #255   ; 0xff
    3f10:   70c8        strb r0, [r1, #3]
    3f12:   f000 b841   b.w 0x3f98
    3f16:   0000

  0x3f18:   0x2000005c

  0x3f1c:   b570        push {r4, r5, r6, lr}
    3f1e:   4d15        ldr r5, [pc, #84]   ; (0x3f74)
    3f20:   2000        movs r0, #0
    3f22:   70a8        strb r0, [r5, #2]
    3f24:   2007        movs r0, #7
    3f26:   70e8        strb r0, [r5, #3]
    3f28:   1d2c        adds r4, r5, #4
    3f2a:   4602        mov r2, r0
    3f2c:   e009        b.n 0x3f42
    3f2e:   4912        ldr r1, [pc, #72]   ; (0x3f78)
    3f30:   2005        movs r0, #5
    3f32:   e003        b.n 0x3f3c
    3f34:   f811 3b01   ldrb.w r3, [r1], #1
    3f38:   f804 3b01   strb.w r3, [r4], #1
    3f3c:   1e40        subs r0, r0, #1
    3f3e:   b2c0        uxtb r0, r0
    3f40:   d2f8        bcs.n 0x3f34
    3f42:   1e52        subs r2, r2, #1
    3f44:   b2d2        uxtb r2, r2
    3f46:   d2f2        bcs.n 0x3f2e
    3f48:   2000        movs r0, #0
    3f4a:   f002 f8bf   bl 0x60cc
    3f4e:   4809        ldr r0, [pc, #36]   ; (0x3f74)
    3f50:   490a        ldr r1, [pc, #40]   ; (0x3f7c)
    3f52:   3080        adds r0, #128   ; 0x80
    3f54:   8809        ldrh r1, [r1, #0]
    3f56:   f8a0 1068   strh.w r1, [r0, #104]   ; 0x68
    3f5a:   2003        movs r0, #3
    3f5c:   7468        strb r0, [r5, #17]
    3f5e:   21d8        movs r1, #216   ; 0xd8
    3f60:   4807        ldr r0, [pc, #28]   ; (0x3f80)
    3f62:   f7ff fb42   bl 0x35ea
    3f66:   e8bd 4070   ldmia.w sp!, {r4, r5, r6, lr}
    3f6a:   4805        ldr r0, [pc, #20]   ; (0x3f80)
    3f6c:   210f        movs r1, #15
    3f6e:   30d8        adds r0, #216   ; 0xd8
    3f70:   f7ff bb3b   b.w 0x35ea

  0x3f74:   0x20000730
  0x3f78:   0x8114
  0x3f7c:   0x7a3c
  0x3f80:   0x200008e2

  0x3f84:   0301        lsls r1, r0, #12
    3f86:   f240 229a   movw r2, #666   ; 0x29a
    3f8a:   4802        ldr r0, [pc, #8]   ; (0x3f94)
    3f8c:   f501 5180   add.w r1, r1, #4096   ; 0x1000
    3f90:   f002 be7a   b.w 0x6c88

  0x3f94:   0730        lsls r0, r6, #28
    3f96:   2000        movs r0, #0
    3f98:   2204        movs r2, #4
    3f9a:   2100        movs r1, #0
    3f9c:   4801        ldr r0, [pc, #4]   ; (0x3fa4)
    3f9e:   f002 be73   b.w 0x6c88
    3fa2:   0000

  0x3fa4:   0x2000005c

  0x3fa8:   eb00 00d1   add.w r0, r0, r1, lsr #3
    3fac:   f001 0307   and.w r3, r1, #7
    3fb0:   2101        movs r1, #1
    3fb2:   4099        lsls r1, r3
    3fb4:   2a00        cmp r2, #0
    3fb6:   7802        ldrb r2, [r0, #0]
    3fb8:   b2c9        uxtb r1, r1
    3fba:   d001        beq.n 0x3fc0
    3fbc:   430a        orrs r2, r1
    3fbe:   e000        b.n 0x3fc2
  0x3fc0:   438a        bics r2, r1
    3fc2:   7002        strb r2, [r0, #0]
    3fc4:   4770        bx lr

  0x3fc6:   b570        push {r4, r5, r6, lr}
    3fc8:   4606        mov r6, r0
    3fca:   2500        movs r5, #0
    3fcc:   2403        movs r4, #3
    3fce:   e005        b.n 0x3fdc
    3fd0:   f7ff fae0   bl 0x3594
    3fd4:   b2c0        uxtb r0, r0
    3fd6:   5530        strb r0, [r6, r4]
    3fd8:   4428        add r0, r5
    3fda:   b285        uxth r5, r0
    3fdc:   1e64        subs r4, r4, #1
    3fde:   b2e4        uxtb r4, r4
    3fe0:   d2f6        bcs.n 0x3fd0
    3fe2:   2de0        cmp r5, #224   ; 0xe0
    3fe4:   d3f1        bcc.n 0x3fca
    3fe6:   bd70        pop {r4, r5, r6, pc}

  0x3fe8:   b530        push {r4, r5, lr}
    3fea:   004b        lsls r3, r1, #1
    3fec:   2bff        cmp r3, #255   ; 0xff
    3fee:   d902        bls.n 0x3ff6
    3ff0:   f5c3 73ff   rsb r3, r3, #510   ; 0x1fe
    3ff4:   b29b        uxth r3, r3
    3ff6:   242b        movs r4, #43   ; 0x2b
    3ff8:   fbb0 f4f4   udiv r4, r0, r4
    3ffc:   2555        movs r5, #85   ; 0x55
    3ffe:   fb04 0005   mla r0, r4, r5, r0
    4002:   eba1 0153   sub.w r1, r1, r3, lsr #1
    4006:   b2c9        uxtb r1, r1
    4008:   eb00 0040   add.w r0, r0, r0, lsl #1
    400c:   7011        strb r1, [r2, #0]
    400e:   0640        lsls r0, r0, #25
    4010:   7051        strb r1, [r2, #1]
    4012:   0e00        lsrs r0, r0, #24
    4014:   7091        strb r1, [r2, #2]
    4016:   07e5        lsls r5, r4, #31
    4018:   d001        beq.n 0x401e
    401a:   f1c0 00ff   rsb r0, r0, #255   ; 0xff
    401e:   4358        muls r0, r3
    4020:   f3c0 2007   ubfx r0, r0, #8, #8
    4024:   2c05        cmp r4, #5
    4026:   d219        bcs.n 0x405c
    4028:   e8df f004   tbb [pc, r4]
    402c:   0703        lsls r3, r0, #28
    402e:   100c        asrs r4, r1, #32
    4030:   0013        movs r3, r2
    4032:   440b        add r3, r1
    4034:   7013        strb r3, [r2, #0]
    4036:   4408        add r0, r1
    4038:   e002        b.n 0x4040
    403a:   4408        add r0, r1
    403c:   7010        strb r0, [r2, #0]
    403e:   18c8        adds r0, r1, r3
    4040:   7050        strb r0, [r2, #1]
    4042:   bd30        pop {r4, r5, pc}
    4044:   440b        add r3, r1
    4046:   7053        strb r3, [r2, #1]
    4048:   4408        add r0, r1
    404a:   e005        b.n 0x4058
    404c:   4408        add r0, r1
    404e:   7050        strb r0, [r2, #1]
    4050:   e001        b.n 0x4056
    4052:   4408        add r0, r1
    4054:   7010        strb r0, [r2, #0]
    4056:   18c8        adds r0, r1, r3
    4058:   7090        strb r0, [r2, #2]
    405a:   bd30        pop {r4, r5, pc}

  0x405c:   440b        add r3, r1
    405e:   7013        strb r3, [r2, #0]
    4060:   e7f2        b.n 0x4048
    4062:   0000

  0x4064:   b510        push {r4, lr}
    4066:   4908        ldr r1, [pc, #32]   ; (0x4088)
    4068:   2348        movs r3, #72   ; 0x48
    406a:   e009        b.n 0x4080
    406c:   2203        movs r2, #3
    406e:   e003        b.n 0x4078
    4070:   f810 4b01   ldrb.w r4, [r0], #1
    4074:   f801 4b48   strb.w r4, [r1], #72
    4078:   1e52        subs r2, r2, #1
    407a:   b2d2        uxtb r2, r2
    407c:   d2f8        bcs.n 0x4070
    407e:   39d7        subs r1, #215   ; 0xd7
    4080:   1e5b        subs r3, r3, #1
    4082:   b2db        uxtb r3, r3
    4084:   d2f2        bcs.n 0x406c
    4086:   bd10        pop {r4, pc}

  0x4088:   0x2000032e

  0x408c:   28ff        cmp r0, #255   ; 0xff
    408e:   d00a        beq.n 0x40a6
    4090:   4a05        ldr r2, [pc, #20]   ; (0x40a8)
    4092:   4402        add r2, r0
    4094:   2000        movs r0, #0
    4096:   1c40        adds r0, r0, #1
    4098:   f811 3b01   ldrb.w r3, [r1], #1
    409c:   b2c0        uxtb r0, r0
    409e:   f802 3b48   strb.w r3, [r2], #72
    40a2:   2803        cmp r0, #3
    40a4:   d3f7        bcc.n 0x4096
    40a6:   4770        bx lr

  0x40a8:   0x2000032e

function_130_7:
  0x40ac:   b570        push {r4, r5, r6, lr}
    40ae:   4605        mov r5, r0
    40b0:   4e06        ldr r6, [pc, #24]   ; (0x40cc)
    40b2:   2403        movs r4, #3
    40b4:   e006        b.n 0x40c4

  0x40b6:   782a        ldrb r2, [r5, #0]
    40b8:   2148        movs r1, #72   ; 0x48
    40ba:   4630        mov r0, r6
    40bc:   f7ff fa8e   bl 0x35dc           ; call mem_set(ptr, 0x48, )

    40c0:   1c6d        adds r5, r5, #1
    40c2:   3648        adds r6, #72   ; 0x48
  0x40c4:   1e64        subs r4, r4, #1
    40c6:   b2e4        uxtb r4, r4
    40c8:   d2f5        bcs.n 0x40b6
    40ca:   bd70        pop {r4, r5, r6, pc}

  0x40cc:   0x2000032e

  0x40d0:   28ff        cmp r0, #255   ; 0xff
    40d2:   d008        beq.n 0x40e6
    40d4:   4a04        ldr r2, [pc, #16]   ; (0x40e8)
    40d6:   4410        add r0, r2
    40d8:   2203        movs r2, #3
    40da:   e001        b.n 0x40e0
    40dc:   f800 1b48   strb.w r1, [r0], #72
    40e0:   1e52        subs r2, r2, #1
    40e2:   b2d2        uxtb r2, r2
    40e4:   d2fa        bcs.n 0x40dc
    40e6:   4770        bx lr

  0x40e8:   0x2000032e

function_11:
  0x40ec:   b57c        push {r2, r3, r4, r5, r6, lr}
    40ee:   4c08        ldr r4, [pc, #32]   ; (0x4110)
    40f0:   2005        movs r0, #5
    40f2:   f8ad 0000   strh.w r0, [sp]
    40f6:   f44f 6580   mov.w r5, #1024   ; 0x400
    40fa:   62a5        str r5, [r4, #40]   ; 0x28
    40fc:   2202        movs r2, #2
    40fe:   a901        add r1, sp, #4
    4100:   4668        mov r0, sp
    4102:   f000 f957   bl 0x43b4           ; call spi_write_read
    4106:   6265        str r5, [r4, #36]   ; 0x24
    4108:   f89d 0005   ldrb.w r0, [sp, #5]
    410c:   bd7c        pop {r2, r3, r4, r5, r6, pc}
    410e:   0000

  0x4110:   0x400b2000  ; GPIO B

function_29:
  0x4114:   b570        push {r4, r5, r6, lr}
    4116:   b08c        sub sp, #48   ; 0x30
    4118:   f000 f83e   bl 0x4198
    411c:   4e18        ldr r6, [pc, #96]   ; (0x4180)
    411e:   7830        ldrb r0, [r6, #0]
    4120:   2801        cmp r0, #1
    4122:   d129        bne.n 0x4178
    4124:   2400        movs r4, #0
    4126:   4622        mov r2, r4
    4128:   2120        movs r1, #32
    412a:   2301        movs r3, #1
    412c:   4610        mov r0, r2
    412e:   f7ff fbab   bl 0x3888
    4132:   f44f 4080   mov.w r0, #16384   ; 0x4000
    4136:   1105        asrs r5, r0, #4
    4138:   e9cd 0500   strd r0, r5, [sp]
    413c:   2008        movs r0, #8
    413e:   e9cd 0402   strd r0, r4, [sp, #8]
    4142:   9404        str r4, [sp, #16]
    4144:   9405        str r4, [sp, #20]
    4146:   2004        movs r0, #4
    4148:   9406        str r4, [sp, #24]
    414a:   e9cd 4007   strd r4, r0, [sp, #28]
    414e:   4c0d        ldr r4, [pc, #52]   ; (0x4184)
    4150:   9009        str r0, [sp, #36]   ; 0x24
    4152:   900a        str r0, [sp, #40]   ; 0x28
    4154:   4669        mov r1, sp
    4156:   4620        mov r0, r4
    4158:   f002 f9d6   bl 0x6508           ; call function_e_54
    415c:   2101        movs r1, #1
    415e:   4620        mov r0, r4
    4160:   f002 f9f7   bl 0x6552
    4164:   4808        ldr r0, [pc, #32]   ; (0x4188)
    4166:   6245        str r5, [r0, #36]   ; 0x24
    4168:   2101        movs r1, #1
    416a:   4620        mov r0, r4
    416c:   f002 f9c2   bl 0x64f4
    4170:   f000 f860   bl 0x4234
    4174:   2002        movs r0, #2
    4176:   7030        strb r0, [r6, #0]
    4178:   b00c        add sp, #48   ; 0x30
    417a:   2001        movs r0, #1
    417c:   bd70        pop {r4, r5, r6, pc}
    417e:   0000

  0x4180:   0x20000018
  0x4184:   0x40044000  ; SPI 1
  0x4188:   0x400b2000  ; GPIO B

function_10:
  0x418c:   b510        push {r4, lr}
    418e:   f7ff ffad   bl 0x40ec           ; call function_11
    4192:   f3c0 0000   ubfx r0, r0, #0, #1
    4196:   bd10        pop {r4, pc}

function_82:
  0x4198:   b570        push {r4, r5, r6, lr}
    419a:   4c12        ldr r4, [pc, #72]   ; (0x41e4)
    419c:   7820        ldrb r0, [r4, #0]
    419e:   b9f8        cbnz r0, 0x41e0

    41a0:   2100        movs r1, #0
    41a2:   f44f 3000   mov.w r0, #131072   ; 0x20000
    41a6:   2301        movs r3, #1
    41a8:   460a        mov r2, r1
    41aa:   f7ff fb6d   bl 0x3888           ; call ckcu_clocks_enable(0x20000, 0, 0, 1)

    41ae:   4e0e        ldr r6, [pc, #56]   ; (0x41e8)
    41b0:   f44f 6580   mov.w r5, #1024   ; 0x400
    41b4:   2200        movs r2, #0
    41b6:   4629        mov r1, r5
    41b8:   4630        mov r0, r6
    41ba:   f000 f9dd   bl 0x4578           ; call gpio_set_pin_pull_up_down
    41be:   2201        movs r2, #1
    41c0:   4629        mov r1, r5
    41c2:   4630        mov r0, r6
    41c4:   f000 f9c0   bl 0x4548
    41c8:   2201        movs r2, #1
    41ca:   2180        movs r1, #128   ; 0x80
    41cc:   4630        mov r0, r6
    41ce:   f000 f9bb   bl 0x4548
    41d2:   2201        movs r2, #1
    41d4:   0211        lsls r1, r2, #8
    41d6:   4630        mov r0, r6
    41d8:   f000 f9b6   bl 0x4548
    41dc:   2001        movs r0, #1
    41de:   7020        strb r0, [r4, #0]
    41e0:   2001        movs r0, #1
    41e2:   bd70        pop {r4, r5, r6, pc}

  0x41e4:   0x20000018
  0x41e8:   0x400b2000  ; GPIO B

pinmux_b789_gpio:
  0x41ec:   b570        push {r4, r5, r6, lr}
    41ee:   f000 f8ad   bl 0x434c
    41f2:   4d0f        ldr r5, [pc, #60]   ; (0x4230)
    41f4:   f44f 6480   mov.w r4, #1024   ; 0x400
    ; Set pin pull-up
    41f8:   2200        movs r2, #0
    41fa:   4621        mov r1, r4
    41fc:   4628        mov r0, r5
    41fe:   f000 f9bb   bl 0x4578           ; call gpio_set_pin_pull_up_down(GPIO B, 0x400, 0)
    ; Set pin input
    4202:   2200        movs r2, #0
    4204:   4621        mov r1, r4
    4206:   4628        mov r0, r5
    4208:   f000 f996   bl 0x4538           ; call gpio_set_input_output(GPIO B, 0x400, 0)

    ; Select AF0 (default) for GPIO B pins 7,8,9 (pins 58,59,60)
    420c:   2200        movs r2, #0
    420e:   2107        movs r1, #7
    4210:   2001        movs r0, #1
    4212:   f7ff fac3   bl 0x379c           ; call afio_pin_config(1, 7, 0)
    4216:   2200        movs r2, #0
    4218:   2108        movs r1, #8
    421a:   2001        movs r0, #1
    421c:   f7ff fabe   bl 0x379c           ; call afio_pin_config(1, 8, 0)
    4220:   e8bd 4070   ldmia.w sp!, {r4, r5, r6, lr}
    4224:   2200        movs r2, #0
    4226:   2109        movs r1, #9
    4228:   2001        movs r0, #1
    422a:   f7ff bab7   b.w 0x379c          ; return afio_pin_config(1, 9, 0)
    422e:   0000

  0x4230:   0x400b2000  ; GPIO B

pinmux_b789_spi:
  0x4234:   b570        push {r4, r5, r6, lr}
    4236:   2201        movs r2, #1
    4238:   4d0e        ldr r5, [pc, #56]   ; (0x4274)
    423a:   0294        lsls r4, r2, #10
    ; Set pin output
    423c:   4621        mov r1, r4
    423e:   4628        mov r0, r5
    4240:   f000 f97a   bl 0x4538           ; call gpio_set_input_output(GPIO B, 0x400, 1)
    ; Disable pull up/down
    4244:   2202        movs r2, #2
    4246:   4621        mov r1, r4
    4248:   4628        mov r0, r5
    424a:   f000 f995   bl 0x4578           ; call gpio_set_pin_pull_up_down(GPIO B, 0x400, 2)

    ; Select AF5 (SPI) for GPIO B pins 7,8,9 (pins 58,59,60)
    424e:   2205        movs r2, #5
    4250:   2107        movs r1, #7
    4252:   2001        movs r0, #1
    4254:   f7ff faa2   bl 0x379c           ; call afio_pin_config(1, 7, 5)
    4258:   2205        movs r2, #5
    425a:   2108        movs r1, #8
    425c:   2001        movs r0, #1
    425e:   f7ff fa9d   bl 0x379c           ; call afio_pin_config(1, 8, 5)
    4262:   2205        movs r2, #5
    4264:   2109        movs r1, #9
    4266:   2001        movs r0, #1
    4268:   f7ff fa98   bl 0x379c           ; call afio_pin_config(1, 9, 5)

    426c:   e8bd 4070   ldmia.w sp!, {r4, r5, r6, lr}
    4270:   f000 b8ec   b.w 0x444c

  0x4274:   0x400b2000  ; GPIO B

function_e_38:
    ; r0 =
    ; r1 =
    ; r2 =
  0x4278:   e92d 43f8   stmdb sp!, {r3, r4, r5, r6, r7, r8, r9, lr}
    427c:   4617        mov r7, r2
    427e:   460c        mov r4, r1
    4280:   4680        mov r8, r0
    4282:   f000 f933   bl 0x44ec
    4286:   4e0e        ldr r6, [pc, #56]   ; (0x42c0)
    4288:   f44f 6580   mov.w r5, #1024   ; 0x400
    428c:   62b5        str r5, [r6, #40]   ; 0x28
    428e:   2002        movs r0, #2
    4290:   f88d 0000   strb.w r0, [sp]
    4294:   0c20        lsrs r0, r4, #16
    4296:   f88d 0001   strb.w r0, [sp, #1]
    429a:   0a20        lsrs r0, r4, #8
    429c:   f88d 0002   strb.w r0, [sp, #2]
    42a0:   f88d 4003   strb.w r4, [sp, #3]
    42a4:   2204        movs r2, #4
    42a6:   2100        movs r1, #0
    42a8:   4668        mov r0, sp
    42aa:   f000 f883   bl 0x43b4           ; call spi_write_read
    42ae:   463a        mov r2, r7
    42b0:   2100        movs r1, #0
    42b2:   4640        mov r0, r8
    42b4:   f000 f87e   bl 0x43b4           ; call spi_write_read
    42b8:   6275        str r5, [r6, #36]   ; 0x24
    42ba:   e8bd 83f8   ldmia.w sp!, {r3, r4, r5, r6, r7, r8, r9, pc}
    42be:   0000        movs r0, r0

  0x42c0:   0x400b2000  ; GPIO B

function_e_39:
  0x42c4:   b5f8        push {r3, r4, r5, r6, r7, lr}
    42c6:   4604        mov r4, r0
    42c8:   f000 f910   bl 0x44ec
    42cc:   4e0a        ldr r6, [pc, #40]   ; (0x42f8)
    42ce:   f44f 6580   mov.w r5, #1024   ; 0x400
    42d2:   62b5        str r5, [r6, #40]   ; 0x28
    42d4:   2020        movs r0, #32
    42d6:   f88d 0000   strb.w r0, [sp]
    42da:   0c20        lsrs r0, r4, #16
    42dc:   f88d 0001   strb.w r0, [sp, #1]
    42e0:   0a20        lsrs r0, r4, #8
    42e2:   f88d 0002   strb.w r0, [sp, #2]
    42e6:   f88d 4003   strb.w r4, [sp, #3]
    42ea:   2204        movs r2, #4
    42ec:   2100        movs r1, #0
    42ee:   4668        mov r0, sp
    42f0:   f000 f860   bl 0x43b4           ; call spi_write_read
    42f4:   6275        str r5, [r6, #36]   ; 0x24
    42f6:   bdf8        pop {r3, r4, r5, r6, r7, pc}

  0x42f8:   0x400b2000  ; GPIO B

function_76:
  0x42fc:   b5f8        push {r3, r4, r5, r6, r7, lr}
    42fe:   4606        mov r6, r0
    4300:   f000 f8f4   bl 0x44ec
    4304:   4c07        ldr r4, [pc, #28]   ; (0x4324)
    4306:   f44f 6580   mov.w r5, #1024   ; 0x400
    430a:   62a5        str r5, [r4, #40]   ; 0x28
    430c:   2001        movs r0, #1
    430e:   f88d 0000   strb.w r0, [sp]
    4312:   f88d 6001   strb.w r6, [sp, #1]
    4316:   2202        movs r2, #2
    4318:   2100        movs r1, #0
    431a:   4668        mov r0, sp
    431c:   f000 f84a   bl 0x43b4           ; call spi_write_read
    4320:   6265        str r5, [r4, #36]   ; 0x24
    4322:   bdf8        pop {r3, r4, r5, r6, r7, pc}

  0x4324:   0x400b2000  ; GPIO B

function_78:
  0x4328:   b510        push {r4, lr}
    432a:   243c        movs r4, #60   ; 0x3c
    432c:   f7ff ffa4   bl 0x4278
    4330:   e005        b.n 0x433e
    4332:   2064        movs r0, #100   ; 0x64
    4334:   f7ff fa46   bl 0x37c4
    4338:   f7ff ff28   bl 0x418c
    433c:   b118        cbz r0, 0x4346
    433e:   4620        mov r0, r4
    4340:   1e64        subs r4, r4, #1
    4342:   d2f6        bcs.n 0x4332
    4344:   bd10        pop {r4, pc}
    4346:   2001        movs r0, #1
    4348:   bd10        pop {r4, pc}
    434a:   0000

function_42:
  0x434c:   b538        push {r3, r4, r5, lr}
    434e:   4c08        ldr r4, [pc, #32]   ; (0x4370)
    4350:   20b9        movs r0, #185   ; 0xb9
    4352:   f88d 0000   strb.w r0, [sp]
    4356:   f44f 6580   mov.w r5, #1024   ; 0x400
    435a:   62a5        str r5, [r4, #40]   ; 0x28
    435c:   2201        movs r2, #1
    435e:   2100        movs r1, #0
    4360:   4668        mov r0, sp
    4362:   f000 f827   bl 0x43b4           ; call spi_write_read
    4366:   6265        str r5, [r4, #36]   ; 0x24
    4368:   200a        movs r0, #10
    436a:   f7ff fa2b   bl 0x37c4
    436e:   bd38        pop {r3, r4, r5, pc}

  0x4370:   0x400b2000  ; GPIO B

function_25:
    ; r0 =
    ; r1 =
    ; r2 =
  0x4374:   b5f8        push {r3, r4, r5, r6, r7, lr}
    4376:   4d0e        ldr r5, [pc, #56]   ; (0x43b0)
    4378:   f44f 6480   mov.w r4, #1024   ; 0x400
    437c:   4617        mov r7, r2
    437e:   4606        mov r6, r0
    4380:   62ac        str r4, [r5, #40]   ; 0x28
    4382:   2003        movs r0, #3
    4384:   f88d 0000   strb.w r0, [sp]
    4388:   0c08        lsrs r0, r1, #16
    438a:   f88d 0001   strb.w r0, [sp, #1]
    438e:   0a08        lsrs r0, r1, #8
    4390:   f88d 0002   strb.w r0, [sp, #2]
    4394:   f88d 1003   strb.w r1, [sp, #3]
    4398:   2204        movs r2, #4
    439a:   2100        movs r1, #0
    439c:   4668        mov r0, sp
    439e:   f000 f809   bl 0x43b4           ; call spi_write_read
    43a2:   463a        mov r2, r7
    43a4:   4631        mov r1, r6
    43a6:   2000        movs r0, #0
    43a8:   f000 f804   bl 0x43b4           ; call spi_write_read
    43ac:   626c        str r4, [r5, #36]   ; 0x24
    43ae:   bdf8        pop {r3, r4, r5, r6, r7, pc}

  0x43b0:   0x400b2000  ; GPIO B

spi_write_read:
    ; a0 = src pointer (0/sp)
    ; a1 = dest pointer
    ; a2 = data length

    ; Write a0 to SPI1
    ; Read a1 from SPI1
    ; Write a0 to SPI1 again
    ; Read from SPI1 again and write to the end of a1
  0x43b4:   b5f0        push {r4, r5, r6, r7, lr}
    43b6:   2300        movs r3, #0
    43b8:   2a08        cmp r2, #8
    43ba:   d901        bls.n 0x43c0
    43bc:   2408        movs r4, #8
    43be:   e000        b.n 0x43c2
    43c0:   4614        mov r4, r2
    43c2:   2500        movs r5, #0
    43c4:   462f        mov r7, r5
    43c6:   4e16        ldr r6, [pc, #88]   ; (0x4420)
    43c8:   e005        b.n 0x43d6
    43ca:   b138        cbz r0, 0x43dc
    43cc:   f810 c005   ldrb.w ip, [r0, r5]
    43d0:   f8c6 c010   str.w ip, [r6, #16]
    43d4:   1c6d        adds r5, r5, #1
    43d6:   42a5        cmp r5, r4
    43d8:   d3f7        bcc.n 0x43ca
    43da:   e010        b.n 0x43fe
    43dc:   6137        str r7, [r6, #16]
    43de:   e7f9        b.n 0x43d4
    43e0:   69f5        ldr r5, [r6, #28]
    43e2:   f015 0ff0   tst.w r5, #240   ; 0xf0
    43e6:   d0fb        beq.n 0x43e0
    43e8:   6935        ldr r5, [r6, #16]
    43ea:   b2ed        uxtb r5, r5
    43ec:   b150        cbz r0, 0x4404
    43ee:   f810 c004   ldrb.w ip, [r0, r4]
    43f2:   f8c6 c010   str.w ip, [r6, #16]
    43f6:   1c64        adds r4, r4, #1
    43f8:   b101        cbz r1, 0x43fc
    43fa:   54cd        strb r5, [r1, r3]
    43fc:   1c5b        adds r3, r3, #1
    43fe:   4294        cmp r4, r2
    4400:   d3ee        bcc.n 0x43e0
    4402:   e00a        b.n 0x441a
    4404:   6137        str r7, [r6, #16]
    4406:   e7f6        b.n 0x43f6
    4408:   69f0        ldr r0, [r6, #28]
    440a:   f010 0ff0   tst.w r0, #240   ; 0xf0
    440e:   d0fb        beq.n 0x4408
    4410:   6930        ldr r0, [r6, #16]
    4412:   b2c0        uxtb r0, r0
    4414:   b101        cbz r1, 0x4418
    4416:   54c8        strb r0, [r1, r3]
    4418:   1c5b        adds r3, r3, #1
    441a:   4293        cmp r3, r2
    441c:   d3f4        bcc.n 0x4408
    441e:   bdf0        pop {r4, r5, r6, r7, pc}

  0x4420:   0x40044000  ; SPI 1

function_e_40:
  0x4424:   b570        push {r4, r5, r6, lr}
    4426:   f240 142d   movw r4, #301   ; 0x12d
    442a:   f7ff ff4b   bl 0x42c4
    442e:   f44f 757a   mov.w r5, #1000   ; 0x3e8
    4432:   e005        b.n 0x4440
    4434:   4628        mov r0, r5
    4436:   f7ff f9c5   bl 0x37c4           ; call spin_wait_maybe
    443a:   f7ff fea7   bl 0x418c
    443e:   b118        cbz r0, 0x4448
    4440:   4620        mov r0, r4
    4442:   1e64        subs r4, r4, #1
    4444:   d2f6        bcs.n 0x4434
    4446:   bd70        pop {r4, r5, r6, pc}
    4448:   2001        movs r0, #1
    444a:   bd70        pop {r4, r5, r6, pc}
    444c:   b538        push {r3, r4, r5, lr}
    444e:   4c08        ldr r4, [pc, #32]   ; (0x4470)
    4450:   20ab        movs r0, #171   ; 0xab
    4452:   f88d 0000   strb.w r0, [sp]
    4456:   f44f 6580   mov.w r5, #1024   ; 0x400
    445a:   62a5        str r5, [r4, #40]   ; 0x28
    445c:   2201        movs r2, #1
    445e:   2100        movs r1, #0
    4460:   4668        mov r0, sp
    4462:   f7ff ffa7   bl 0x43b4           ; call spi_write_read
    4466:   6265        str r5, [r4, #36]   ; 0x24
    4468:   200a        movs r0, #10
    446a:   f7ff f9ab   bl 0x37c4           ; call spin_wait_maybe
    446e:   bd38        pop {r3, r4, r5, pc}

  0x4470:   0x400b2000  ; GPIO B

function_27:
  0x4474:   e92d 47f0   stmdb sp!, {r4, r5, r6, r7, r8, r9, sl, lr}
    4478:   460d        mov r5, r1
    447a:   4606        mov r6, r0
    447c:   4268        negs r0, r5
    447e:   b2c4        uxtb r4, r0
    4480:   4294        cmp r4, r2
    4482:   d204        bcs.n 0x448e
    4484:   1b10        subs r0, r2, r4
    4486:   f3c0 270f   ubfx r7, r0, #8, #16
    448a:   b2c0        uxtb r0, r0
    448c:   e002        b.n 0x4494
    448e:   2700        movs r7, #0
    4490:   b294        uxth r4, r2
    4492:   4638        mov r0, r7
    4494:   4680        mov r8, r0
    4496:   b13c        cbz r4, 0x44a8
    4498:   4622        mov r2, r4
    449a:   4630        mov r0, r6
    449c:   f7ff ff44   bl 0x4328
    44a0:   2801        cmp r0, #1
    44a2:   d11d        bne.n 0x44e0
    44a4:   4425        add r5, r4
    44a6:   4426        add r6, r4
    44a8:   2400        movs r4, #0
    44aa:   f44f 7980   mov.w r9, #256   ; 0x100
    44ae:   e00b        b.n 0x44c8
    44b0:   464a        mov r2, r9
    44b2:   4629        mov r1, r5
    44b4:   4630        mov r0, r6
    44b6:   f7ff ff37   bl 0x4328
    44ba:   2801        cmp r0, #1
    44bc:   d110        bne.n 0x44e0
    44be:   1c64        adds r4, r4, #1
    44c0:   f505 7580   add.w r5, r5, #256   ; 0x100
    44c4:   f506 7680   add.w r6, r6, #256   ; 0x100
    44c8:   42bc        cmp r4, r7
    44ca:   dbf1        blt.n 0x44b0
    44cc:   ea5f 0008   movs.w r0, r8
    44d0:   d009        beq.n 0x44e6
    44d2:   4602        mov r2, r0
    44d4:   4629        mov r1, r5
    44d6:   4630        mov r0, r6
    44d8:   f7ff ff26   bl 0x4328
    44dc:   2801        cmp r0, #1
    44de:   d002        beq.n 0x44e6
    44e0:   2000        movs r0, #0
    44e2:   e8bd 87f0   ldmia.w sp!, {r4, r5, r6, r7, r8, r9, sl, pc}
    44e6:   2001        movs r0, #1
    44e8:   e7fb        b.n 0x44e2
    44ea:   0000

function_77:
  0x44ec:   b538        push {r3, r4, r5, lr}
    44ee:   4c07        ldr r4, [pc, #28]   ; (0x450c)
    44f0:   2006        movs r0, #6
    44f2:   f88d 0000   strb.w r0, [sp]
    44f6:   f44f 6580   mov.w r5, #1024   ; 0x400
    44fa:   62a5        str r5, [r4, #40]   ; 0x28
    44fc:   2201        movs r2, #1
    44fe:   2100        movs r1, #0
    4500:   4668        mov r0, sp
    4502:   f7ff ff57   bl 0x43b4           ; call spi_write_read
    4506:   6265        str r5, [r4, #36]   ; 0x24
    4508:   bd38        pop {r3, r4, r5, pc}
    450a:   0000

  0x450c:   0x400b2000  ; GPIO B

function_28:
  0x4510:   b510        push {r4, lr}
    4512:   f44f 74cd   mov.w r4, #410   ; 0x19a
    4516:   f7ff fef1   bl 0x42fc
    451a:   e005        b.n 0x4528
    451c:   2064        movs r0, #100   ; 0x64
    451e:   f7ff f951   bl 0x37c4
    4522:   f7ff fe33   bl 0x418c
    4526:   b118        cbz r0, 0x4530
    4528:   4620        mov r0, r4
    452a:   1e64        subs r4, r4, #1
    452c:   d2f6        bcs.n 0x451c
    452e:   bd10        pop {r4, pc}
    4530:   2001        movs r0, #1
    4532:   bd10        pop {r4, pc}

  0x4534:   6281        str r1, [r0, #40]   ; 0x28
    4536:   4770        bx lr

gpio_set_input_output:
    ; r0 = GPIO reg base
    ; r1 = pin bit
    ; r2 = 0/1 input/output
  0x4538:   2a00        cmp r2, #0
    453a:   6802        ldr r2, [r0, #0]
    453c:   d001        beq.n 0x4542
    453e:   430a        orrs r2, r1
    4540:   e000        b.n 0x4544
    4542:   438a        bics r2, r1
    4544:   6002        str r2, [r0, #0]
    4546:   4770        bx lr

gpio_set_output_current:
    ; r0 = GPIO reg base
    ; r1 = pin bit
    ; r2 = 0/1 4mA/8mA
  0x4548:   2a00        cmp r2, #0
    454a:   6942        ldr r2, [r0, #20]
    454c:   d001        beq.n 0x4552
    454e:   430a        orrs r2, r1
    4550:   e000        b.n 0x4554
    4552:   438a        bics r2, r1
    4554:   6142        str r2, [r0, #20]
    4556:   4770        bx lr

gpio_set_input_enable:
    ; r0 = GPIO reg base
    ; r1 = pin bit
    ; r2 = 0/1 disable/enable
  0x4558:   2a00        cmp r2, #0
    455a:   6842        ldr r2, [r0, #4]
    455c:   d001        beq.n 0x4562
    455e:   430a        orrs r2, r1
    4560:   e000        b.n 0x4564
    4562:   438a        bics r2, r1
    4564:   6042        str r2, [r0, #4]
    4566:   4770        bx lr

gpio_set_open_drain:
    ; r0 = GPIO reg base
    ; r1 = pin bit
    ; r2 = enable/disable
  0x4568:   2a00        cmp r2, #0
    456a:   6902        ldr r2, [r0, #16]
    456c:   d001        beq.n 0x4572
    456e:   430a        orrs r2, r1
    4570:   e000        b.n 0x4574
    4572:   438a        bics r2, r1
    4574:   6102        str r2, [r0, #16]
    4576:   4770        bx lr

gpio_set_pin_pull_up_down:
    ; r0 = GPIO reg base
    ; r1 = pin bit
    ; r2 = 0/1/2 pull-up/pull-down/none
  0x4578:   b142        cbz r2, 0x458c
    457a:   2a01        cmp r2, #1
    457c:   d009        beq.n 0x4592

    457e:   6882        ldr r2, [r0, #8]
    4580:   438a        bics r2, r1
    4582:   6082        str r2, [r0, #8]
    4584:   68c2        ldr r2, [r0, #12]
    4586:   438a        bics r2, r1
    4588:   60c2        str r2, [r0, #12]
    458a:   4770        bx lr

    458c:   6882        ldr r2, [r0, #8]
    458e:   430a        orrs r2, r1
    4590:   e7f7        b.n 0x4582
    4592:   68c2        ldr r2, [r0, #12]
    4594:   430a        orrs r2, r1
    4596:   60c2        str r2, [r0, #12]
    4598:   6882        ldr r2, [r0, #8]
    459a:   438a        bics r2, r1
    459c:   6082        str r2, [r0, #8]
    459e:   4770        bx lr

gpio_set_pin:
    ; r0 = GPIO reg base
    ; r1 = pin bit
  0x45a0:   6241        str r1, [r0, #36]   ; 0x24
    45a2:   4770        bx lr

gpio_set_reset_pin:
    ; r0 = GPIO reg base
    ; r1 = pin bit
    ; r2 = 0/1 reset/set
  0x45a4:   b10a        cbz r2, 0x45aa
    45a6:   6241        str r1, [r0, #36]   ; 0x24
    45a8:   4770        bx lr
    45aa:   6281        str r1, [r0, #40]   ; 0x28
    45ac:   4770        bx lr

gptm_enable_disable:
    ; r0 = GPTM reg base
    ; r1 = 0/1 enable/disable
  0x45ae:   2900        cmp r1, #0
    45b0:   6901        ldr r1, [r0, #16]
    45b2:   d002        beq.n 0x45ba
    45b4:   f041 0101   orr.w r1, r1, #1
    45b8:   e001        b.n 0x45be
    45ba:   f021 0101   bic.w r1, r1, #1
    45be:   6101        str r1, [r0, #16]
    45c0:   4770        bx lr

    45c2:   b5f0        push {r4, r5, r6, r7, lr}
    45c4:   780b        ldrb r3, [r1, #0]
    45c6:   6d07        ldr r7, [r0, #80]   ; 0x50
    45c8:   eb00 0483   add.w r4, r0, r3, lsl #2
    45cc:   f104 0240   add.w r2, r4, #64   ; 0x40
    45d0:   f104 0590   add.w r5, r4, #144   ; 0x90
    45d4:   f104 06a0   add.w r6, r4, #160   ; 0xa0
    45d8:   005b        lsls r3, r3, #1
    45da:   2401        movs r4, #1
    45dc:   409c        lsls r4, r3
    45de:   43e4        mvns r4, r4
    45e0:   4027        ands r7, r4
    45e2:   6507        str r7, [r0, #80]   ; 0x50
    45e4:   6d47        ldr r7, [r0, #84]   ; 0x54
    45e6:   4027        ands r7, r4
    45e8:   6547        str r7, [r0, #84]   ; 0x54
    45ea:   6d44        ldr r4, [r0, #84]   ; 0x54
    45ec:   794f        ldrb r7, [r1, #5]
    45ee:   409f        lsls r7, r3
    45f0:   433c        orrs r4, r7
    45f2:   6544        str r4, [r0, #84]   ; 0x54
    45f4:   6814        ldr r4, [r2, #0]
    45f6:   f240 1707   movw r7, #263   ; 0x107
    45fa:   43bc        bics r4, r7
    45fc:   6014        str r4, [r2, #0]
    45fe:   6814        ldr r4, [r2, #0]
    4600:   884f        ldrh r7, [r1, #2]
    4602:   433c        orrs r4, r7
    4604:   6014        str r4, [r2, #0]
    4606:   88ca        ldrh r2, [r1, #6]
    4608:   602a        str r2, [r5, #0]
    460a:   890a        ldrh r2, [r1, #8]
    460c:   6032        str r2, [r6, #0]
    460e:   6d02        ldr r2, [r0, #80]   ; 0x50
    4610:   7909        ldrb r1, [r1, #4]
    4612:   4099        lsls r1, r3
    4614:   430a        orrs r2, r1
    4616:   6502        str r2, [r0, #80]   ; 0x50
    4618:   bdf0        pop {r4, r5, r6, r7, pc}
    461a:   880a        ldrh r2, [r1, #0]
    461c:   f8c0 2088   str.w r2, [r0, #136]   ; 0x88
    4620:   884a        ldrh r2, [r1, #2]
    4622:   f8c0 2084   str.w r2, [r0, #132]   ; 0x84
    4626:   6802        ldr r2, [r0, #0]
    4628:   f422 3240   bic.w r2, r2, #196608   ; 0x30000
    462c:   6002        str r2, [r0, #0]
    462e:   6802        ldr r2, [r0, #0]
    4630:   f022 7280   bic.w r2, r2, #16777216   ; 0x1000000
    4634:   6002        str r2, [r0, #0]
    4636:   6802        ldr r2, [r0, #0]
    4638:   684b        ldr r3, [r1, #4]
    463a:   431a        orrs r2, r3
    463c:   6002        str r2, [r0, #0]
    463e:   8909        ldrh r1, [r1, #8]
    4640:   6781        str r1, [r0, #120]   ; 0x78
    4642:   4770        bx lr
    4644:   480a        ldr r0, [pc, #40]   ; (0x4670)
    4646:   7881        ldrb r1, [r0, #2]
    4648:   b109        cbz r1, 0x464e
    464a:   2000        movs r0, #0
    464c:   4770        bx lr
    464e:   7ac1        ldrb r1, [r0, #11]
    4650:   b109        cbz r1, 0x4656
    4652:   2001        movs r0, #1
    4654:   4770        bx lr
    4656:   7a80        ldrb r0, [r0, #10]
    4658:   b108        cbz r0, 0x465e
    465a:   2002        movs r0, #2
    465c:   4770        bx lr
    465e:   4805        ldr r0, [pc, #20]   ; (0x4674)
    4660:   7980        ldrb r0, [r0, #6]
    4662:   2801        cmp r0, #1
    4664:   d001        beq.n 0x466a
    4666:   2005        movs r0, #5
    4668:   4770        bx lr
    466a:   2003        movs r0, #3
    466c:   4770        bx lr
    466e:   0000        movs r0, r0
    4670:   0648        lsls r0, r1, #25
    4672:   2000        movs r0, #0
    4674:   19d0        adds r0, r2, r7
    4676:   2000        movs r0, #0
    4678:   b510        push {r4, lr}
    467a:   b190        cbz r0, 0x46a2
    467c:   f000 fa18   bl 0x4ab0
    4680:   2800        cmp r0, #0
    4682:   d019        beq.n 0x46b8
    4684:   210a        movs r1, #10
    4686:   480d        ldr r0, [pc, #52]   ; (0x46bc)
    4688:   f7fe ffaf   bl 0x35ea
    468c:   480c        ldr r0, [pc, #48]   ; (0x46c0)
    468e:   7841        ldrb r1, [r0, #1]
    4690:   064a        lsls r2, r1, #25
    4692:   f04f 0100   mov.w r1, #0
    4696:   6001        str r1, [r0, #0]
    4698:   d503        bpl.n 0x46a2
    469a:   7841        ldrb r1, [r0, #1]
    469c:   f041 0140   orr.w r1, r1, #64   ; 0x40
    46a0:   7041        strb r1, [r0, #1]
    46a2:   f001 ffaf   bl 0x6604
    46a6:   4907        ldr r1, [pc, #28]   ; (0x46c4)
    46a8:   2001        movs r0, #1
    46aa:   7008        strb r0, [r1, #0]
    46ac:   4906        ldr r1, [pc, #24]   ; (0x46c8)
    46ae:   7008        strb r0, [r1, #0]
    46b0:   4906        ldr r1, [pc, #24]   ; (0x46cc)
    46b2:   7008        strb r0, [r1, #0]
    46b4:   4906        ldr r1, [pc, #24]   ; (0x46d0)
    46b6:   7008        strb r0, [r1, #0]
    46b8:   bd10        pop {r4, pc}
    46ba:   0000        movs r0, r0
    46bc:   0654        lsls r4, r2, #25
    46be:   2000        movs r0, #0
    46c0:   0030        movs r0, r6
    46c2:   2000        movs r0, #0
    46c4:   0034        movs r4, r6
    46c6:   2000        movs r0, #0
    46c8:   0037        movs r7, r6
    46ca:   2000        movs r0, #0
    46cc:   0035        movs r5, r6
    46ce:   2000        movs r0, #0
    46d0:   0036        movs r6, r6
    46d2:   2000        movs r0, #0
    46d4:   2150        movs r1, #80   ; 0x50
    46d6:   4a06        ldr r2, [pc, #24]   ; (0x46f0)
    46d8:   e004        b.n 0x46e4
    46da:   5c53        ldrb r3, [r2, r1]
    46dc:   4283        cmp r3, r0
    46de:   d101        bne.n 0x46e4
    46e0:   b2c8        uxtb r0, r1
    46e2:   4770        bx lr
    46e4:   1e49        subs r1, r1, #1
    46e6:   b289        uxth r1, r1
    46e8:   d2f7        bcs.n 0x46da
    46ea:   2000        movs r0, #0
    46ec:   4770        bx lr
    46ee:   0000        movs r0, r0
    46f0:   065e        lsls r6, r3, #25
    46f2:   2000        movs r0, #0
    46f4:   4b0b        ldr r3, [pc, #44]   ; (0x4724)
    46f6:   b510        push {r4, lr}
    46f8:   5c1a        ldrb r2, [r3, r0]
    46fa:   b17a        cbz r2, 0x471c
    46fc:   b101        cbz r1, 0x4700
    46fe:   700a        strb r2, [r1, #0]
    4700:   4a08        ldr r2, [pc, #32]   ; (0x4724)
    4702:   0941        lsrs r1, r0, #5
    4704:   3252        adds r2, #82   ; 0x52
    4706:   f000 041f   and.w r4, r0, #31
    470a:   f852 1021   ldr.w r1, [r2, r1, lsl #2]
    470e:   2201        movs r2, #1
    4710:   40a2        lsls r2, r4
    4712:   4211        tst r1, r2
    4714:   d002        beq.n 0x471c
    4716:   5c18        ldrb r0, [r3, r0]
    4718:   282f        cmp r0, #47   ; 0x2f
    471a:   d301        bcc.n 0x4720
    471c:   2001        movs r0, #1
    471e:   bd10        pop {r4, pc}
    4720:   2000        movs r0, #0
    4722:   bd10        pop {r4, pc}
    4724:   065e        lsls r6, r3, #25
    4726:   2000        movs r0, #0
    4728:   e92d 41f0   stmdb sp!, {r4, r5, r6, r7, r8, lr}
    472c:   460d        mov r5, r1
    472e:   4604        mov r4, r0
    4730:   2150        movs r1, #80   ; 0x50
    4732:   4812        ldr r0, [pc, #72]   ; (0x477c)
    4734:   f7fe ff59   bl 0x35ea
    4738:   4810        ldr r0, [pc, #64]   ; (0x477c)
    473a:   2100        movs r1, #0
    473c:   380a        subs r0, #10
    473e:   4e0f        ldr r6, [pc, #60]   ; (0x477c)
    4740:   65c1        str r1, [r0, #92]   ; 0x5c
    4742:   6601        str r1, [r0, #96]   ; 0x60
    4744:   f100 025c   add.w r2, r0, #92   ; 0x5c
    4748:   2301        movs r3, #1
    474a:   6641        str r1, [r0, #100]   ; 0x64
    474c:   e010        b.n 0x4770
    474e:   7821        ldrb r1, [r4, #0]
    4750:   7860        ldrb r0, [r4, #1]
    4752:   5470        strb r0, [r6, r1]
    4754:   78a0        ldrb r0, [r4, #2]
    4756:   b150        cbz r0, 0x476e
    4758:   7821        ldrb r1, [r4, #0]
    475a:   0948        lsrs r0, r1, #5
    475c:   f001 011f   and.w r1, r1, #31
    4760:   f852 7020   ldr.w r7, [r2, r0, lsl #2]
    4764:   fa03 f101   lsl.w r1, r3, r1
    4768:   430f        orrs r7, r1
    476a:   f842 7020   str.w r7, [r2, r0, lsl #2]
    476e:   1ce4        adds r4, r4, #3
    4770:   1e6d        subs r5, r5, #1
    4772:   b2ed        uxtb r5, r5
    4774:   d2eb        bcs.n 0x474e
    4776:   e8bd 81f0   ldmia.w sp!, {r4, r5, r6, r7, r8, pc}
    477a:   0000        movs r0, r0
    477c:   065e        lsls r6, r3, #25
    477e:   2000        movs r0, #0
    4780:   e92d 41f0   stmdb sp!, {r4, r5, r6, r7, r8, lr}
    4784:   0a01        lsrs r1, r0, #8
    4786:   07c9        lsls r1, r1, #31
    4788:   d002        beq.n 0x4790
    478a:   f000 fb77   bl 0x4e7c
    478e:   e05f        b.n 0x4850
    4790:   b2c3        uxtb r3, r0
    4792:   0e02        lsrs r2, r0, #24
    4794:   2401        movs r4, #1
    4796:   2be8        cmp r3, #232   ; 0xe8
    4798:   d914        bls.n 0x47c4
    479a:   0e00        lsrs r0, r0, #24
    479c:   f3c0 0240   ubfx r2, r0, #1, #1
    47a0:   2bec        cmp r3, #236   ; 0xec
    47a2:   d206        bcs.n 0x47b2
    47a4:   3be9        subs r3, #233   ; 0xe9
    47a6:   b2d9        uxtb r1, r3
    47a8:   482b        ldr r0, [pc, #172]   ; (0x4858)
    47aa:   f7ff fbfd   bl 0x3fa8
    47ae:   482b        ldr r0, [pc, #172]   ; (0x485c)
    47b0:   e04d        b.n 0x484e
    47b2:   2bfd        cmp r3, #253   ; 0xfd
    47b4:   d84c        bhi.n 0x4850
    47b6:   3bec        subs r3, #236   ; 0xec
    47b8:   b2d9        uxtb r1, r3
    47ba:   4829        ldr r0, [pc, #164]   ; (0x4860)
    47bc:   f7ff fbf4   bl 0x3fa8
    47c0:   4828        ldr r0, [pc, #160]   ; (0x4864)
    47c2:   e044        b.n 0x484e
    47c4:   f000 0107   and.w r1, r0, #7
    47c8:   2601        movs r6, #1
    47ca:   f1a3 0ce0   sub.w ip, r3, #224   ; 0xe0
    47ce:   408e        lsls r6, r1
    47d0:   4f25        ldr r7, [pc, #148]   ; (0x4868)
    47d2:   4d26        ldr r5, [pc, #152]   ; (0x486c)
    47d4:   f1bc 0f07   cmp.w ip, #7
    47d8:   d80a        bhi.n 0x47f0
    47da:   4628        mov r0, r5
    47dc:   b2f1        uxtb r1, r6
    47de:   7800        ldrb r0, [r0, #0]
    47e0:   0792        lsls r2, r2, #30
    47e2:   d501        bpl.n 0x47e8
    47e4:   4308        orrs r0, r1
    47e6:   e000        b.n 0x47ea
    47e8:   4388        bics r0, r1
    47ea:   7028        strb r0, [r5, #0]
    47ec:   703c        strb r4, [r7, #0]
    47ee:   e02f        b.n 0x4850
    47f0:   2100        movs r1, #0
    47f2:   eb05 0c01   add.w ip, r5, r1
    47f6:   f89c c002   ldrb.w ip, [ip, #2]
    47fa:   459c        cmp ip, r3
    47fc:   d105        bne.n 0x480a
    47fe:   0790        lsls r0, r2, #30
    4800:   d4f4        bmi.n 0x47ec
    4802:   4429        add r1, r5
    4804:   2000        movs r0, #0
    4806:   7088        strb r0, [r1, #2]
    4808:   e7f0        b.n 0x47ec
    480a:   1c49        adds r1, r1, #1
    480c:   b2c9        uxtb r1, r1
    480e:   2906        cmp r1, #6
    4810:   d3ef        bcc.n 0x47f2
    4812:   0791        lsls r1, r2, #30
    4814:   d50b        bpl.n 0x482e
    4816:   2100        movs r1, #0
    4818:   eb05 0c01   add.w ip, r5, r1
    481c:   f89c c002   ldrb.w ip, [ip, #2]
    4820:   f1bc 0f00   cmp.w ip, #0
    4824:   d00d        beq.n 0x4842
    4826:   1c49        adds r1, r1, #1
    4828:   b2c9        uxtb r1, r1
    482a:   2906        cmp r1, #6
    482c:   d3f4        bcc.n 0x4818
    482e:   0793        lsls r3, r2, #30
    4830:   4a0f        ldr r2, [pc, #60]   ; (0x4870)
    4832:   f3c0 00c4   ubfx r0, r0, #3, #5
    4836:   4410        add r0, r2
    4838:   b2f1        uxtb r1, r6
    483a:   7882        ldrb r2, [r0, #2]
    483c:   d504        bpl.n 0x4848
    483e:   430a        orrs r2, r1
    4840:   e003        b.n 0x484a
    4842:   1868        adds r0, r5, r1
    4844:   7083        strb r3, [r0, #2]
    4846:   e7d1        b.n 0x47ec
    4848:   438a        bics r2, r1
    484a:   7082        strb r2, [r0, #2]
    484c:   4809        ldr r0, [pc, #36]   ; (0x4874)
    484e:   7004        strb r4, [r0, #0]
    4850:   2001        movs r0, #1
    4852:   e8bd 81f0   ldmia.w sp!, {r4, r5, r6, r7, r8, pc}
    4856:   0000        movs r0, r0
    4858:   003d        movs r5, r7
    485a:   2000        movs r0, #0
    485c:   0035        movs r5, r6
    485e:   2000        movs r0, #0
    4860:   0049        lsls r1, r1, #1
    4862:   2000        movs r0, #0
    4864:   0036        movs r6, r6
    4866:   2000        movs r0, #0
    4868:   0034        movs r4, r6
    486a:   2000        movs r0, #0
    486c:   0050        lsls r0, r2, #1
    486e:   2000        movs r0, #0
    4870:   06d4        lsls r4, r2, #27
    4872:   2000        movs r0, #0
    4874:   0037        movs r7, r6
    4876:   2000        movs r0, #0
    4878:   e92d 43f8   stmdb sp!, {r3, r4, r5, r6, r7, r8, r9, lr}
    487c:   4c61        ldr r4, [pc, #388]   ; (0x4a04)
    487e:   4a62        ldr r2, [pc, #392]   ; (0x4a08)
    4880:   08c5        lsrs r5, r0, #3
    4882:   70a0        strb r0, [r4, #2]
    4884:   5c13        ldrb r3, [r2, r0]
    4886:   7023        strb r3, [r4, #0]
    4888:   78e2        ldrb r2, [r4, #3]
    488a:   f000 0607   and.w r6, r0, #7
    488e:   f022 0201   bic.w r2, r2, #1
    4892:   f361 0241   bfi r2, r1, #1, #1
    4896:   70e2        strb r2, [r4, #3]
    4898:   4622        mov r2, r4
    489a:   f04f 0801   mov.w r8, #1
    489e:   7852        ldrb r2, [r2, #1]
    48a0:   2be8        cmp r3, #232   ; 0xe8
    48a2:   d010        beq.n 0x48c6
    48a4:   fa08 f706   lsl.w r7, r8, r6
    48a8:   261c        movs r6, #28
    48aa:   b2ff        uxtb r7, r7
    48ac:   ebb6 0fd3   cmp.w r6, r3, lsr #3
    48b0:   d118        bne.n 0x48e4
    48b2:   f013 0603   ands.w r6, r3, #3
    48b6:   d009        beq.n 0x48cc
    48b8:   2e01        cmp r6, #1
    48ba:   d00a        beq.n 0x48d2
    48bc:   2e02        cmp r6, #2
    48be:   d00b        beq.n 0x48d8
    48c0:   2e03        cmp r6, #3
    48c2:   d114        bne.n 0x48ee
    48c4:   e00b        b.n 0x48de
    48c6:   f361 1286   bfi r2, r1, #6, #1
    48ca:   e035        b.n 0x4938
    48cc:   f361 0282   bfi r2, r1, #2, #1
    48d0:   e00c        b.n 0x48ec
    48d2:   f361 1204   bfi r2, r1, #4, #1
    48d6:   e009        b.n 0x48ec
    48d8:   f361 02c3   bfi r2, r1, #3, #1
    48dc:   e006        b.n 0x48ec
    48de:   f361 1245   bfi r2, r1, #5, #1
    48e2:   e003        b.n 0x48ec
    48e4:   2b39        cmp r3, #57   ; 0x39
    48e6:   d102        bne.n 0x48ee
    48e8:   f361 12c7   bfi r2, r1, #7, #1
    48ec:   7062        strb r2, [r4, #1]
    48ee:   4e47        ldr r6, [pc, #284]   ; (0x4a0c)
    48f0:   b1c1        cbz r1, 0x4924
    48f2:   7862        ldrb r2, [r4, #1]
    48f4:   ea5f 6c42   movs.w ip, r2, lsl #25
    48f8:   d51e        bpl.n 0x4938
    48fa:   f816 c005   ldrb.w ip, [r6, r5]
    48fe:   ea4c 0c07   orr.w ip, ip, r7
    4902:   f806 c005   strb.w ip, [r6, r5]
    4906:   e013        b.n 0x4930
    4908:   4e41        ldr r6, [pc, #260]   ; (0x4a10)
    490a:   7062        strb r2, [r4, #1]
    490c:   f1a3 07c0   sub.w r7, r3, #192   ; 0xc0
    4910:   2500        movs r5, #0
    4912:   78b2        ldrb r2, [r6, #2]
    4914:   2f03        cmp r7, #3
    4916:   d812        bhi.n 0x493e
    4918:   b102        cbz r2, 0x491c
    491a:   70b5        strb r5, [r6, #2]
    491c:   b2f8        uxtb r0, r7
    491e:   f7fe ffcf   bl 0x38c0
    4922:   e037        b.n 0x4994
    4924:   5d72        ldrb r2, [r6, r5]
    4926:   423a        tst r2, r7
    4928:   d005        beq.n 0x4936
    492a:   43ba        bics r2, r7
    492c:   5572        strb r2, [r6, r5]
    492e:   7862        ldrb r2, [r4, #1]
    4930:   f042 0201   orr.w r2, r2, #1
    4934:   e7e8        b.n 0x4908
    4936:   7862        ldrb r2, [r4, #1]
    4938:   f022 0201   bic.w r2, r2, #1
    493c:   e7e4        b.n 0x4908
    493e:   b172        cbz r2, 0x495e
    4940:   b169        cbz r1, 0x495e
    4942:   70b5        strb r5, [r6, #2]
    4944:   4669        mov r1, sp
    4946:   f001 f93f   bl 0x5bc8
    494a:   79b0        ldrb r0, [r6, #6]
    494c:   2800        cmp r0, #0
    494e:   4668        mov r0, sp
    4950:   d002        beq.n 0x4958
    4952:   f7ff f843   bl 0x39dc
    4956:   e01d        b.n 0x4994
    4958:   f000 fc26   bl 0x51a8
    495c:   e01a        b.n 0x4994
    495e:   b1cb        cbz r3, 0x4994
    4960:   6820        ldr r0, [r4, #0]
    4962:   f000 fdcd   bl 0x5500
    4966:   f000 faf9   bl 0x4f5c
    496a:   b140        cbz r0, 0x497e
    496c:   7820        ldrb r0, [r4, #0]
    496e:   b188        cbz r0, 0x4994
    4970:   f000 fbe2   bl 0x5138
    4974:   6820        ldr r0, [r4, #0]
    4976:   e8bd 43f8   ldmia.w sp!, {r3, r4, r5, r6, r7, r8, r9, lr}
    497a:   f7ff bf01   b.w 0x4780
    497e:   79b0        ldrb r0, [r6, #6]
    4980:   b110        cbz r0, 0x4988
    4982:   f7fe ffc7   bl 0x3914
    4986:   e005        b.n 0x4994
    4988:   7820        ldrb r0, [r4, #0]
    498a:   28e8        cmp r0, #232   ; 0xe8
    498c:   d002        beq.n 0x4994
    498e:   f000 ffad   bl 0x58ec
    4992:   b110        cbz r0, 0x499a
    4994:   2001        movs r0, #1
    4996:   e8bd 83f8   ldmia.w sp!, {r3, r4, r5, r6, r7, r8, r9, pc}
    499a:   7861        ldrb r1, [r4, #1]
    499c:   07c8        lsls r0, r1, #31
    499e:   78e0        ldrb r0, [r4, #3]
    49a0:   ea4f 70c0   mov.w r0, r0, lsl #31
    49a4:   d022        beq.n 0x49ec
    49a6:   2800        cmp r0, #0
    49a8:   d1e2        bne.n 0x4970
    49aa:   4a18        ldr r2, [pc, #96]   ; (0x4a0c)
    49ac:   78a0        ldrb r0, [r4, #2]
    49ae:   320a        adds r2, #10
    49b0:   5c12        ldrb r2, [r2, r0]
    49b2:   b192        cbz r2, 0x49da
    49b4:   4d15        ldr r5, [pc, #84]   ; (0x4a0c)
    49b6:   0943        lsrs r3, r0, #5
    49b8:   355c        adds r5, #92   ; 0x5c
    49ba:   f855 3023   ldr.w r3, [r5, r3, lsl #2]
    49be:   f000 051f   and.w r5, r0, #31
    49c2:   fa08 f005   lsl.w r0, r8, r5
    49c6:   4203        tst r3, r0
    49c8:   d002        beq.n 0x49d0
    49ca:   f041 0001   orr.w r0, r1, #1
    49ce:   e001        b.n 0x49d4
    49d0:   f021 0001   bic.w r0, r1, #1
    49d4:   7060        strb r0, [r4, #1]
    49d6:   7022        strb r2, [r4, #0]
    49d8:   e7ca        b.n 0x4970
    49da:   f000 ff6d   bl 0x58b8
    49de:   b958        cbnz r0, 0x49f8
    49e0:   7860        ldrb r0, [r4, #1]
    49e2:   f020 0001   bic.w r0, r0, #1
    49e6:   7060        strb r0, [r4, #1]
    49e8:   7025        strb r5, [r4, #0]
    49ea:   e7c1        b.n 0x4970
    49ec:   2800        cmp r0, #0
    49ee:   d1bf        bne.n 0x4970
    49f0:   f000 ff62   bl 0x58b8
    49f4:   2800        cmp r0, #0
    49f6:   d0bb        beq.n 0x4970
    49f8:   78e0        ldrb r0, [r4, #3]
    49fa:   f040 0001   orr.w r0, r0, #1
    49fe:   70e0        strb r0, [r4, #3]
    4a00:   e7b6        b.n 0x4970
    4a02:   0000        movs r0, r0
    4a04:   0030        movs r0, r6
    4a06:   2000        movs r0, #0
    4a08:   02c0        lsls r0, r0, #11
    4a0a:   2000        movs r0, #0
    4a0c:   0654        lsls r4, r2, #25
    4a0e:   2000        movs r0, #0
    4a10:   0648        lsls r0, r1, #25
    4a12:   2000        movs r0, #0
    4a14:   880a        ldrh r2, [r1, #0]
    4a16:   f360 0208   bfi r2, r0, #0, #9
    4a1a:   800a        strh r2, [r1, #0]
    4a1c:   4770        bx lr
    4a1e:   f3c0 0008   ubfx r0, r0, #0, #9
    4a22:   4770        bx lr
    4a24:   b5f0        push {r4, r5, r6, r7, lr}
    4a26:   2500        movs r5, #0
    4a28:   e00f        b.n 0x4a4a
    4a2a:   2400        movs r4, #0
    4a2c:   e005        b.n 0x4a3a
    4a2e:   5d46        ldrb r6, [r0, r5]
    4a30:   5d0f        ldrb r7, [r1, r4]
    4a32:   42be        cmp r6, r7
    4a34:   d003        beq.n 0x4a3e
    4a36:   1c64        adds r4, r4, #1
    4a38:   b2e4        uxtb r4, r4
    4a3a:   429c        cmp r4, r3
    4a3c:   d3f7        bcc.n 0x4a2e
    4a3e:   429c        cmp r4, r3
    4a40:   d101        bne.n 0x4a46
    4a42:   2000        movs r0, #0
    4a44:   bdf0        pop {r4, r5, r6, r7, pc}
    4a46:   1c6d        adds r5, r5, #1
    4a48:   b2ed        uxtb r5, r5
    4a4a:   4295        cmp r5, r2
    4a4c:   d3ed        bcc.n 0x4a2a
    4a4e:   2001        movs r0, #1
    4a50:   bdf0        pop {r4, r5, r6, r7, pc}
    4a52:   0000        movs r0, r0
    4a54:   b5f0        push {r4, r5, r6, r7, lr}
    4a56:   230a        movs r3, #10
    4a58:   2500        movs r5, #0
    4a5a:   e01e        b.n 0x4a9a
    4a5c:   4a12        ldr r2, [pc, #72]   ; (0x4aa8)
    4a5e:   2b09        cmp r3, #9
    4a60:   5cd4        ldrb r4, [r2, r3]
    4a62:   d101        bne.n 0x4a68
    4a64:   f044 040f   orr.w r4, r4, #15
    4a68:   2cff        cmp r4, #255   ; 0xff
    4a6a:   d016        beq.n 0x4a9a
    4a6c:   4e0f        ldr r6, [pc, #60]   ; (0x4aac)
    4a6e:   2208        movs r2, #8
    4a70:   f04f 0c01   mov.w ip, #1
    4a74:   eb06 07c3   add.w r7, r6, r3, lsl #3
    4a78:   e00c        b.n 0x4a94
    4a7a:   fa0c f602   lsl.w r6, ip, r2
    4a7e:   b2f6        uxtb r6, r6
    4a80:   4234        tst r4, r6
    4a82:   d107        bne.n 0x4a94
    4a84:   b171        cbz r1, 0x4aa4
    4a86:   1e49        subs r1, r1, #1
    4a88:   5cbe        ldrb r6, [r7, r2]
    4a8a:   1c6d        adds r5, r5, #1
    4a8c:   f800 6b01   strb.w r6, [r0], #1
    4a90:   b2c9        uxtb r1, r1
    4a92:   b2ed        uxtb r5, r5
    4a94:   1e52        subs r2, r2, #1
    4a96:   b2d2        uxtb r2, r2
    4a98:   d2ef        bcs.n 0x4a7a
    4a9a:   1e5b        subs r3, r3, #1
    4a9c:   b2db        uxtb r3, r3
    4a9e:   d2dd        bcs.n 0x4a5c
    4aa0:   4628        mov r0, r5
    4aa2:   bdf0        pop {r4, r5, r6, r7, pc}
    4aa4:   20ff        movs r0, #255   ; 0xff
    4aa6:   bdf0        pop {r4, r5, r6, r7, pc}
    4aa8:   01ac        lsls r4, r5, #6
    4aaa:   2000        movs r0, #0
    4aac:   02c0        lsls r0, r0, #11
    4aae:   2000        movs r0, #0
    4ab0:   b5fe        push {r1, r2, r3, r4, r5, r6, r7, lr}
    4ab2:   f001 faf3   bl 0x609c
    4ab6:   2800        cmp r0, #0
    4ab8:   d023        beq.n 0x4b02
    4aba:   4815        ldr r0, [pc, #84]   ; (0x4b10)
    4abc:   466d        mov r5, sp
    4abe:   4e15        ldr r6, [pc, #84]   ; (0x4b14)
    4ac0:   6801        ldr r1, [r0, #0]
    4ac2:   9100        str r1, [sp, #0]
    4ac4:   6841        ldr r1, [r0, #4]
    4ac6:   9101        str r1, [sp, #4]
    4ac8:   8900        ldrh r0, [r0, #8]
    4aca:   f8ad 0008   strh.w r0, [sp, #8]
    4ace:   2005        movs r0, #5
    4ad0:   4f11        ldr r7, [pc, #68]   ; (0x4b18)
    4ad2:   2301        movs r3, #1
    4ad4:   e00c        b.n 0x4af0
    4ad6:   5c31        ldrb r1, [r6, r0]
    4ad8:   5c79        ldrb r1, [r7, r1]
    4ada:   29ff        cmp r1, #255   ; 0xff
    4adc:   d008        beq.n 0x4af0
    4ade:   eb05 02d1   add.w r2, r5, r1, lsr #3
    4ae2:   f001 0107   and.w r1, r1, #7
    4ae6:   7814        ldrb r4, [r2, #0]
    4ae8:   fa03 f101   lsl.w r1, r3, r1
    4aec:   430c        orrs r4, r1
    4aee:   7014        strb r4, [r2, #0]
    4af0:   1e40        subs r0, r0, #1
    4af2:   b2c0        uxtb r0, r0
    4af4:   d2ef        bcs.n 0x4ad6
    4af6:   200a        movs r0, #10
    4af8:   e004        b.n 0x4b04
    4afa:   5c29        ldrb r1, [r5, r0]
    4afc:   29ff        cmp r1, #255   ; 0xff
    4afe:   d001        beq.n 0x4b04
    4b00:   2000        movs r0, #0
    4b02:   bdfe        pop {r1, r2, r3, r4, r5, r6, r7, pc}
    4b04:   1e40        subs r0, r0, #1
    4b06:   b2c0        uxtb r0, r0
    4b08:   d2f7        bcs.n 0x4afa
    4b0a:   2001        movs r0, #1
    4b0c:   bdfe        pop {r1, r2, r3, r4, r5, r6, r7, pc}
    4b0e:   0000        movs r0, r0
    4b10:   01ac        lsls r4, r5, #6
    4b12:   2000        movs r0, #0
    4b14:   7f64        ldrb r4, [r4, #29]
    4b16:   0000        movs r0, r0
    4b18:   01c0        lsls r0, r0, #7
    4b1a:   2000        movs r0, #0
    4b1c:   4803        ldr r0, [pc, #12]   ; (0x4b2c)
    4b1e:   4904        ldr r1, [pc, #16]   ; (0x4b30)
    4b20:   7840        ldrb r0, [r0, #1]
    4b22:   f000 0003   and.w r0, r0, #3
    4b26:   5c08        ldrb r0, [r1, r0]
    4b28:   f001 bad0   b.w 0x60cc
    4b2c:   0000        movs r0, r0
    4b2e:   2000        movs r0, #0
    4b30:   7a44        ldrb r4, [r0, #9]
    4b32:   0000        movs r0, r0
    4b34:   e92d 47fc   stmdb sp!, {r2, r3, r4, r5, r6, r7, r8, r9, sl, lr}
    4b38:   4d23        ldr r5, [pc, #140]   ; (0x4bc8)
    4b3a:   8829        ldrh r1, [r5, #0]
    4b3c:   f64f 7aff   movw sl, #65535   ; 0xffff
    4b40:   4551        cmp r1, sl
    4b42:   d03f        beq.n 0x4bc4
    4b44:   2102        movs r1, #2
    4b46:   a801        add r0, sp, #4
    4b48:   f7ff ff84   bl 0x4a54
    4b4c:   2600        movs r6, #0
    4b4e:   4c1f        ldr r4, [pc, #124]   ; (0x4bcc)
    4b50:   f242 7710   movw r7, #10000   ; 0x2710
    4b54:   2802        cmp r0, #2
    4b56:   d12f        bne.n 0x4bb8
    4b58:   f8df 9074   ldr.w r9, [pc, #116]   ; 0x4bd0
    4b5c:   2302        movs r3, #2
    4b5e:   461a        mov r2, r3
    4b60:   f899 1044   ldrb.w r1, [r9, #68]   ; 0x44
    4b64:   f88d 1000   strb.w r1, [sp]
    4b68:   f899 000c   ldrb.w r0, [r9, #12]
    4b6c:   f88d 0001   strb.w r0, [sp, #1]
    4b70:   4669        mov r1, sp
    4b72:   a801        add r0, sp, #4
    4b74:   f7ff ff56   bl 0x4a24
    4b78:   f04f 0801   mov.w r8, #1
    4b7c:   b140        cbz r0, 0x4b90
    4b7e:   8828        ldrh r0, [r5, #0]
    4b80:   42b8        cmp r0, r7
    4b82:   d902        bls.n 0x4b8a
    4b84:   f884 8003   strb.w r8, [r4, #3]
    4b88:   e016        b.n 0x4bb8
    4b8a:   f884 8009   strb.w r8, [r4, #9]
    4b8e:   e014        b.n 0x4bba
    4b90:   f899 1022   ldrb.w r1, [r9, #34]   ; 0x22
    4b94:   f88d 1000   strb.w r1, [sp]
    4b98:   f899 0043   ldrb.w r0, [r9, #67]   ; 0x43
    4b9c:   f88d 0001   strb.w r0, [sp, #1]
    4ba0:   2302        movs r3, #2
    4ba2:   461a        mov r2, r3
    4ba4:   4669        mov r1, sp
    4ba6:   a801        add r0, sp, #4
    4ba8:   f7ff ff3c   bl 0x4a24
    4bac:   b120        cbz r0, 0x4bb8
    4bae:   8828        ldrh r0, [r5, #0]
    4bb0:   42b8        cmp r0, r7
    4bb2:   d9ea        bls.n 0x4b8a
    4bb4:   2002        movs r0, #2
    4bb6:   70e0        strb r0, [r4, #3]
    4bb8:   7266        strb r6, [r4, #9]
    4bba:   8828        ldrh r0, [r5, #0]
    4bbc:   42b8        cmp r0, r7
    4bbe:   d901        bls.n 0x4bc4
    4bc0:   f8a5 a000   strh.w sl, [r5]
    4bc4:   e8bd 87fc   ldmia.w sp!, {r2, r3, r4, r5, r6, r7, r8, r9, sl, pc}
    4bc8:   001c        movs r4, r3
    4bca:   2000        movs r0, #0
    4bcc:   0648        lsls r0, r1, #25
    4bce:   2000        movs r0, #0
    4bd0:   02c0        lsls r0, r0, #11
    4bd2:   2000        movs r0, #0
    4bd4:   e92d 47f0   stmdb sp!, {r4, r5, r6, r7, r8, r9, sl, lr}
    4bd8:   4890        ldr r0, [pc, #576]   ; (0x4e1c)
    4bda:   f8df c244   ldr.w ip, [pc, #580]   ; 0x4e20
    4bde:   2500        movs r5, #0
    4be0:   7ac2        ldrb r2, [r0, #11]
    4be2:   f89c 1004   ldrb.w r1, [ip, #4]
    4be6:   b1da        cbz r2, 0x4c20
    4be8:   f89c 0006   ldrb.w r0, [ip, #6]
    4bec:   1c40        adds r0, r0, #1
    4bee:   b2c0        uxtb r0, r0
    4bf0:   f88c 0006   strb.w r0, [ip, #6]
    4bf4:   2803        cmp r0, #3
    4bf6:   d959        bls.n 0x4cac
    4bf8:   4660        mov r0, ip
    4bfa:   f88c 5006   strb.w r5, [ip, #6]
    4bfe:   7900        ldrb r0, [r0, #4]
    4c00:   1c40        adds r0, r0, #1
    4c02:   2a06        cmp r2, #6
    4c04:   d002        beq.n 0x4c0c
    4c06:   2a07        cmp r2, #7
    4c08:   d150        bne.n 0x4cac
    4c0a:   e003        b.n 0x4c14
    4c0c:   f88c 1005   strb.w r1, [ip, #5]
    4c10:   213d        movs r1, #61   ; 0x3d
    4c12:   e000        b.n 0x4c16
    4c14:   2118        movs r1, #24
    4c16:   fbb0 f2f1   udiv r2, r0, r1
    4c1a:   fb01 0012   mls r0, r1, r2, r0
    4c1e:   e047        b.n 0x4cb0
    4c20:   4880        ldr r0, [pc, #512]   ; (0x4e24)
    4c22:   4b7f        ldr r3, [pc, #508]   ; (0x4e20)
    4c24:   4a80        ldr r2, [pc, #512]   ; (0x4e28)
    4c26:   78c0        ldrb r0, [r0, #3]
    4c28:   f103 06db   add.w r6, r3, #219   ; 0xdb
    4c2c:   681b        ldr r3, [r3, #0]
    4c2e:   f102 040e   add.w r4, r2, #14
    4c32:   f04f 0901   mov.w r9, #1
    4c36:   2803        cmp r0, #3
    4c38:   d85d        bhi.n 0x4cf6
    4c3a:   5c12        ldrb r2, [r2, r0]
    4c3c:   2801        cmp r0, #1
    4c3e:   eb02 0242   add.w r2, r2, r2, lsl #1
    4c42:   eb04 0242   add.w r2, r4, r2, lsl #1
    4c46:   791c        ldrb r4, [r3, #4]
    4c48:   f004 040f   and.w r4, r4, #15
    4c4c:   5d14        ldrb r4, [r2, r4]
    4c4e:   d004        beq.n 0x4c5a
    4c50:   2802        cmp r0, #2
    4c52:   d02c        beq.n 0x4cae
    4c54:   2803        cmp r0, #3
    4c56:   d1d7        bne.n 0x4c08
    4c58:   e02d        b.n 0x4cb6
    4c5a:   2103        movs r1, #3
    4c5c:   f10c 0007   add.w r0, ip, #7
    4c60:   1cdb        adds r3, r3, #3
    4c62:   e020        b.n 0x4ca6
    4c64:   fa09 f201   lsl.w r2, r9, r1
    4c68:   f89c 6007   ldrb.w r6, [ip, #7]
    4c6c:   b2d2        uxtb r2, r2
    4c6e:   1e5b        subs r3, r3, #1
    4c70:   4216        tst r6, r2
    4c72:   f810 6d01   ldrb.w r6, [r0, #-1]!
    4c76:   d008        beq.n 0x4c8a
    4c78:   42a6        cmp r6, r4
    4c7a:   d804        bhi.n 0x4c86
    4c7c:   7005        strb r5, [r0, #0]
    4c7e:   f89c 6007   ldrb.w r6, [ip, #7]
    4c82:   4396        bics r6, r2
    4c84:   e00a        b.n 0x4c9c
    4c86:   1b32        subs r2, r6, r4
    4c88:   e00c        b.n 0x4ca4
    4c8a:   781f        ldrb r7, [r3, #0]
    4c8c:   eba7 0804   sub.w r8, r7, r4
    4c90:   4546        cmp r6, r8
    4c92:   db06        blt.n 0x4ca2
    4c94:   7007        strb r7, [r0, #0]
    4c96:   f89c 6007   ldrb.w r6, [ip, #7]
    4c9a:   4316        orrs r6, r2
    4c9c:   f88c 6007   strb.w r6, [ip, #7]
    4ca0:   e001        b.n 0x4ca6
    4ca2:   1932        adds r2, r6, r4
    4ca4:   7002        strb r2, [r0, #0]
    4ca6:   1e49        subs r1, r1, #1
    4ca8:   b2c9        uxtb r1, r1
    4caa:   d2db        bcs.n 0x4c64
    4cac:   e0b2        b.n 0x4e14
    4cae:   1908        adds r0, r1, r4
    4cb0:   f88c 0004   strb.w r0, [ip, #4]
    4cb4:   e0ae        b.n 0x4e14
    4cb6:   2748        movs r7, #72   ; 0x48
    4cb8:   e019        b.n 0x4cee
    4cba:   f7fe fc6b   bl 0x3594
    4cbe:   fb90 f1f4   sdiv r1, r0, r4
    4cc2:   fb04 0011   mls r0, r4, r1, r0
    4cc6:   b108        cbz r0, 0x4ccc
    4cc8:   2003        movs r0, #3
    4cca:   e00d        b.n 0x4ce8
    4ccc:   1eb0        subs r0, r6, #2
    4cce:   2100        movs r1, #0
    4cd0:   f002 f8ea   bl 0x6ea8
    4cd4:   1ef6        subs r6, r6, #3
    4cd6:   e00a        b.n 0x4cee
    4cd8:   7831        ldrb r1, [r6, #0]
    4cda:   2902        cmp r1, #2
    4cdc:   d801        bhi.n 0x4ce2
    4cde:   7035        strb r5, [r6, #0]
    4ce0:   e001        b.n 0x4ce6
    4ce2:   1e89        subs r1, r1, #2
    4ce4:   7031        strb r1, [r6, #0]
    4ce6:   1e76        subs r6, r6, #1
    4ce8:   1e40        subs r0, r0, #1
    4cea:   b2c0        uxtb r0, r0
    4cec:   d2f4        bcs.n 0x4cd8
    4cee:   1e7f        subs r7, r7, #1
    4cf0:   b2ff        uxtb r7, r7
    4cf2:   d2e2        bcs.n 0x4cba
    4cf4:   e08e        b.n 0x4e14
    4cf6:   2807        cmp r0, #7
    4cf8:   d93b        bls.n 0x4d72
    4cfa:   5c11        ldrb r1, [r2, r0]
    4cfc:   791a        ldrb r2, [r3, #4]
    4cfe:   eb01 0141   add.w r1, r1, r1, lsl #1
    4d02:   eb04 0141   add.w r1, r4, r1, lsl #1
    4d06:   f002 020f   and.w r2, r2, #15
    4d0a:   f020 0001   bic.w r0, r0, #1
    4d0e:   5c8a        ldrb r2, [r1, r2]
    4d10:   2808        cmp r0, #8
    4d12:   d004        beq.n 0x4d1e
    4d14:   280a        cmp r0, #10
    4d16:   d02d        beq.n 0x4d74
    4d18:   280c        cmp r0, #12
    4d1a:   d17b        bne.n 0x4e14
    4d1c:   e059        b.n 0x4dd2
    4d1e:   2048        movs r0, #72   ; 0x48
    4d20:   e024        b.n 0x4d6c
    4d22:   f816 1901   ldrb.w r1, [r6], #-1
    4d26:   b109        cbz r1, 0x4d2c
    4d28:   1eb6        subs r6, r6, #2
    4d2a:   e007        b.n 0x4d3c
    4d2c:   f816 1901   ldrb.w r1, [r6], #-1
    4d30:   b109        cbz r1, 0x4d36
    4d32:   1e76        subs r6, r6, #1
    4d34:   e002        b.n 0x4d3c
    4d36:   f816 1901   ldrb.w r1, [r6], #-1
    4d3a:   b1b9        cbz r1, 0x4d6c
    4d3c:   493b        ldr r1, [pc, #236]   ; (0x4e2c)
    4d3e:   f000 0407   and.w r4, r0, #7
    4d42:   eb01 01d0   add.w r1, r1, r0, lsr #3
    4d46:   780b        ldrb r3, [r1, #0]
    4d48:   fa09 f104   lsl.w r1, r9, r4
    4d4c:   420b        tst r3, r1
    4d4e:   d00d        beq.n 0x4d6c
    4d50:   2103        movs r1, #3
    4d52:   e007        b.n 0x4d64
    4d54:   f816 3f01   ldrb.w r3, [r6, #1]!
    4d58:   4293        cmp r3, r2
    4d5a:   d801        bhi.n 0x4d60
    4d5c:   7035        strb r5, [r6, #0]
    4d5e:   e001        b.n 0x4d64
    4d60:   1a9b        subs r3, r3, r2
    4d62:   7033        strb r3, [r6, #0]
    4d64:   1e49        subs r1, r1, #1
    4d66:   b2c9        uxtb r1, r1
    4d68:   d2f4        bcs.n 0x4d54
    4d6a:   1ef6        subs r6, r6, #3
    4d6c:   1e40        subs r0, r0, #1
    4d6e:   b2c0        uxtb r0, r0
    4d70:   d2d7        bcs.n 0x4d22
    4d72:   e04f        b.n 0x4e14
    4d74:   f89c 0058   ldrb.w r0, [ip, #88]   ; 0x58
    4d78:   1c40        adds r0, r0, #1
    4d7a:   b2c0        uxtb r0, r0
    4d7c:   f88c 0058   strb.w r0, [ip, #88]   ; 0x58
    4d80:   4290        cmp r0, r2
    4d82:   d347        bcc.n 0x4e14
    4d84:   f88c 5058   strb.w r5, [ip, #88]   ; 0x58
    4d88:   2001        movs r0, #1
    4d8a:   eb00 0140   add.w r1, r0, r0, lsl #1
    4d8e:   eb0c 0141   add.w r1, ip, r1, lsl #1
    4d92:   1c40        adds r0, r0, #1
    4d94:   888a        ldrh r2, [r1, #4]
    4d96:   f821 2c02   strh.w r2, [r1, #-2]
    4d9a:   798a        ldrb r2, [r1, #6]
    4d9c:   b2c0        uxtb r0, r0
    4d9e:   700a        strb r2, [r1, #0]
    4da0:   280e        cmp r0, #14
    4da2:   d3f2        bcc.n 0x4d8a
    4da4:   f8ac 5052   strh.w r5, [ip, #82]   ; 0x52
    4da8:   f88c 5054   strb.w r5, [ip, #84]   ; 0x54
    4dac:   200e        movs r0, #14
    4dae:   e008        b.n 0x4dc2
    4db0:   eb00 0140   add.w r1, r0, r0, lsl #1
    4db4:   eb0c 0141   add.w r1, ip, r1, lsl #1
    4db8:   f831 2f01   ldrh.w r2, [r1, #1]!
    4dbc:   80ca        strh r2, [r1, #6]
    4dbe:   788a        ldrb r2, [r1, #2]
    4dc0:   720a        strb r2, [r1, #8]
    4dc2:   1e40        subs r0, r0, #1
    4dc4:   b2c0        uxtb r0, r0
    4dc6:   d2f3        bcs.n 0x4db0
    4dc8:   f8ac 5007   strh.w r5, [ip, #7]
    4dcc:   f88c 5009   strb.w r5, [ip, #9]
    4dd0:   e020        b.n 0x4e14
    4dd2:   f89c 0027   ldrb.w r0, [ip, #39]   ; 0x27
    4dd6:   1c40        adds r0, r0, #1
    4dd8:   b2c0        uxtb r0, r0
    4dda:   f88c 0027   strb.w r0, [ip, #39]   ; 0x27
    4dde:   4290        cmp r0, r2
    4de0:   d318        bcc.n 0x4e14
    4de2:   480f        ldr r0, [pc, #60]   ; (0x4e20)
    4de4:   f88c 5027   strb.w r5, [ip, #39]   ; 0x27
    4de8:   3027        adds r0, #39   ; 0x27
    4dea:   2205        movs r2, #5
    4dec:   e00f        b.n 0x4e0e
    4dee:   f910 1c01   ldrsb.w r1, [r0, #-1]
    4df2:   1f40        subs r0, r0, #5
    4df4:   b159        cbz r1, 0x4e0e
    4df6:   1c49        adds r1, r1, #1
    4df8:   b249        sxtb r1, r1
    4dfa:   7101        strb r1, [r0, #4]
    4dfc:   78c3        ldrb r3, [r0, #3]
    4dfe:   18cc        adds r4, r1, r3
    4e00:   3c0a        subs r4, #10
    4e02:   2c0e        cmp r4, #14
    4e04:   dd03        ble.n 0x4e0e
    4e06:   1a59        subs r1, r3, r1
    4e08:   310a        adds r1, #10
    4e0a:   d500        bpl.n 0x4e0e
    4e0c:   7105        strb r5, [r0, #4]
    4e0e:   1e52        subs r2, r2, #1
    4e10:   b2d2        uxtb r2, r2
    4e12:   d2ec        bcs.n 0x4dee
    4e14:   e8bd 47f0   ldmia.w sp!, {r4, r5, r6, r7, r8, r9, sl, lr}
    4e18:   f000 bbc6   b.w 0x55a8
    4e1c:   0648        lsls r0, r1, #25
    4e1e:   2000        movs r0, #0
    4e20:   008c        lsls r4, r1, #2
    4e22:   2000        movs r0, #0
    4e24:   0730        lsls r0, r6, #28
    4e26:   2000        movs r0, #0
    4e28:   7aab        ldrb r3, [r5, #10]
    4e2a:   0000        movs r0, r0
    4e2c:   01ac        lsls r4, r5, #6
    4e2e:   2000        movs r0, #0
    4e30:   2105        movs r1, #5
    4e32:   4801        ldr r0, [pc, #4]   ; (0x4e38)
    4e34:   f7ff bc78   b.w 0x4728
    4e38:   7a4d        ldrb r5, [r1, #9]
    4e3a:   0000        movs r0, r0
    4e3c:   b538        push {r3, r4, r5, lr}
    4e3e:   2103        movs r1, #3
    4e40:   4668        mov r0, sp
    4e42:   f7ff fe07   bl 0x4a54
    4e46:   4c0b        ldr r4, [pc, #44]   ; (0x4e74)
    4e48:   2803        cmp r0, #3
    4e4a:   d10e        bne.n 0x4e6a
    4e4c:   2303        movs r3, #3
    4e4e:   461a        mov r2, r3
    4e50:   4909        ldr r1, [pc, #36]   ; (0x4e78)
    4e52:   4668        mov r0, sp
    4e54:   f7ff fde6   bl 0x4a24
    4e58:   b138        cbz r0, 0x4e6a
    4e5a:   78a0        ldrb r0, [r4, #2]
    4e5c:   ea6f 0150   mvn.w r1, r0, lsr #1
    4e60:   f361 0041   bfi r0, r1, #1, #1
    4e64:   70a0        strb r0, [r4, #2]
    4e66:   f7fe fec1   bl 0x3bec
    4e6a:   78a0        ldrb r0, [r4, #2]
    4e6c:   f3c0 0040   ubfx r0, r0, #1, #1
    4e70:   bd38        pop {r3, r4, r5, pc}
    4e72:   0000        movs r0, r0
    4e74:   0730        lsls r0, r6, #28
    4e76:   2000        movs r0, #0
    4e78:   7a41        ldrb r1, [r0, #9]
    4e7a:   0000        movs r0, r0
    4e7c:   b510        push {r4, lr}
    4e7e:   0e01        lsrs r1, r0, #24
    4e80:   0789        lsls r1, r1, #30
    4e82:   d518        bpl.n 0x4eb6
    4e84:   b2c0        uxtb r0, r0
    4e86:   2812        cmp r0, #18
    4e88:   d016        beq.n 0x4eb8
    4e8a:   dc04        bgt.n 0x4e96
    4e8c:   2810        cmp r0, #16
    4e8e:   d013        beq.n 0x4eb8
    4e90:   2811        cmp r0, #17
    4e92:   d110        bne.n 0x4eb6
    4e94:   e010        b.n 0x4eb8
    4e96:   2813        cmp r0, #19
    4e98:   d00e        beq.n 0x4eb8
    4e9a:   285f        cmp r0, #95   ; 0x5f
    4e9c:   d10b        bne.n 0x4eb6
    4e9e:   4808        ldr r0, [pc, #32]   ; (0x4ec0)
    4ea0:   7880        ldrb r0, [r0, #2]
    4ea2:   2800        cmp r0, #0
    4ea4:   d007        beq.n 0x4eb6
    4ea6:   f000 fb79   bl 0x559c
    4eaa:   f000 fdff   bl 0x5aac
    4eae:   4905        ldr r1, [pc, #20]   ; (0x4ec4)
    4eb0:   f247 5030   movw r0, #30000   ; 0x7530
    4eb4:   8048        strh r0, [r1, #2]
    4eb6:   bd10        pop {r4, pc}
    4eb8:   4903        ldr r1, [pc, #12]   ; (0x4ec8)
    4eba:   3810        subs r0, #16
    4ebc:   7008        strb r0, [r1, #0]
    4ebe:   bd10        pop {r4, pc}
    4ec0:   005c        lsls r4, r3, #1
    4ec2:   2000        movs r0, #0
    4ec4:   0000        movs r0, r0
    4ec6:   2000        movs r0, #0
    4ec8:   0029        movs r1, r5
    4eca:   2000        movs r0, #0
    4ecc:   481f        ldr r0, [pc, #124]   ; (0x4f4c)
    4ece:   b510        push {r4, lr}
    4ed0:   78c1        ldrb r1, [r0, #3]
    4ed2:   0789        lsls r1, r1, #30
    4ed4:   d527        bpl.n 0x4f26
    4ed6:   4a1e        ldr r2, [pc, #120]   ; (0x4f50)
    4ed8:   7804        ldrb r4, [r0, #0]
    4eda:   2301        movs r3, #1
    4edc:   79d1        ldrb r1, [r2, #7]
    4ede:   2ccf        cmp r4, #207   ; 0xcf
    4ee0:   d007        beq.n 0x4ef2
    4ee2:   7840        ldrb r0, [r0, #1]
    4ee4:   07c0        lsls r0, r0, #31
    4ee6:   d01e        beq.n 0x4f26
    4ee8:   4818        ldr r0, [pc, #96]   ; (0x4f4c)
    4eea:   2902        cmp r1, #2
    4eec:   7880        ldrb r0, [r0, #2]
    4eee:   d00a        beq.n 0x4f06
    4ef0:   e00f        b.n 0x4f12
    4ef2:   2904        cmp r1, #4
    4ef4:   d005        beq.n 0x4f02
    4ef6:   2905        cmp r1, #5
    4ef8:   d115        bne.n 0x4f26
    4efa:   7213        strb r3, [r2, #8]
    4efc:   2006        movs r0, #6
    4efe:   71d0        strb r0, [r2, #7]
    4f00:   e022        b.n 0x4f48
    4f02:   71d3        strb r3, [r2, #7]
    4f04:   e020        b.n 0x4f48
    4f06:   280d        cmp r0, #13
    4f08:   d00d        beq.n 0x4f26
    4f0a:   2815        cmp r0, #21
    4f0c:   d00b        beq.n 0x4f26
    4f0e:   281d        cmp r0, #29
    4f10:   d009        beq.n 0x4f26
    4f12:   490f        ldr r1, [pc, #60]   ; (0x4f50)
    4f14:   280d        cmp r0, #13
    4f16:   6809        ldr r1, [r1, #0]
    4f18:   d007        beq.n 0x4f2a
    4f1a:   2815        cmp r0, #21
    4f1c:   d007        beq.n 0x4f2e
    4f1e:   281d        cmp r0, #29
    4f20:   d008        beq.n 0x4f34
    4f22:   2847        cmp r0, #71   ; 0x47
    4f24:   d009        beq.n 0x4f3a
    4f26:   2000        movs r0, #0
    4f28:   bd10        pop {r4, pc}
    4f2a:   310f        adds r1, #15
    4f2c:   e000        b.n 0x4f30
    4f2e:   3164        adds r1, #100   ; 0x64
    4f30:   6011        str r1, [r2, #0]
    4f32:   e009        b.n 0x4f48
    4f34:   f501 71fa   add.w r1, r1, #500   ; 0x1f4
    4f38:   e7fa        b.n 0x4f30
    4f3a:   2008        movs r0, #8
    4f3c:   4905        ldr r1, [pc, #20]   ; (0x4f54)
    4f3e:   71d0        strb r0, [r2, #7]
    4f40:   2000        movs r0, #0
    4f42:   8048        strh r0, [r1, #2]
    4f44:   4804        ldr r0, [pc, #16]   ; (0x4f58)
    4f46:   7003        strb r3, [r0, #0]
    4f48:   2001        movs r0, #1
    4f4a:   bd10        pop {r4, pc}
    4f4c:   0030        movs r0, r6
    4f4e:   2000        movs r0, #0
    4f50:   19d0        adds r0, r2, r7
    4f52:   2000        movs r0, #0
    4f54:   0000        movs r0, r0
    4f56:   2000        movs r0, #0
    4f58:   0648        lsls r0, r1, #25
    4f5a:   2000        movs r0, #0
    4f5c:   e92d 4ff8   stmdb sp!, {r3, r4, r5, r6, r7, r8, r9, sl, fp, lr}
    4f60:   486e        ldr r0, [pc, #440]   ; (0x511c)
    4f62:   8841        ldrh r1, [r0, #2]
    4f64:   b111        cbz r1, 0x4f6c
    4f66:   f247 5130   movw r1, #30000   ; 0x7530
    4f6a:   8041        strh r1, [r0, #2]
    4f6c:   4e6d        ldr r6, [pc, #436]   ; (0x5124)
    4f6e:   4d6c        ldr r5, [pc, #432]   ; (0x5120)
    4f70:   f04f 0900   mov.w r9, #0
    4f74:   7832        ldrb r2, [r6, #0]
    4f76:   7aab        ldrb r3, [r5, #10]
    4f78:   78f1        ldrb r1, [r6, #3]
    4f7a:   78b0        ldrb r0, [r6, #2]
    4f7c:   f04f 0b03   mov.w fp, #3
    4f80:   2401        movs r4, #1
    4f82:   b34b        cbz r3, 0x4fd8
    4f84:   0789        lsls r1, r1, #30
    4f86:   d524        bpl.n 0x4fd2
    4f88:   2b01        cmp r3, #1
    4f8a:   d007        beq.n 0x4f9c
    4f8c:   4966        ldr r1, [pc, #408]   ; (0x5128)
    4f8e:   5c59        ldrb r1, [r3, r1]
    4f90:   4288        cmp r0, r1
    4f92:   d01a        beq.n 0x4fca
    4f94:   4f64        ldr r7, [pc, #400]   ; (0x5128)
    4f96:   2105        movs r1, #5
    4f98:   370e        adds r7, #14
    4f9a:   e011        b.n 0x4fc0
    4f9c:   4963        ldr r1, [pc, #396]   ; (0x512c)
    4f9e:   f891 20e8   ldrb.w r2, [r1, #232]   ; 0xe8
    4fa2:   4290        cmp r0, r2
    4fa4:   d101        bne.n 0x4faa
    4fa6:   2202        movs r2, #2
    4fa8:   72aa        strb r2, [r5, #10]
    4faa:   f891 10e9   ldrb.w r1, [r1, #233]   ; 0xe9
    4fae:   4288        cmp r0, r1
    4fb0:   d10f        bne.n 0x4fd2
    4fb2:   f885 b00a   strb.w fp, [r5, #10]
    4fb6:   e00c        b.n 0x4fd2
    4fb8:   f817 c001   ldrb.w ip, [r7, r1]
    4fbc:   4594        cmp ip, r2
    4fbe:   d002        beq.n 0x4fc6
    4fc0:   1e49        subs r1, r1, #1
    4fc2:   b2c9        uxtb r1, r1
    4fc4:   d2f8        bcs.n 0x4fb8
    4fc6:   29ff        cmp r1, #255   ; 0xff
    4fc8:   d103        bne.n 0x4fd2
    4fca:   4958        ldr r1, [pc, #352]   ; (0x512c)
    4fcc:   31e6        adds r1, #230   ; 0xe6
    4fce:   5458        strb r0, [r3, r1]
    4fd0:   72ac        strb r4, [r5, #10]
    4fd2:   f886 9000   strb.w r9, [r6]
    4fd6:   e017        b.n 0x5008
    4fd8:   f8df a154   ldr.w sl, [pc, #340]   ; 0x5130
    4fdc:   2acf        cmp r2, #207   ; 0xcf
    4fde:   f89a c006   ldrb.w ip, [sl, #6]
    4fe2:   d00b        beq.n 0x4ffc
    4fe4:   4f4f        ldr r7, [pc, #316]   ; (0x5124)
    4fe6:   7873        ldrb r3, [r6, #1]
    4fe8:   78ff        ldrb r7, [r7, #3]
    4fea:   ea5f 78c3   movs.w r8, r3, lsl #31
    4fee:   f047 0701   orr.w r7, r7, #1
    4ff2:   d027        beq.n 0x5044
    4ff4:   f1bc 0f01   cmp.w ip, #1
    4ff8:   d00b        beq.n 0x5012
    4ffa:   e008        b.n 0x500e
    4ffc:   f3c1 0040   ubfx r0, r1, #1, #1
    5000:   71e8        strb r0, [r5, #7]
    5002:   f1bc 0f01   cmp.w ip, #1
    5006:   d002        beq.n 0x500e
    5008:   2001        movs r0, #1
    500a:   e8bd 8ff8   ldmia.w sp!, {r3, r4, r5, r6, r7, r8, r9, sl, fp, pc}
    500e:   2000        movs r0, #0
    5010:   e7fb        b.n 0x500a
    5012:   f89a 1007   ldrb.w r1, [sl, #7]
    5016:   2902        cmp r1, #2
    5018:   d0f9        beq.n 0x500e
    501a:   4a43        ldr r2, [pc, #268]   ; (0x5128)
    501c:   2100        movs r1, #0
    501e:   3222        adds r2, #34   ; 0x22
    5020:   f812 4011   ldrb.w r4, [r2, r1, lsl #1]
    5024:   42a0        cmp r0, r4
    5026:   d108        bne.n 0x503a
    5028:   eb02 0041   add.w r0, r2, r1, lsl #1
    502c:   7840        ldrb r0, [r0, #1]
    502e:   7030        strb r0, [r6, #0]
    5030:   70f7        strb r7, [r6, #3]
    5032:   f023 0001   bic.w r0, r3, #1
    5036:   7070        strb r0, [r6, #1]
    5038:   e7e9        b.n 0x500e
    503a:   1c49        adds r1, r1, #1
    503c:   b2c9        uxtb r1, r1
    503e:   2922        cmp r1, #34   ; 0x22
    5040:   d3ee        bcc.n 0x5020
    5042:   e7e4        b.n 0x500e
    5044:   f895 c007   ldrb.w ip, [r5, #7]
    5048:   f1bc 0f00   cmp.w ip, #0
    504c:   d036        beq.n 0x50bc
    504e:   79aa        ldrb r2, [r5, #6]
    5050:   2a00        cmp r2, #0
    5052:   d1dc        bne.n 0x500e
    5054:   0789        lsls r1, r1, #30
    5056:   d52e        bpl.n 0x50b6
    5058:   4936        ldr r1, [pc, #216]   ; (0x5134)
    505a:   2825        cmp r0, #37   ; 0x25
    505c:   5c09        ldrb r1, [r1, r0]
    505e:   7031        strb r1, [r6, #0]
    5060:   d00a        beq.n 0x5078
    5062:   dc04        bgt.n 0x506e
    5064:   2805        cmp r0, #5
    5066:   d014        beq.n 0x5092
    5068:   2824        cmp r0, #36   ; 0x24
    506a:   d121        bne.n 0x50b0
    506c:   e004        b.n 0x5078
    506e:   2826        cmp r0, #38   ; 0x26
    5070:   d008        beq.n 0x5084
    5072:   282a        cmp r0, #42   ; 0x2a
    5074:   d11c        bne.n 0x50b0
    5076:   e005        b.n 0x5084
    5078:   3824        subs r0, #36   ; 0x24
    507a:   4084        lsls r4, r0
    507c:   b2e0        uxtb r0, r4
    507e:   f7fe fcff   bl 0x3a80
    5082:   e018        b.n 0x50b6
    5084:   3826        subs r0, #38   ; 0x26
    5086:   fa04 f000   lsl.w r0, r4, r0
    508a:   b2c0        uxtb r0, r0
    508c:   f7fe fcec   bl 0x3a68
    5090:   e00c        b.n 0x50ac
    5092:   0718        lsls r0, r3, #28
    5094:   d50c        bpl.n 0x50b0
    5096:   7ae8        ldrb r0, [r5, #11]
    5098:   b138        cbz r0, 0x50aa
    509a:   2107        movs r1, #7
    509c:   fbb0 f2f1   udiv r2, r0, r1
    50a0:   fb01 0012   mls r0, r1, r2, r0
    50a4:   1c40        adds r0, r0, #1
    50a6:   72e8        strb r0, [r5, #11]
    50a8:   e000        b.n 0x50ac
    50aa:   72ec        strb r4, [r5, #11]
    50ac:   702c        strb r4, [r5, #0]
    50ae:   e002        b.n 0x50b6
    50b0:   6830        ldr r0, [r6, #0]
    50b2:   f000 f995   bl 0x53e0
    50b6:   f886 9000   strb.w r9, [r6]
    50ba:   e7a8        b.n 0x500e
    50bc:   0788        lsls r0, r1, #30
    50be:   4917        ldr r1, [pc, #92]   ; (0x511c)
    50c0:   d522        bpl.n 0x5108
    50c2:   2a29        cmp r2, #41   ; 0x29
    50c4:   d01a        beq.n 0x50fc
    50c6:   2a2c        cmp r2, #44   ; 0x2c
    50c8:   d003        beq.n 0x50d2
    50ca:   2ae3        cmp r2, #227   ; 0xe3
    50cc:   d001        beq.n 0x50d2
    50ce:   2ae6        cmp r2, #230   ; 0xe6
    50d0:   d19d        bne.n 0x500e
    50d2:   2103        movs r1, #3
    50d4:   4668        mov r0, sp
    50d6:   f7ff fcbd   bl 0x4a54
    50da:   2803        cmp r0, #3
    50dc:   d197        bne.n 0x500e
    50de:   4912        ldr r1, [pc, #72]   ; (0x5128)
    50e0:   2303        movs r3, #3
    50e2:   461a        mov r2, r3
    50e4:   1d09        adds r1, r1, #4
    50e6:   4668        mov r0, sp
    50e8:   f7ff fc9c   bl 0x4a24
    50ec:   2800        cmp r0, #0
    50ee:   d08e        beq.n 0x500e
    50f0:   7a28        ldrb r0, [r5, #8]
    50f2:   43c0        mvns r0, r0
    50f4:   7228        strb r0, [r5, #8]
    50f6:   f885 b004   strb.w fp, [r5, #4]
    50fa:   e7dc        b.n 0x50b6
    50fc:   06d8        lsls r0, r3, #27
    50fe:   d586        bpl.n 0x500e
    5100:   2035        movs r0, #53   ; 0x35
    5102:   7030        strb r0, [r6, #0]
    5104:   7008        strb r0, [r1, #0]
    5106:   e007        b.n 0x5118
    5108:   7808        ldrb r0, [r1, #0]
    510a:   2800        cmp r0, #0
    510c:   d094        beq.n 0x5038
    510e:   2a29        cmp r2, #41   ; 0x29
    5110:   d192        bne.n 0x5038
    5112:   7030        strb r0, [r6, #0]
    5114:   f881 9000   strb.w r9, [r1]
    5118:   70f7        strb r7, [r6, #3]
    511a:   e778        b.n 0x500e
    511c:   0000        movs r0, r0
    511e:   2000        movs r0, #0
    5120:   0648        lsls r0, r1, #25
    5122:   2000        movs r0, #0
    5124:   0030        movs r0, r6
    5126:   2000        movs r0, #0
    5128:   7a3a        ldrb r2, [r7, #8]
    512a:   0000        movs r0, r0
    512c:   0730        lsls r0, r6, #28
    512e:   2000        movs r0, #0
    5130:   19d0        adds r0, r2, r7
    5132:   2000        movs r0, #0
    5134:   02c0        lsls r0, r0, #11
    5136:   2000        movs r0, #0
    5138:   b570        push {r4, r5, r6, lr}
    513a:   4c18        ldr r4, [pc, #96]   ; (0x519c)
    513c:   78e0        ldrb r0, [r4, #3]
    513e:   07c1        lsls r1, r0, #31
    5140:   d115        bne.n 0x516e
    5142:   4621        mov r1, r4
    5144:   4b16        ldr r3, [pc, #88]   ; (0x51a0)
    5146:   7889        ldrb r1, [r1, #2]
    5148:   4a16        ldr r2, [pc, #88]   ; (0x51a4)
    514a:   0780        lsls r0, r0, #30
    514c:   d515        bpl.n 0x517a
    514e:   7865        ldrb r5, [r4, #1]
    5150:   0668        lsls r0, r5, #25
    5152:   d50c        bpl.n 0x516e
    5154:   2000        movs r0, #0
    5156:   f813 6010   ldrb.w r6, [r3, r0, lsl #1]
    515a:   42b1        cmp r1, r6
    515c:   d108        bne.n 0x5170
    515e:   eb03 0140   add.w r1, r3, r0, lsl #1
    5162:   7849        ldrb r1, [r1, #1]
    5164:   7021        strb r1, [r4, #0]
    5166:   5411        strb r1, [r2, r0]
    5168:   f025 0001   bic.w r0, r5, #1
    516c:   7060        strb r0, [r4, #1]
    516e:   bd70        pop {r4, r5, r6, pc}
    5170:   1c40        adds r0, r0, #1
    5172:   b2c0        uxtb r0, r0
    5174:   2822        cmp r0, #34   ; 0x22
    5176:   d3ee        bcc.n 0x5156
    5178:   bd70        pop {r4, r5, r6, pc}
    517a:   2000        movs r0, #0
    517c:   f813 5010   ldrb.w r5, [r3, r0, lsl #1]
    5180:   42a9        cmp r1, r5
    5182:   d105        bne.n 0x5190
    5184:   5c15        ldrb r5, [r2, r0]
    5186:   b11d        cbz r5, 0x5190
    5188:   7025        strb r5, [r4, #0]
    518a:   2100        movs r1, #0
    518c:   5411        strb r1, [r2, r0]
    518e:   bd70        pop {r4, r5, r6, pc}
    5190:   1c40        adds r0, r0, #1
    5192:   b2c0        uxtb r0, r0
    5194:   2822        cmp r0, #34   ; 0x22
    5196:   d3f1        bcc.n 0x517c
    5198:   bd70        pop {r4, r5, r6, pc}
    519a:   0000        movs r0, r0
    519c:   0030        movs r0, r6
    519e:   2000        movs r0, #0
    51a0:   7a5c        ldrb r4, [r3, #9]
    51a2:   0000        movs r0, r0
    51a4:   0068        lsls r0, r5, #1
    51a6:   2000        movs r0, #0
    51a8:   4906        ldr r1, [pc, #24]   ; (0x51c4)
    51aa:   b510        push {r4, lr}
    51ac:   6809        ldr r1, [r1, #0]
    51ae:   8802        ldrh r2, [r0, #0]
    51b0:   800a        strh r2, [r1, #0]
    51b2:   7880        ldrb r0, [r0, #2]
    51b4:   7088        strb r0, [r1, #2]
    51b6:   f000 f9f7   bl 0x55a8
    51ba:   e8bd 4010   ldmia.w sp!, {r4, lr}
    51be:   f7fe bd15   b.w 0x3bec
    51c2:   0000        movs r0, r0
    51c4:   008c        lsls r4, r1, #2
    51c6:   2000        movs r0, #0
    51c8:   4a08        ldr r2, [pc, #32]   ; (0x51ec)
    51ca:   8850        ldrh r0, [r2, #2]
    51cc:   2801        cmp r0, #1
    51ce:   d10a        bne.n 0x51e6
    51d0:   4807        ldr r0, [pc, #28]   ; (0x51f0)
    51d2:   79c1        ldrb r1, [r0, #7]
    51d4:   b109        cbz r1, 0x51da
    51d6:   2108        movs r1, #8
    51d8:   71c1        strb r1, [r0, #7]
    51da:   4906        ldr r1, [pc, #24]   ; (0x51f4)
    51dc:   2000        movs r0, #0
    51de:   2301        movs r3, #1
    51e0:   7188        strb r0, [r1, #6]
    51e2:   700b        strb r3, [r1, #0]
    51e4:   8050        strh r0, [r2, #2]
    51e6:   2001        movs r0, #1
    51e8:   4770        bx lr
    51ea:   0000        movs r0, r0
    51ec:   0000        movs r0, r0
    51ee:   2000        movs r0, #0
    51f0:   19d0        adds r0, r2, r7
    51f2:   2000        movs r0, #0
    51f4:   0648        lsls r0, r1, #25
    51f6:   2000        movs r0, #0
    51f8:   28ff        cmp r0, #255   ; 0xff
    51fa:   d206        bcs.n 0x520a
    51fc:   302b        adds r0, #43   ; 0x2b
    51fe:   28ff        cmp r0, #255   ; 0xff
    5200:   d901        bls.n 0x5206
    5202:   20ff        movs r0, #255   ; 0xff
    5204:   4770        bx lr
    5206:   b2c0        uxtb r0, r0
    5208:   4770        bx lr
    520a:   2000        movs r0, #0
    520c:   4770        bx lr
    520e:   0000        movs r0, r0
    5210:   b573        push {r0, r1, r4, r5, r6, lr}
    5212:   f5b0 7f00   cmp.w r0, #512   ; 0x200
    5216:   d22b        bcs.n 0x5270
    5218:   f8bd 4004   ldrh.w r4, [sp, #4]
    521c:   f5b4 6f80   cmp.w r4, #1024   ; 0x400
    5220:   d226        bcs.n 0x5270
    5222:   0a01        lsrs r1, r0, #8
    5224:   4a1b        ldr r2, [pc, #108]   ; (0x5294)
    5226:   b2c0        uxtb r0, r0
    5228:   eb01 0181   add.w r1, r1, r1, lsl #2
    522c:   5c10        ldrb r0, [r2, r0]
    522e:   0089        lsls r1, r1, #2
    5230:   28ff        cmp r0, #255   ; 0xff
    5232:   d01d        beq.n 0x5270
    5234:   eb01 0290   add.w r2, r1, r0, lsr #2
    5238:   eb00 0381   add.w r3, r0, r1, lsl #2
    523c:   0780        lsls r0, r0, #30
    523e:   0f41        lsrs r1, r0, #29
    5240:   2603        movs r6, #3
    5242:   4d15        ldr r5, [pc, #84]   ; (0x5298)
    5244:   32a0        adds r2, #160   ; 0xa0
    5246:   2c03        cmp r4, #3
    5248:   d014        beq.n 0x5274
    524a:   f89d 0004   ldrb.w r0, [sp, #4]
    524e:   442b        add r3, r5
    5250:   28ff        cmp r0, #255   ; 0xff
    5252:   f883 00ea   strb.w r0, [r3, #234]   ; 0xea
    5256:   d009        beq.n 0x526c
    5258:   18a8        adds r0, r5, r2
    525a:   408e        lsls r6, r1
    525c:   f810 2fea   ldrb.w r2, [r0, #234]!
    5260:   f89d 3005   ldrb.w r3, [sp, #5]
    5264:   43b2        bics r2, r6
    5266:   408b        lsls r3, r1
    5268:   431a        orrs r2, r3
    526a:   7002        strb r2, [r0, #0]
    526c:   2000        movs r0, #0
    526e:   bd7c        pop {r2, r3, r4, r5, r6, pc}
    5270:   2003        movs r0, #3
    5272:   bd7c        pop {r2, r3, r4, r5, r6, pc}
    5274:   18e8        adds r0, r5, r3
    5276:   f890 00ea   ldrb.w r0, [r0, #234]   ; 0xea
    527a:   28ff        cmp r0, #255   ; 0xff
    527c:   d0f9        beq.n 0x5272
    527e:   442a        add r2, r5
    5280:   408e        lsls r6, r1
    5282:   f892 20ea   ldrb.w r2, [r2, #234]   ; 0xea
    5286:   f1c1 0108   rsb r1, r1, #8
    528a:   4032        ands r2, r6
    528c:   408a        lsls r2, r1
    528e:   4410        add r0, r2
    5290:   b280        uxth r0, r0
    5292:   bd7c        pop {r2, r3, r4, r5, r6, pc}
    5294:   01c0        lsls r0, r0, #7
    5296:   2000        movs r0, #0
    5298:   0730        lsls r0, r6, #28
    529a:   2000        movs r0, #0
    529c:   b5f0        push {r4, r5, r6, r7, lr}
    529e:   481b        ldr r0, [pc, #108]   ; (0x530c)
    52a0:   7881        ldrb r1, [r0, #2]
    52a2:   481b        ldr r0, [pc, #108]   ; (0x5310)
    52a4:   7842        ldrb r2, [r0, #1]
    52a6:   b109        cbz r1, 0x52ac
    52a8:   0710        lsls r0, r2, #28
    52aa:   d429        bmi.n 0x5300
    52ac:   4819        ldr r0, [pc, #100]   ; (0x5314)
    52ae:   4d1a        ldr r5, [pc, #104]   ; (0x5318)
    52b0:   4b1a        ldr r3, [pc, #104]   ; (0x531c)
    52b2:   f890 00e8   ldrb.w r0, [r0, #232]   ; 0xe8
    52b6:   0751        lsls r1, r2, #29
    52b8:   f04f 04e8   mov.w r4, #232   ; 0xe8
    52bc:   d503        bpl.n 0x52c6
    52be:   f895 1039   ldrb.w r1, [r5, #57]   ; 0x39
    52c2:   545c        strb r4, [r3, r1]
    52c4:   541c        strb r4, [r3, r0]
    52c6:   4916        ldr r1, [pc, #88]   ; (0x5320)
    52c8:   26cf        movs r6, #207   ; 0xcf
    52ca:   7a0f        ldrb r7, [r1, #8]
    52cc:   4911        ldr r1, [pc, #68]   ; (0x5314)
    52ce:   f891 10e9   ldrb.w r1, [r1, #233]   ; 0xe9
    52d2:   b1b7        cbz r7, 0x5302
    52d4:   f895 20e7   ldrb.w r2, [r5, #231]   ; 0xe7
    52d8:   2750        movs r7, #80   ; 0x50
    52da:   4290        cmp r0, r2
    52dc:   549f        strb r7, [r3, r2]
    52de:   d000        beq.n 0x52e2
    52e0:   541c        strb r4, [r3, r0]
    52e2:   f895 0065   ldrb.w r0, [r5, #101]   ; 0x65
    52e6:   2251        movs r2, #81   ; 0x51
    52e8:   4281        cmp r1, r0
    52ea:   541a        strb r2, [r3, r0]
    52ec:   d000        beq.n 0x52f0
    52ee:   545e        strb r6, [r3, r1]
    52f0:   f895 10e5   ldrb.w r1, [r5, #229]   ; 0xe5
    52f4:   2052        movs r0, #82   ; 0x52
    52f6:   5458        strb r0, [r3, r1]
    52f8:   f895 10e4   ldrb.w r1, [r5, #228]   ; 0xe4
    52fc:   204f        movs r0, #79   ; 0x4f
    52fe:   5458        strb r0, [r3, r1]
    5300:   bdf0        pop {r4, r5, r6, r7, pc}
    5302:   0752        lsls r2, r2, #29
    5304:   d400        bmi.n 0x5308
    5306:   541c        strb r4, [r3, r0]
    5308:   545e        strb r6, [r3, r1]
    530a:   bdf0        pop {r4, r5, r6, r7, pc}
    530c:   005c        lsls r4, r3, #1
    530e:   2000        movs r0, #0
    5310:   0000        movs r0, r0
    5312:   2000        movs r0, #0
    5314:   0730        lsls r0, r6, #28
    5316:   2000        movs r0, #0
    5318:   01c0        lsls r0, r0, #7
    531a:   2000        movs r0, #0
    531c:   02c0        lsls r0, r0, #11
    531e:   2000        movs r0, #0
    5320:   0648        lsls r0, r1, #25
    5322:   2000        movs r0, #0
    5324:   4b20        ldr r3, [pc, #128]   ; (0x53a8)
    5326:   b510        push {r4, lr}
    5328:   78d8        ldrb r0, [r3, #3]
    532a:   4920        ldr r1, [pc, #128]   ; (0x53ac)
    532c:   5c08        ldrb r0, [r1, r0]
    532e:   eb00 0080   add.w r0, r0, r0, lsl #2
    5332:   18c1        adds r1, r0, r3
    5334:   481e        ldr r0, [pc, #120]   ; (0x53b0)
    5336:   1d09        adds r1, r1, #4
    5338:   6001        str r1, [r0, #0]
    533a:   780a        ldrb r2, [r1, #0]
    533c:   b93a        cbnz r2, 0x534e
    533e:   784a        ldrb r2, [r1, #1]
    5340:   b92a        cbnz r2, 0x534e
    5342:   22ff        movs r2, #255   ; 0xff
    5344:   700a        strb r2, [r1, #0]
    5346:   6801        ldr r1, [r0, #0]
    5348:   704a        strb r2, [r1, #1]
    534a:   6801        ldr r1, [r0, #0]
    534c:   708a        strb r2, [r1, #2]
    534e:   78d9        ldrb r1, [r3, #3]
    5350:   2903        cmp r1, #3
    5352:   d80e        bhi.n 0x5372
    5354:   2200        movs r2, #0
    5356:   2901        cmp r1, #1
    5358:   d004        beq.n 0x5364
    535a:   2902        cmp r1, #2
    535c:   d004        beq.n 0x5368
    535e:   2903        cmp r1, #3
    5360:   d11d        bne.n 0x539e
    5362:   e004        b.n 0x536e
    5364:   6042        str r2, [r0, #4]
    5366:   e01a        b.n 0x539e
    5368:   7102        strb r2, [r0, #4]
    536a:   7142        strb r2, [r0, #5]
    536c:   e017        b.n 0x539e
    536e:   21d8        movs r1, #216   ; 0xd8
    5370:   e00b        b.n 0x538a
    5372:   2907        cmp r1, #7
    5374:   d913        bls.n 0x539e
    5376:   f021 0101   bic.w r1, r1, #1
    537a:   2908        cmp r1, #8
    537c:   d0f7        beq.n 0x536e
    537e:   290a        cmp r1, #10
    5380:   d002        beq.n 0x5388
    5382:   290c        cmp r1, #12
    5384:   d10b        bne.n 0x539e
    5386:   e004        b.n 0x5392
    5388:   2155        movs r1, #85   ; 0x55
    538a:   1d00        adds r0, r0, #4
    538c:   f7fe f92d   bl 0x35ea
    5390:   e005        b.n 0x539e
    5392:   2124        movs r1, #36   ; 0x24
    5394:   1d00        adds r0, r0, #4
    5396:   f7fe f928   bl 0x35ea
    539a:   f001 fc83   bl 0x6ca4
    539e:   4905        ldr r1, [pc, #20]   ; (0x53b4)
    53a0:   2001        movs r0, #1
    53a2:   7008        strb r0, [r1, #0]
    53a4:   bd10        pop {r4, pc}
    53a6:   0000        movs r0, r0
    53a8:   0730        lsls r0, r6, #28
    53aa:   2000        movs r0, #0
    53ac:   7aab        ldrb r3, [r5, #10]
    53ae:   0000        movs r0, r0
    53b0:   008c        lsls r4, r1, #2
    53b2:   2000        movs r0, #0
    53b4:   0648        lsls r0, r1, #25
    53b6:   2000        movs r0, #0
    53b8:   4808        ldr r0, [pc, #32]   ; (0x53dc)
    53ba:   78c0        ldrb r0, [r0, #3]
    53bc:   2808        cmp r0, #8
    53be:   d00a        beq.n 0x53d6
    53c0:   dc03        bgt.n 0x53ca
    53c2:   b140        cbz r0, 0x53d6
    53c4:   2801        cmp r0, #1
    53c6:   d104        bne.n 0x53d2
    53c8:   e005        b.n 0x53d6
    53ca:   280a        cmp r0, #10
    53cc:   d003        beq.n 0x53d6
    53ce:   280c        cmp r0, #12
    53d0:   d001        beq.n 0x53d6
    53d2:   2000        movs r0, #0
    53d4:   4770        bx lr
    53d6:   2001        movs r0, #1
    53d8:   4770        bx lr
    53da:   0000        movs r0, r0
    53dc:   0730        lsls r0, r6, #28
    53de:   2000        movs r0, #0
    53e0:   b570        push {r4, r5, r6, lr}
    53e2:   4d43        ldr r5, [pc, #268]   ; (0x54f0)
    53e4:   4604        mov r4, r0
    53e6:   b2c1        uxtb r1, r0
    53e8:   78e8        ldrb r0, [r5, #3]
    53ea:   4b42        ldr r3, [pc, #264]   ; (0x54f4)
    53ec:   1c42        adds r2, r0, #1
    53ee:   b2d2        uxtb r2, r2
    53f0:   2921        cmp r1, #33   ; 0x21
    53f2:   d044        beq.n 0x547e
    53f4:   dc0c        bgt.n 0x5410
    53f6:   291e        cmp r1, #30
    53f8:   d022        beq.n 0x5440
    53fa:   dc04        bgt.n 0x5406
    53fc:   2906        cmp r1, #6
    53fe:   d00f        beq.n 0x5420
    5400:   2919        cmp r1, #25
    5402:   d12c        bne.n 0x545e
    5404:   e00c        b.n 0x5420
    5406:   291f        cmp r1, #31
    5408:   d01a        beq.n 0x5440
    540a:   2920        cmp r1, #32
    540c:   d127        bne.n 0x545e
    540e:   e017        b.n 0x5440
    5410:   2922        cmp r1, #34   ; 0x22
    5412:   d02f        beq.n 0x5474
    5414:   2929        cmp r1, #41   ; 0x29
    5416:   d013        beq.n 0x5440
    5418:   2936        cmp r1, #54   ; 0x36
    541a:   d001        beq.n 0x5420
    541c:   2937        cmp r1, #55   ; 0x37
    541e:   d11e        bne.n 0x545e
    5420:   4a35        ldr r2, [pc, #212]   ; (0x54f8)
    5422:   5c10        ldrb r0, [r2, r0]
    5424:   28ff        cmp r0, #255   ; 0xff
    5426:   d05d        beq.n 0x54e4
    5428:   4832        ldr r0, [pc, #200]   ; (0x54f4)
    542a:   2206        movs r2, #6
    542c:   2906        cmp r1, #6
    542e:   6800        ldr r0, [r0, #0]
    5430:   d03b        beq.n 0x54aa
    5432:   2919        cmp r1, #25
    5434:   d031        beq.n 0x549a
    5436:   2936        cmp r1, #54   ; 0x36
    5438:   d041        beq.n 0x54be
    543a:   2937        cmp r1, #55   ; 0x37
    543c:   d152        bne.n 0x54e4
    543e:   e04a        b.n 0x54d6
    5440:   f7ff ffba   bl 0x53b8
    5444:   2800        cmp r0, #0
    5446:   d00a        beq.n 0x545e
    5448:   291e        cmp r1, #30
    544a:   d009        beq.n 0x5460
    544c:   291f        cmp r1, #31
    544e:   d007        beq.n 0x5460
    5450:   2920        cmp r1, #32
    5452:   d005        beq.n 0x5460
    5454:   2929        cmp r1, #41   ; 0x29
    5456:   d102        bne.n 0x545e
    5458:   4928        ldr r1, [pc, #160]   ; (0x54fc)
    545a:   2001        movs r0, #1
    545c:   7088        strb r0, [r1, #2]
    545e:   bd70        pop {r4, r5, r6, pc}
    5460:   391e        subs r1, #30
    5462:   6818        ldr r0, [r3, #0]
    5464:   b2c9        uxtb r1, r1
    5466:   1844        adds r4, r0, r1
    5468:   2201        movs r2, #1
    546a:   7820        ldrb r0, [r4, #0]
    546c:   f7ff fec4   bl 0x51f8
    5470:   7020        strb r0, [r4, #0]
    5472:   e037        b.n 0x54e4
    5474:   70ea        strb r2, [r5, #3]
    5476:   2a03        cmp r2, #3
    5478:   d907        bls.n 0x548a
    547a:   2000        movs r0, #0
    547c:   e004        b.n 0x5488
    547e:   70ea        strb r2, [r5, #3]
    5480:   1fd2        subs r2, r2, #7
    5482:   2a07        cmp r2, #7
    5484:   d301        bcc.n 0x548a
    5486:   2007        movs r0, #7
    5488:   70e8        strb r0, [r5, #3]
    548a:   f7ff ff4b   bl 0x5324
    548e:   f000 f885   bl 0x559c
    5492:   4620        mov r0, r4
    5494:   f000 f834   bl 0x5500
    5498:   e024        b.n 0x54e4
    549a:   78c1        ldrb r1, [r0, #3]
    549c:   2908        cmp r1, #8
    549e:   d221        bcs.n 0x54e4
    54a0:   1c49        adds r1, r1, #1
    54a2:   e006        b.n 0x54b2
    54a4:   f001 fbfe   bl 0x6ca4
    54a8:   e01c        b.n 0x54e4
    54aa:   78c1        ldrb r1, [r0, #3]
    54ac:   2901        cmp r1, #1
    54ae:   d919        bls.n 0x54e4
    54b0:   1e49        subs r1, r1, #1
    54b2:   70c1        strb r1, [r0, #3]
    54b4:   78e8        ldrb r0, [r5, #3]
    54b6:   ebb2 0f50   cmp.w r2, r0, lsr #1
    54ba:   d0f3        beq.n 0x54a4
    54bc:   e012        b.n 0x54e4
    54be:   7901        ldrb r1, [r0, #4]
    54c0:   f001 020f   and.w r2, r1, #15
    54c4:   2a05        cmp r2, #5
    54c6:   d20d        bcs.n 0x54e4
    54c8:   f04f 5280   mov.w r2, #268435456   ; 0x10000000
    54cc:   eb02 1131   add.w r1, r2, r1, ror #4
    54d0:   ea4f 7131   mov.w r1, r1, ror #28
    54d4:   e005        b.n 0x54e2
    54d6:   7901        ldrb r1, [r0, #4]
    54d8:   070a        lsls r2, r1, #28
    54da:   d003        beq.n 0x54e4
    54dc:   1e4a        subs r2, r1, #1
    54de:   f362 0103   bfi r1, r2, #0, #4
    54e2:   7101        strb r1, [r0, #4]
    54e4:   f000 f860   bl 0x55a8
    54e8:   e8bd 4070   ldmia.w sp!, {r4, r5, r6, lr}
    54ec:   f7fe bb7e   b.w 0x3bec
    54f0:   0730        lsls r0, r6, #28
    54f2:   2000        movs r0, #0
    54f4:   008c        lsls r4, r1, #2
    54f6:   2000        movs r0, #0
    54f8:   7aab        ldrb r3, [r5, #10]
    54fa:   0000        movs r0, r0
    54fc:   0648        lsls r0, r1, #25
    54fe:   2000        movs r0, #0
    5500:   b570        push {r4, r5, r6, lr}
    5502:   0e01        lsrs r1, r0, #24
    5504:   0789        lsls r1, r1, #30
    5506:   d524        bpl.n 0x5552
    5508:   4921        ldr r1, [pc, #132]   ; (0x5590)
    550a:   78c9        ldrb r1, [r1, #3]
    550c:   2907        cmp r1, #7
    550e:   d920        bls.n 0x5552
    5510:   4d20        ldr r5, [pc, #128]   ; (0x5594)
    5512:   f001 0201   and.w r2, r1, #1
    5516:   f021 0301   bic.w r3, r1, #1
    551a:   6829        ldr r1, [r5, #0]
    551c:   f3c0 4007   ubfx r0, r0, #16, #8
    5520:   2b08        cmp r3, #8
    5522:   d017        beq.n 0x5554
    5524:   2b0a        cmp r3, #10
    5526:   d01f        beq.n 0x5568
    5528:   2b0c        cmp r3, #12
    552a:   d112        bne.n 0x5552
    552c:   4b1a        ldr r3, [pc, #104]   ; (0x5598)
    552e:   5c1c        ldrb r4, [r3, r0]
    5530:   2cff        cmp r4, #255   ; 0xff
    5532:   d00e        beq.n 0x5552
    5534:   f004 0007   and.w r0, r4, #7
    5538:   eb00 0080   add.w r0, r0, r0, lsl #2
    553c:   4405        add r5, r0
    553e:   350e        adds r5, #14
    5540:   b102        cbz r2, 0x5544
    5542:   2100        movs r1, #0
    5544:   4628        mov r0, r5
    5546:   f001 fcaf   bl 0x6ea8
    554a:   08e0        lsrs r0, r4, #3
    554c:   70e8        strb r0, [r5, #3]
    554e:   2001        movs r0, #1
    5550:   7128        strb r0, [r5, #4]
    5552:   bd70        pop {r4, r5, r6, pc}
    5554:   b102        cbz r2, 0x5558
    5556:   2100        movs r1, #0
    5558:   eb00 0040   add.w r0, r0, r0, lsl #1
    555c:   4428        add r0, r5
    555e:   e8bd 4070   ldmia.w sp!, {r4, r5, r6, lr}
    5562:   1d00        adds r0, r0, #4
    5564:   f001 bca0   b.w 0x6ea8
    5568:   4b0b        ldr r3, [pc, #44]   ; (0x5598)
    556a:   3b48        subs r3, #72   ; 0x48
    556c:   5c18        ldrb r0, [r3, r0]
    556e:   28ff        cmp r0, #255   ; 0xff
    5570:   d0ef        beq.n 0x5552
    5572:   b102        cbz r2, 0x5576
    5574:   2100        movs r1, #0
    5576:   eb00 0040   add.w r0, r0, r0, lsl #1
    557a:   eb05 0440   add.w r4, r5, r0, lsl #1
    557e:   1d20        adds r0, r4, #4
    5580:   f001 fc92   bl 0x6ea8
    5584:   88a0        ldrh r0, [r4, #4]
    5586:   f8a4 0007   strh.w r0, [r4, #7]
    558a:   79a0        ldrb r0, [r4, #6]
    558c:   7260        strb r0, [r4, #9]
    558e:   bd70        pop {r4, r5, r6, pc}
    5590:   0730        lsls r0, r6, #28
    5592:   2000        movs r0, #0
    5594:   008c        lsls r4, r1, #2
    5596:   2000        movs r0, #0
    5598:   7b73        ldrb r3, [r6, #13]
    559a:   0000        movs r0, r0
    559c:   21d8        movs r1, #216   ; 0xd8
    559e:   4801        ldr r0, [pc, #4]   ; (0x55a4)
    55a0:   f7fe b823   b.w 0x35ea
    55a4:   032e        lsls r6, r5, #12
    55a6:   2000        movs r0, #0
    55a8:   b510        push {r4, lr}
    55aa:   f7ff f84b   bl 0x4644
    55ae:   2806        cmp r0, #6
    55b0:   d212        bcs.n 0x55d8
    55b2:   e8df f000   tbb [pc, r0]
    55b6:   0603        lsls r3, r0, #24
    55b8:   0c09        lsrs r1, r1, #16
    55ba:   0f11        lsrs r1, r2, #28
    55bc:   f7fe fbda   bl 0x3d74
    55c0:   e00a        b.n 0x55d8
    55c2:   f7fe fb1f   bl 0x3c04
    55c6:   e007        b.n 0x55d8
    55c8:   f7fe fa6e   bl 0x3aa8
    55cc:   e004        b.n 0x55d8
    55ce:   f7fe fb9f   bl 0x3d10
    55d2:   e001        b.n 0x55d8
    55d4:   f7fe faa6   bl 0x3b24
    55d8:   e8bd 4010   ldmia.w sp!, {r4, lr}
    55dc:   f3af 8000   nop.w
    55e0:   b510        push {r4, lr}
    55e2:   4c07        ldr r4, [pc, #28]   ; (0x5600)
    55e4:   7ae0        ldrb r0, [r4, #11]
    55e6:   b938        cbnz r0, 0x55f8
    55e8:   4806        ldr r0, [pc, #24]   ; (0x5604)
    55ea:   7800        ldrb r0, [r0, #0]
    55ec:   0780        lsls r0, r0, #30
    55ee:   1200        asrs r0, r0, #8
    55f0:   0e01        lsrs r1, r0, #24
    55f2:   2029        movs r0, #41   ; 0x29
    55f4:   f7fe fd6c   bl 0x40d0
    55f8:   2001        movs r0, #1
    55fa:   7060        strb r0, [r4, #1]
    55fc:   bd10        pop {r4, pc}
    55fe:   0000        movs r0, r0

  0x5600:   0x20000648
  0x5604:   0x2000000c

function_130_10:
  0x5608:   b510        push {r4, lr}
    560a:   4c1a        ldr r4, [pc, #104]   ; (0x5674)
    560c:   b1c0        cbz r0, 0x5640

    560e:   2100        movs r1, #0
    5610:   4620        mov r0, r4
    5612:   f7fe f8b4   bl 0x377e

    5616:   2100        movs r1, #0
    5618:   4620        mov r0, r4
    561a:   f7fe f8a6   bl 0x376a

    561e:   4620        mov r0, r4
    5620:   f7fe f89c   bl 0x375c           ; call bftm_clear(BFTM0)

    ; Disable BFTM0 interrupt (41)
    5624:   2029        movs r0, #41
    5626:   f000 f899   bl 0x575c           ; call nvic_disable_intr(41)

    562a:   f000 fb01   bl 0x5c30           ; call pinmux_c0_gpio()

    562e:   f000 f8e1   bl 0x57f4           ; call jump_pinmux_b789_gpio()

    5632:   2001        movs r0, #1
    5634:   f000 fd70   bl 0x6118

    5638:   e8bd 4010   ldmia.w sp!, {r4, lr}
    563c:   f000 be5c   b.w 0x62f8

    5640:   f000 f8da   bl 0x57f8           ; call jump_pinmux_b789_spi()

    5644:   2000        movs r0, #0
    5646:   f000 fd67   bl 0x6118

    564a:   2100        movs r1, #0
    564c:   4620        mov r0, r4
    564e:   f7fe f8a2   bl 0x3796

    5652:   4620        mov r0, r4
    5654:   f7fe f882   bl 0x375c           ; call bftm_clear(BFTM0)

    5658:   2101        movs r1, #1
    565a:   4620        mov r0, r4
    565c:   f7fe f885   bl 0x376a

    5660:   2101        movs r1, #1
    5662:   4620        mov r0, r4
    5664:   f7fe f88b   bl 0x377e

    5668:   4903        ldr r1, [pc, #12]       ; (0x5678)
    566a:   f44f 7000   mov.w r0, #512          ; 0x200
    566e:   f8c1 0100   str.w r0, [r1, #256]    ; 0x100

    5672:   bd10        pop {r4, pc}

  0x5674:   0x40076000  ; BFTM0
  0x5678:   0xe000e004

    567c:   b510        push {r4, lr}
    567e:   2400        movs r4, #0
    5680:   2802        cmp r0, #2
    5682:   d003        beq.n 0x568c
    5684:   4909        ldr r1, [pc, #36]   ; (0x56ac)
    5686:   640c        str r4, [r1, #64]   ; 0x40
    5688:   644c        str r4, [r1, #68]   ; 0x44
    568a:   648c        str r4, [r1, #72]   ; 0x48
    568c:   b158        cbz r0, 0x56a6
    568e:   2002        movs r0, #2
    5690:   f7ff fa44   bl 0x4b1c
    5694:   4805        ldr r0, [pc, #20]   ; (0x56ac)
    5696:   3040        adds r0, #64   ; 0x40
    5698:   7104        strb r4, [r0, #4]
    569a:   f7ff fe43   bl 0x5324
    569e:   e8bd 4010   ldmia.w sp!, {r4, lr}
    56a2:   f000 ba0d   b.w 0x5ac0
    56a6:   2001        movs r0, #1
    56a8:   e7f2        b.n 0x5690
    56aa:   0000        movs r0, r0
    56ac:   0608        lsls r0, r1, #24
    56ae:   2000        movs r0, #0
    56b0:   b510        push {r4, lr}
    56b2:   2000        movs r0, #0
    56b4:   f44f 3280   mov.w r2, #65536   ; 0x10000
    56b8:   2301        movs r3, #1
    56ba:   4601        mov r1, r0
    56bc:   f7fe f8e4   bl 0x3888
    56c0:   e8bd 4010   ldmia.w sp!, {r4, lr}
    56c4:   f648 419f   movw r1, #35999   ; 0x8c9f
    56c8:   4801        ldr r0, [pc, #4]   ; (0x56d0)
    56ca:   f7fe b862   b.w 0x3792
    56ce:   0000        movs r0, r0
    56d0:   6000        str r0, [r0, #0]
    56d2:   4007        ands r7, r0

setup_intr_priority:
  0x56d4:   b510        push {r4, lr}

    56d6:   f44f 5150   mov.w r1, #13312   ; 0x3400
    56da:   2000        movs r0, #0
    56dc:   f000 f872   bl 0x57c4               ; call nvic_set_vtor(0, 0x3400)

    56e0:   491c        ldr r1, [pc, #112]   ; (0x5754)
    56e2:   6808        ldr r0, [r1, #0]
    56e4:   f64f 02ff   movw r2, #63743   ; 0xf8ff
    56e8:   4010        ands r0, r2
    56ea:   4a1b        ldr r2, [pc, #108]   ; (0x5758)
    56ec:   f440 7040   orr.w r0, r0, #768   ; 0x300
    56f0:   4310        orrs r0, r2
    56f2:   6008        str r0, [r1, #0]

    56f4:   2200        movs r2, #0
    56f6:   4611        mov r1, r2
    56f8:   2003        movs r0, #3
    56fa:   f000 f83a   bl 0x5772

    56fe:   4601        mov r1, r0
    5700:   202b        movs r0, #43   ; 0x2b
    5702:   f000 f84f   bl 0x57a4

    5706:   2200        movs r2, #0
    5708:   4611        mov r1, r2
    570a:   2003        movs r0, #3
    570c:   f000 f831   bl 0x5772

    5710:   4601        mov r1, r0
    5712:   202c        movs r0, #44   ; 0x2c
    5714:   f000 f846   bl 0x57a4

    5718:   2200        movs r2, #0
    571a:   2101        movs r1, #1
    571c:   2003        movs r0, #3
    571e:   f000 f828   bl 0x5772

    5722:   4601        mov r1, r0
    5724:   202a        movs r0, #42   ; 0x2a
    5726:   f000 f83d   bl 0x57a4

    572a:   2200        movs r2, #0
    572c:   2102        movs r1, #2
    572e:   2003        movs r0, #3
    5730:   f000 f81f   bl 0x5772

    5734:   4601        mov r1, r0
    5736:   2029        movs r0, #41   ; 0x29
    5738:   f000 f834   bl 0x57a4

    573c:   2200        movs r2, #0
    573e:   2102        movs r1, #2
    5740:   2003        movs r0, #3
    5742:   f000 f816   bl 0x5772

    5746:   4601        mov r1, r0
    5748:   e8bd 4010   ldmia.w sp!, {r4, lr}
    574c:   2035        movs r0, #53   ; 0x35
    574e:   f000 b829   b.w 0x57a4
    5752:   0000

  0x5754:   0xe000ed0c  ; NVIC AIRCR register
  0x5758:   0x05fa0000  ; VECTKEY (needed to write AIRCR)

nvic_disable_intr:
    ; r0 = interrupt number
  0x575c:   f000 021f   and.w r2, r0, #31
    5760:   2101        movs r1, #1
    5762:   4091        lsls r1, r2
    5764:   0940        lsrs r0, r0, #5
    5766:   0080        lsls r0, r0, #2
    5768:   f100 20e0   add.w r0, r0, #3758153728   ; 0xe000e000
    576c:   f8c0 1180   str.w r1, [r0, #384]   ; 0x180
    5770:   4770        bx lr

calc_nvic_priority:
    ; r0 = 3
    ; r1 = 2
    ; r2 = 0
    ; return r0 = 2
    ; I still have no idea what this really does
    ; Best I can see, calculates interrupt priorities for ppb_set_nvic_priority
  0x5772:   b530        push {r4, r5, lr}
    5774:   f000 0307   and.w r3, r0, #7
    5778:   f1c3 0407   rsb r4, r3, #7
    577c:   2c04        cmp r4, #4
    577e:   d900        bls.n 0x5782
    5780:   2404        movs r4, #4
    5782:   1d18        adds r0, r3, #4
    5784:   2807        cmp r0, #7
    5786:   d201        bcs.n 0x578c
    5788:   2300        movs r3, #0
    578a:   e000        b.n 0x578e
    578c:   1edb        subs r3, r3, #3
    578e:   2501        movs r5, #1
    5790:   fa05 f004   lsl.w r0, r5, r4
    5794:   1e40        subs r0, r0, #1
    5796:   4008        ands r0, r1
    5798:   4098        lsls r0, r3
    579a:   409d        lsls r5, r3
    579c:   1e6d        subs r5, r5, #1
    579e:   4015        ands r5, r2
    57a0:   4328        orrs r0, r5
    57a2:   bd30        pop {r4, r5, pc}

ppb_set_nvic_priority:
    ; r0 = 0x35
    ; r1 = 2
    ; Set some values in the PPB NVIC interrupt priority registers
  0x57a4:   0709        lsls r1, r1, #28
    57a6:   0e09        lsrs r1, r1, #24
    57a8:   2800        cmp r0, #0
    57aa:   da06        bge.n 0x57ba
    57ac:   f000 000f   and.w r0, r0, #15
    57b0:   f100 20e0   add.w r0, r0, #3758153728   ; 0xe000e000
    57b4:   f880 1d14   strb.w r1, [r0, #3348]   ; 0xd14
    57b8:   4770        bx lr
  0x57ba:   f100 20e0   add.w r0, r0, #3758153728   ; 0xe000e000
    57be:   f880 1400   strb.w r1, [r0, #1024]   ; 0x400
    57c2:   4770        bx lr

nvic_set_vtor:
    ; r0 = OR with VTOR offset
    ; r1 = VTOR offset
    ; Set vetor table offset register
  0x57c4:   4a02        ldr r2, [pc, #8]   ; (0x57d0)
    57c6:   4011        ands r1, r2
    57c8:   4301        orrs r1, r0
    57ca:   4802        ldr r0, [pc, #8]   ; (0x57d4)
    57cc:   6001        str r1, [r0, #0]
    57ce:   4770        bx lr

  0x57d0:   0x1fffff80  ; Address mask
  0x57d4:   0xe000ed08  ; NVIC VTOR register

  0x57d8:   b510        push {r4, lr}
    57da:   f7fe fcdd   bl 0x4198           ; call function_82
    57de:   f7fe fc99   bl 0x4114           ; call function_29
    57e2:   2801        cmp r0, #1
    57e4:   d104        bne.n 0x57f0
    57e6:   2002        movs r0, #2
    57e8:   f000 febd   bl 0x6566
    57ec:   2801        cmp r0, #1
    57ee:   d000        beq.n 0x57f2
    57f0:   2000        movs r0, #0
    57f2:   bd10        pop {r4, pc}

jump_pinmux_b789_gpio:
  0x57f4:   f7fe bcfa   b.w 0x41ec          ; return pinmux_b789_gpio

jump_pinmux_b789_spi:
  0x57f8:   f7fe bd1c   b.w 0x4234          ; return pinmux_b789_spi

  0x57fc:   b570        push {r4, r5, r6, lr}
    57fe:   4c29        ldr r4, [pc, #164]   ; (0x58a4)
    5800:   2500        movs r5, #0
    5802:   79a0        ldrb r0, [r4, #6]
    5804:   2801        cmp r0, #1
    5806:   d018        beq.n 0x583a
    5808:   2802        cmp r0, #2
    580a:   d14a        bne.n 0x58a2
    580c:   1f21        subs r1, r4, #4
    580e:   8808        ldrh r0, [r1, #0]
    5810:   b3d8        cbz r0, 0x588a
    5812:   4a25        ldr r2, [pc, #148]   ; (0x58a8)
    5814:   6812        ldr r2, [r2, #0]
    5816:   2a00        cmp r2, #0
    5818:   d143        bne.n 0x58a2
    581a:   28ff        cmp r0, #255   ; 0xff
    581c:   d808        bhi.n 0x5830
    581e:   4a23        ldr r2, [pc, #140]   ; (0x58ac)
    5820:   6812        ldr r2, [r2, #0]
    5822:   eb02 0080   add.w r0, r2, r0, lsl #2
    5826:   2207        movs r2, #7
    5828:   7840        ldrb r0, [r0, #1]
    582a:   ebb2 1f50   cmp.w r2, r0, lsr #5
    582e:   d130        bne.n 0x5892
    5830:   7a20        ldrb r0, [r4, #8]
    5832:   2801        cmp r0, #1
    5834:   d031        beq.n 0x589a
    5836:   800d        strh r5, [r1, #0]
    5838:   e02b        b.n 0x5892
    583a:   481d        ldr r0, [pc, #116]   ; (0x58b0)
    583c:   78c0        ldrb r0, [r0, #3]
    583e:   0780        lsls r0, r0, #30
    5840:   d40a        bmi.n 0x5858
    5842:   79e0        ldrb r0, [r4, #7]
    5844:   2801        cmp r0, #1
    5846:   d107        bne.n 0x5858
    5848:   f7ff f932   bl 0x4ab0
    584c:   2801        cmp r0, #1
    584e:   d103        bne.n 0x5858
    5850:   2002        movs r0, #2
    5852:   71e0        strb r0, [r4, #7]
    5854:   4817        ldr r0, [pc, #92]   ; (0x58b4)
    5856:   8005        strh r5, [r0, #0]
    5858:   79e0        ldrb r0, [r4, #7]
    585a:   2803        cmp r0, #3
    585c:   d00d        beq.n 0x587a
    585e:   2806        cmp r0, #6
    5860:   d003        beq.n 0x586a
    5862:   2807        cmp r0, #7
    5864:   d001        beq.n 0x586a
    5866:   2808        cmp r0, #8
    5868:   d11b        bne.n 0x58a2
    586a:   f7ff f921   bl 0x4ab0
    586e:   2801        cmp r0, #1
    5870:   d117        bne.n 0x58a2
    5872:   e8bd 4070   ldmia.w sp!, {r4, r5, r6, lr}
    5876:   f000 b8b3   b.w 0x59e0
    587a:   f7ff f919   bl 0x4ab0
    587e:   2801        cmp r0, #1
    5880:   d10f        bne.n 0x58a2
    5882:   e8bd 4070   ldmia.w sp!, {r4, r5, r6, lr}
    5886:   f001 bc49   b.w 0x711c
    588a:   7888        ldrb r0, [r1, #2]
    588c:   2100        movs r1, #0
    588e:   f7fe fa7f   bl 0x3d90
    5892:   e8bd 4070   ldmia.w sp!, {r4, r5, r6, lr}
    5896:   f001 bbab   b.w 0x6ff0
    589a:   e8bd 4070   ldmia.w sp!, {r4, r5, r6, lr}
    589e:   f000 b90f   b.w 0x5ac0
    58a2:   bd70        pop {r4, r5, r6, pc}

  0x58a4:   0x200019d0
  0x58a8:   0x20000060
  0x58ac:   0x20000058
  0x58b0:   0x20000030
  0x58b4:   0x2000001c

    58b8:   480a        ldr r0, [pc, #40]   ; (0x58e4)
    58ba:   b510        push {r4, lr}
    58bc:   7980        ldrb r0, [r0, #6]
    58be:   2801        cmp r0, #1
    58c0:   d00d        beq.n 0x58de
    58c2:   4809        ldr r0, [pc, #36]   ; (0x58e8)
    58c4:   6800        ldr r0, [r0, #0]
    58c6:   f7ff f8aa   bl 0x4a1e
    58ca:   2103        movs r1, #3
    58cc:   f7ff fca0   bl 0x5210
    58d0:   28ff        cmp r0, #255   ; 0xff
    58d2:   d004        beq.n 0x58de
    58d4:   4904        ldr r1, [pc, #16]   ; (0x58e8)
    58d6:   f7ff f89d   bl 0x4a14
    58da:   2001        movs r0, #1
    58dc:   bd10        pop {r4, pc}
    58de:   2000        movs r0, #0
    58e0:   bd10        pop {r4, pc}
    58e2:   0000        movs r0, r0
    58e4:   19d0        adds r0, r2, r7
    58e6:   2000        movs r0, #0
    58e8:   0030        movs r0, r6
    58ea:   2000        movs r0, #0
    58ec:   e92d 41f0   stmdb sp!, {r4, r5, r6, r7, r8, lr}
    58f0:   4c37        ldr r4, [pc, #220]   ; (0x59d0)
    58f2:   4d38        ldr r5, [pc, #224]   ; (0x59d4)
    58f4:   1f26        subs r6, r4, #4
    58f6:   79a0        ldrb r0, [r4, #6]
    58f8:   b120        cbz r0, 0x5904
    58fa:   2801        cmp r0, #1
    58fc:   d03b        beq.n 0x5976
    58fe:   2802        cmp r0, #2
    5900:   d14b        bne.n 0x599a
    5902:   e01f        b.n 0x5944
    5904:   f001 fb02   bl 0x6f0c
    5908:   4607        mov r7, r0
    590a:   2860        cmp r0, #96   ; 0x60
    590c:   d245        bcs.n 0x599a
    590e:   78e8        ldrb r0, [r5, #3]
    5910:   0780        lsls r0, r0, #30
    5912:   d558        bpl.n 0x59c6
    5914:   79a0        ldrb r0, [r4, #6]
    5916:   b110        cbz r0, 0x591e
    5918:   2000        movs r0, #0
    591a:   f7fe fead   bl 0x4678
    591e:   6828        ldr r0, [r5, #0]
    5920:   f7ff f87d   bl 0x4a1e
    5924:   80a0        strh r0, [r4, #4]
    5926:   2002        movs r0, #2
    5928:   71a0        strb r0, [r4, #6]
    592a:   482b        ldr r0, [pc, #172]   ; (0x59d8)
    592c:   eb00 0047   add.w r0, r0, r7, lsl #1
    5930:   f890 0029   ldrb.w r0, [r0, #41]   ; 0x29
    5934:   0940        lsrs r0, r0, #5
    5936:   7220        strb r0, [r4, #8]
    5938:   2000        movs r0, #0
    593a:   8030        strh r0, [r6, #0]
    593c:   70b7        strb r7, [r6, #2]
    593e:   f001 fb0b   bl 0x6f58
    5942:   e040        b.n 0x59c6
    5944:   78e8        ldrb r0, [r5, #3]
    5946:   0781        lsls r1, r0, #30
    5948:   4822        ldr r0, [pc, #136]   ; (0x59d4)
    594a:   6800        ldr r0, [r0, #0]
    594c:   d50a        bpl.n 0x5964
    594e:   f7ff f866   bl 0x4a1e
    5952:   88a1        ldrh r1, [r4, #4]
    5954:   4288        cmp r0, r1
    5956:   d1d5        bne.n 0x5904
    5958:   7a20        ldrb r0, [r4, #8]
    595a:   2803        cmp r0, #3
    595c:   d1d2        bne.n 0x5904
    595e:   f000 f8af   bl 0x5ac0
    5962:   e030        b.n 0x59c6
    5964:   f7ff f85b   bl 0x4a1e
    5968:   88a1        ldrh r1, [r4, #4]
    596a:   4288        cmp r0, r1
    596c:   d115        bne.n 0x599a
    596e:   7a20        ldrb r0, [r4, #8]
    5970:   2802        cmp r0, #2
    5972:   d0f4        beq.n 0x595e
    5974:   e027        b.n 0x59c6
    5976:   f7ff faa9   bl 0x4ecc
    597a:   bb10        cbnz r0, 0x59c2
    597c:   79e0        ldrb r0, [r4, #7]
    597e:   2805        cmp r0, #5
    5980:   d00e        beq.n 0x59a0
    5982:   78e9        ldrb r1, [r5, #3]
    5984:   0789        lsls r1, r1, #30
    5986:   d508        bpl.n 0x599a
    5988:   2801        cmp r0, #1
    598a:   d01c        beq.n 0x59c6
    598c:   2701        movs r7, #1
    598e:   2802        cmp r0, #2
    5990:   d00a        beq.n 0x59a8
    5992:   2803        cmp r0, #3
    5994:   d016        beq.n 0x59c4
    5996:   2804        cmp r0, #4
    5998:   d017        beq.n 0x59ca
    599a:   2000        movs r0, #0
    599c:   e8bd 81f0   ldmia.w sp!, {r4, r5, r6, r7, r8, pc}
    59a0:   e8bd 41f0   ldmia.w sp!, {r4, r5, r6, r7, r8, lr}
    59a4:   f001 bb80   b.w 0x70a8
    59a8:   f001 fae0   bl 0x6f6c
    59ac:   78b0        ldrb r0, [r6, #2]
    59ae:   2860        cmp r0, #96   ; 0x60
    59b0:   d008        beq.n 0x59c4
    59b2:   6828        ldr r0, [r5, #0]
    59b4:   f7ff f833   bl 0x4a1e
    59b8:   80a0        strh r0, [r4, #4]
    59ba:   2003        movs r0, #3
    59bc:   71e0        strb r0, [r4, #7]
    59be:   4807        ldr r0, [pc, #28]   ; (0x59dc)
    59c0:   7007        strb r7, [r0, #0]
    59c2:   e000        b.n 0x59c6
    59c4:   71e7        strb r7, [r4, #7]
    59c6:   2001        movs r0, #1
    59c8:   e7e8        b.n 0x599c
    59ca:   2005        movs r0, #5
    59cc:   71e0        strb r0, [r4, #7]
    59ce:   e7e7        b.n 0x59a0
    59d0:   19d0        adds r0, r2, r7
    59d2:   2000        movs r0, #0
    59d4:   0030        movs r0, r6
    59d6:   2000        movs r0, #0
    59d8:   0730        lsls r0, r6, #28
    59da:   2000        movs r0, #0
    59dc:   0648        lsls r0, r1, #25
    59de:   2000        movs r0, #0
    59e0:   e92d 41f0   stmdb sp!, {r4, r5, r6, r7, r8, lr}
    59e4:   4d2c        ldr r5, [pc, #176]   ; (0x5a98)
    59e6:   f04f 0801   mov.w r8, #1
    59ea:   79e8        ldrb r0, [r5, #7]
    59ec:   2808        cmp r0, #8
    59ee:   d049        beq.n 0x5a84
    59f0:   1f2e        subs r6, r5, #4
    59f2:   492a        ldr r1, [pc, #168]   ; (0x5a9c)
    59f4:   78b0        ldrb r0, [r6, #2]
    59f6:   4f2a        ldr r7, [pc, #168]   ; (0x5aa0)
    59f8:   eb01 0440   add.w r4, r1, r0, lsl #1
    59fc:   4628        mov r0, r5
    59fe:   8831        ldrh r1, [r6, #0]
    5a00:   8880        ldrh r0, [r0, #4]
    5a02:   3428        adds r4, #40   ; 0x28
    5a04:   2902        cmp r1, #2
    5a06:   d10e        bne.n 0x5a26
    5a08:   683a        ldr r2, [r7, #0]
    5a0a:   8811        ldrh r1, [r2, #0]
    5a0c:   8892        ldrh r2, [r2, #4]
    5a0e:   f3c1 0109   ubfx r1, r1, #0, #10
    5a12:   f3c2 0209   ubfx r2, r2, #0, #10
    5a16:   4291        cmp r1, r2
    5a18:   d105        bne.n 0x5a26
    5a1a:   f7ff fbf9   bl 0x5210
    5a1e:   f64f 70ff   movw r0, #65535   ; 0xffff
    5a22:   8020        strh r0, [r4, #0]
    5a24:   e021        b.n 0x5a6a
    5a26:   21ff        movs r1, #255   ; 0xff
    5a28:   f7ff fbf2   bl 0x5210
    5a2c:   7a28        ldrb r0, [r5, #8]
    5a2e:   2801        cmp r0, #1
    5a30:   d024        beq.n 0x5a7c
    5a32:   f001 fa59   bl 0x6ee8
    5a36:   8831        ldrh r1, [r6, #0]
    5a38:   683a        ldr r2, [r7, #0]
    5a3a:   eb02 0181   add.w r1, r2, r1, lsl #2
    5a3e:   f44f 52e0   mov.w r2, #7168   ; 0x1c00
    5a42:   f821 0c02   strh.w r0, [r1, #-2]
    5a46:   7a29        ldrb r1, [r5, #8]
    5a48:   88a8        ldrh r0, [r5, #4]
    5a4a:   ea42 3141   orr.w r1, r2, r1, lsl #13
    5a4e:   4308        orrs r0, r1
    5a50:   8020        strh r0, [r4, #0]
    5a52:   8830        ldrh r0, [r6, #0]
    5a54:   28ff        cmp r0, #255   ; 0xff
    5a56:   d804        bhi.n 0x5a62
    5a58:   683a        ldr r2, [r7, #0]
    5a5a:   f44f 417c   mov.w r1, #64512   ; 0xfc00
    5a5e:   f822 1020   strh.w r1, [r2, r0, lsl #2]
    5a62:   78b0        ldrb r0, [r6, #2]
    5a64:   2101        movs r1, #1
    5a66:   f7fe f993   bl 0x3d90
    5a6a:   f7fe f8bf   bl 0x3bec
    5a6e:   79e8        ldrb r0, [r5, #7]
    5a70:   2807        cmp r0, #7
    5a72:   d005        beq.n 0x5a80
    5a74:   f885 8007   strb.w r8, [r5, #7]
    5a78:   e8bd 81f0   ldmia.w sp!, {r4, r5, r6, r7, r8, pc}
    5a7c:   2000        movs r0, #0
    5a7e:   e7da        b.n 0x5a36
    5a80:   2008        movs r0, #8
    5a82:   71e8        strb r0, [r5, #7]
    5a84:   4907        ldr r1, [pc, #28]   ; (0x5aa4)
    5a86:   2000        movs r0, #0
    5a88:   71a8        strb r0, [r5, #6]
    5a8a:   6008        str r0, [r1, #0]
    5a8c:   4906        ldr r1, [pc, #24]   ; (0x5aa8)
    5a8e:   71e8        strb r0, [r5, #7]
    5a90:   f881 8000   strb.w r8, [r1]
    5a94:   e7f0        b.n 0x5a78
    5a96:   0000        movs r0, r0
    5a98:   19d0        adds r0, r2, r7
    5a9a:   2000        movs r0, #0
    5a9c:   0730        lsls r0, r6, #28
    5a9e:   2000        movs r0, #0
    5aa0:   0058        lsls r0, r3, #1
    5aa2:   2000        movs r0, #0
    5aa4:   0060        lsls r0, r4, #1
    5aa6:   2000        movs r0, #0
    5aa8:   0648        lsls r0, r1, #25
    5aaa:   2000        movs r0, #0
    5aac:   4803        ldr r0, [pc, #12]   ; (0x5abc)
    5aae:   7981        ldrb r1, [r0, #6]
    5ab0:   2900        cmp r1, #0
    5ab2:   d102        bne.n 0x5aba
    5ab4:   2101        movs r1, #1
    5ab6:   7181        strb r1, [r0, #6]
    5ab8:   71c1        strb r1, [r0, #7]
    5aba:   4770        bx lr
    5abc:   19d0        adds r0, r2, r7
    5abe:   2000        movs r0, #0

  0x5ac0:   b5f8        push {r3, r4, r5, r6, r7, lr}
    5ac2:   4e1e        ldr r6, [pc, #120]   ; (0x5b3c)
    5ac4:   2700        movs r7, #0
    5ac6:   79b0        ldrb r0, [r6, #6]
    5ac8:   2802        cmp r0, #2
    5aca:   d135        bne.n 0x5b38
    5acc:   1f35        subs r5, r6, #4
    5ace:   8828        ldrh r0, [r5, #0]
    5ad0:   b390        cbz r0, 0x5b38
    5ad2:   491b        ldr r1, [pc, #108]   ; (0x5b40)
    5ad4:   9700        str r7, [sp, #0]
    5ad6:   6809        ldr r1, [r1, #0]
    5ad8:   eb01 0480   add.w r4, r1, r0, lsl #2
    5adc:   f89d 0003   ldrb.w r0, [sp, #3]
    5ae0:   f040 0005   orr.w r0, r0, #5
    5ae4:   f88d 0003   strb.w r0, [sp, #3]
    5ae8:   e021        b.n 0x5b2e
    5aea:   7860        ldrb r0, [r4, #1]
    5aec:   0940        lsrs r0, r0, #5
    5aee:   2802        cmp r0, #2
    5af0:   d002        beq.n 0x5af8
    5af2:   2807        cmp r0, #7
    5af4:   d117        bne.n 0x5b26
    5af6:   e014        b.n 0x5b22
    5af8:   8820        ldrh r0, [r4, #0]
    5afa:   4669        mov r1, sp
    5afc:   f7fe ff8a   bl 0x4a14
    5b00:   f89d 0001   ldrb.w r0, [sp, #1]
    5b04:   07c0        lsls r0, r0, #31
    5b06:   f89d 0000   ldrb.w r0, [sp]
    5b0a:   d002        beq.n 0x5b12
    5b0c:   f7fe fde2   bl 0x46d4
    5b10:   e001        b.n 0x5b16
    5b12:   490c        ldr r1, [pc, #48]   ; (0x5b44)
    5b14:   5c08        ldrb r0, [r1, r0]
    5b16:   f88d 0002   strb.w r0, [sp, #2]
    5b1a:   9800        ldr r0, [sp, #0]
    5b1c:   f7fe fe30   bl 0x4780
    5b20:   e001        b.n 0x5b26
    5b22:   20ff        movs r0, #255   ; 0xff
    5b24:   8028        strh r0, [r5, #0]
    5b26:   8828        ldrh r0, [r5, #0]
    5b28:   1c40        adds r0, r0, #1
    5b2a:   8028        strh r0, [r5, #0]
    5b2c:   1d24        adds r4, r4, #4
    5b2e:   8828        ldrh r0, [r5, #0]
    5b30:   28ff        cmp r0, #255   ; 0xff
    5b32:   d9da        bls.n 0x5aea
    5b34:   f001 fa10   bl 0x6f58
    5b38:   71b7        strb r7, [r6, #6]
    5b3a:   bdf8        pop {r3, r4, r5, r6, r7, pc}
    5b3c:   19d0        adds r0, r2, r7
    5b3e:   2000        movs r0, #0
    5b40:   0058        lsls r0, r3, #1
    5b42:   2000        movs r0, #0
    5b44:   01c0        lsls r0, r0, #7
    5b46:   2000        movs r0, #0
    5b48:   480f        ldr r0, [pc, #60]   ; (0x5b88)
    5b4a:   b510        push {r4, lr}
    5b4c:   6800        ldr r0, [r0, #0]
    5b4e:   f7fe ff66   bl 0x4a1e
    5b52:   4604        mov r4, r0
    5b54:   2103        movs r1, #3
    5b56:   f7ff fb5b   bl 0x5210
    5b5a:   28ff        cmp r0, #255   ; 0xff
    5b5c:   d004        beq.n 0x5b68
    5b5e:   21ff        movs r1, #255   ; 0xff
    5b60:   4620        mov r0, r4
    5b62:   f7ff fb55   bl 0x5210
    5b66:   e009        b.n 0x5b7c
    5b68:   f001 f9d0   bl 0x6f0c
    5b6c:   2860        cmp r0, #96   ; 0x60
    5b6e:   d209        bcs.n 0x5b84
    5b70:   4a06        ldr r2, [pc, #24]   ; (0x5b8c)
    5b72:   f64f 71ff   movw r1, #65535   ; 0xffff
    5b76:   eb02 0040   add.w r0, r2, r0, lsl #1
    5b7a:   8501        strh r1, [r0, #40]   ; 0x28
    5b7c:   f7fe f836   bl 0x3bec
    5b80:   2001        movs r0, #1
    5b82:   bd10        pop {r4, pc}
    5b84:   2000        movs r0, #0
    5b86:   bd10        pop {r4, pc}
    5b88:   0030        movs r0, r6
    5b8a:   2000        movs r0, #0
    5b8c:   0730        lsls r0, r6, #28
    5b8e:   2000        movs r0, #0
    5b90:   b538        push {r3, r4, r5, lr}
    5b92:   4c0c        ldr r4, [pc, #48]   ; (0x5bc4)
    5b94:   2548        movs r5, #72   ; 0x48
    5b96:   e010        b.n 0x5bba
    5b98:   4669        mov r1, sp
    5b9a:   4628        mov r0, r5
    5b9c:   f000 f814   bl 0x5bc8
    5ba0:   f89d 0002   ldrb.w r0, [sp, #2]
    5ba4:   7020        strb r0, [r4, #0]
    5ba6:   f1a4 0048   sub.w r0, r4, #72   ; 0x48
    5baa:   f89d 1001   ldrb.w r1, [sp, #1]
    5bae:   7001        strb r1, [r0, #0]
    5bb0:   3848        subs r0, #72   ; 0x48
    5bb2:   f89d 1000   ldrb.w r1, [sp]
    5bb6:   7001        strb r1, [r0, #0]
    5bb8:   1e64        subs r4, r4, #1
    5bba:   1e6d        subs r5, r5, #1
    5bbc:   b2ed        uxtb r5, r5
    5bbe:   d2eb        bcs.n 0x5b98
    5bc0:   bd38        pop {r3, r4, r5, pc}
    5bc2:   0000        movs r0, r0
    5bc4:   0405        lsls r5, r0, #16
    5bc6:   2000        movs r0, #0
    5bc8:   4a0c        ldr r2, [pc, #48]   ; (0x5bfc)
    5bca:   230d        movs r3, #13
    5bcc:   5c10        ldrb r0, [r2, r0]
    5bce:   f000 0207   and.w r2, r0, #7
    5bd2:   08c0        lsrs r0, r0, #3
    5bd4:   ebc0 2000   rsb r0, r0, r0, lsl #8
    5bd8:   fbb0 f0f3   udiv r0, r0, r3
    5bdc:   b2c0        uxtb r0, r0
    5bde:   7008        strb r0, [r1, #0]
    5be0:   2a04        cmp r2, #4
    5be2:   d008        beq.n 0x5bf6
    5be4:   f1c2 0205   rsb r2, r2, #5
    5be8:   232b        movs r3, #43   ; 0x2b
    5bea:   435a        muls r2, r3
    5bec:   b2d3        uxtb r3, r2
    5bee:   460a        mov r2, r1
    5bf0:   4619        mov r1, r3
    5bf2:   f7fe b9f9   b.w 0x3fe8
    5bf6:   7048        strb r0, [r1, #1]
    5bf8:   7088        strb r0, [r1, #2]
    5bfa:   4770        bx lr

  0x5bfc:   0x7b73

  0x5c00:   4901        ldr r1, [pc, #4]   ; (0x5c08)
    5c02:   7008        strb r0, [r1, #0]
    5c04:   f7ff bcec   b.w 0x55e0

  0x5c08:   0x2000000c

  0x5c0c:   b510        push {r4, lr}
    5c0e:   f44f 7200   mov.w r2, #512   ; 0x200
    5c12:   2100        movs r1, #0
    5c14:   0250        lsls r0, r2, #9
    5c16:   2301        movs r3, #1
    5c18:   f7fd fe36   bl 0x3888
    5c1c:   2201        movs r2, #1
    5c1e:   e8bd 4010   ldmia.w sp!, {r4, lr}
    5c22:   4611        mov r1, r2
    5c24:   4801        ldr r0, [pc, #4]   ; (0x5c2c)
    5c26:   f7fe bc9f   b.w 0x4568
    5c2a:   0000        movs r0, r0

  0x5c2c:   0x400b4000  ; GPIO C

pinmux_c0_gpio:
    ; Select AF0 (default) for GPIO C pin 0 (pin 30)
  0x5c30:   2200        movs r2, #0
    5c32:   4611        mov r1, r2
    5c34:   2002        movs r0, #2
    5c36:   f7fd bdb1   b.w 0x379c           ; return afio_pin_config(2, 0, 0)

pinmux_c0_gptm:
    ; Select AF4 (GPTM) for GPIO C pin 0 (pin 30)
  0x5c3a:   2204        movs r2, #4
    5c3c:   2100        movs r1, #0
    5c3e:   2002        movs r0, #2
    5c40:   f7fd bdac   b.w 0x379c           ; return afio_pin_config(2, 0, 4)

    5c44:   b570        push {r4, r5, r6, lr}
    5c46:   490d        ldr r1, [pc, #52]   ; (0x5c7c)
    5c48:   680c        ldr r4, [r1, #0]
    5c4a:   4d0c        ldr r5, [pc, #48]   ; (0x5c7c)
    5c4c:   3548        adds r5, #72   ; 0x48
    5c4e:   682b        ldr r3, [r5, #0]
    5c50:   2201        movs r2, #1
    5c52:   600a        str r2, [r1, #0]
    5c54:   2200        movs r2, #0
    5c56:   602a        str r2, [r5, #0]
    5c58:   4e09        ldr r6, [pc, #36]   ; (0x5c80)
    5c5a:   f8c6 209c   str.w r2, [r6, #156]   ; 0x9c
    5c5e:   f8c6 208c   str.w r2, [r6, #140]   ; 0x8c
    5c62:   600c        str r4, [r1, #0]
    5c64:   4907        ldr r1, [pc, #28]   ; (0x5c84)
    5c66:   680a        ldr r2, [r1, #0]
    5c68:   f042 0204   orr.w r2, r2, #4
    5c6c:   600a        str r2, [r1, #0]
    5c6e:   b110        cbz r0, 0x5c76
    5c70:   bf30        wfi
    5c72:   602b        str r3, [r5, #0]
    5c74:   bd70        pop {r4, r5, r6, pc}
    5c76:   bf20        wfe
    5c78:   e7fb        b.n 0x5c72
    5c7a:   0000        movs r0, r0
    5c7c:   0618        lsls r0, r3, #24
    5c7e:   4310        orrs r0, r2
    5c80:   2000        movs r0, #0
    5c82:   42d4        cmn r4, r2
    5c84:   ed10 e000   ldc 0, cr14, [r0, #-0]

function_130_11:
  0x5c88:   e92d 47f0   stmdb sp!, {r4, r5, r6, r7, r8, r9, sl, lr}
    5c8c:   4c0e        ldr r4, [pc, #56]       ; (0x5cc8)
    5c8e:   6827        ldr r7, [r4, #0]
    5c90:   4d0d        ldr r5, [pc, #52]       ; (0x5cc8)
    5c92:   3548        adds r5, #72            ; 0x48
    5c94:   682e        ldr r6, [r5, #0]
    5c96:   f04f 0901   mov.w r9, #1
    5c9a:   f8c4 9000   str.w r9, [r4]
    5c9e:   f04f 0800   mov.w r8, #0
    5ca2:   f8c5 8000   str.w r8, [r5]
    5ca6:   f000 f907   bl 0x5eb8
    5caa:   4808        ldr r0, [pc, #32]       ; (0x5ccc)
    5cac:   f8c0 809c   str.w r8, [r0, #156]    ; 0x9c
    5cb0:   f8c0 908c   str.w r9, [r0, #140]    ; 0x8c
    5cb4:   6027        str r7, [r4, #0]
    5cb6:   4806        ldr r0, [pc, #24]       ; (0x5cd0)
    5cb8:   6801        ldr r1, [r0, #0]
    5cba:   f041 0104   orr.w r1, r1, #4
    5cbe:   6001        str r1, [r0, #0]
    5cc0:   bf20        wfe                     ; wait for event
    5cc2:   602e        str r6, [r5, #0]
    5cc4:   e8bd 87f0   ldmia.w sp!, {r4, r5, r6, r7, r8, r9, sl, pc}

  0x5cc8:   0x43100618  ; in APB/AHB bit band alias
  0x5ccc:   0x42d42000  ; in APB/AHB bit band alias
  0x5cd0:   0xe000ed10  ; ARM NVIC system control register

function_130_12:
  0x5cd4:   4904        ldr r1, [pc, #16]   ; (0x5ce8)
    5cd6:   680a        ldr r2, [r1, #0]
    5cd8:   f022 0204   bic.w r2, r2, #4
    5cdc:   600a        str r2, [r1, #0]
    5cde:   b108        cbz r0, 0x5ce4
    5ce0:   bf30        wfi
    5ce2:   4770        bx lr
    5ce4:   bf20        wfe
    5ce6:   4770        bx lr

  0x5ce8:   0xe000ed10  ; ARM NVIC system control register

handle_frame:
  0x5cec:   b570        push {r4, r5, r6, lr}
    5cee:   4e35        ldr r6, [pc, #212]  ; (0x5dc4)
    5cf0:   7830        ldrb r0, [r6, #0]
    5cf2:   2801        cmp r0, #1
    5cf4:   d15c        bne.n 0x5db0        ; return if [r6] != 1

    5cf6:   4d34        ldr r5, [pc, #208]  ; (0x5dc8)
    5cf8:   2400        movs r4, #0
    5cfa:   4628        mov r0, r5
    5cfc:   782a        ldrb r2, [r5, #0]   ; r2 = cmd
    5cfe:   7840        ldrb r0, [r0, #1]   ; r0 = subcmd
    5d00:   4621        mov r1, r4          ; r1 = 0

    5d02:   2a10        cmp r2, #16
    5d04:   d004        beq.n 0x5d10
    5d06:   2a11        cmp r2, #17
    5d08:   d007        beq.n 0x5d1a
    5d0a:   2a12        cmp r2, #18
    5d0c:   d151        bne.n 0x5db2
    5d0e:   e007        b.n 0x5d20

    ; if r2 == 16 (0x10)
  0x5d10:   2802        cmp r0, #2
    5d12:   d14e        bne.n 0x5db2
    5d14:   6069        str r1, [r5, #4]    ; [r5 + 4] = r1 = 0
    5d16:   2104        movs r1, #4         ; r1 = 4
    5d18:   e03c        b.n 0x5d94

    ; if r2 == 17 (0x11) reset command
  0x5d1a:   f000 f859   bl 0x5dd0           ; call reset_builtin(r0)
    5d1e:   e03d        b.n 0x5d9c

    ; if r2 == 18 (0x12) read command
  0x5d20:   f44f 6380   mov.w r3, #1024
    5d24:   2820        cmp r0, #32
    5d26:   d30e        bcc.n 0x5d46            ; if r0 < 0x20

    ; else r0 >= 0x20

; This code is useless, the exploit patch will replace this
; -----------------------------------------------------
    5d28:   f1a0 021f   sub.w r2, r0, #31           ; r2 = r0 - 31
    5d2c:   ebc2 1202   rsb r2, r2, r2, lsl #4      ; r2 *= 15
    5d30:   ebb3 0f82   cmp.w r3, r2, lsl #2
    5d34:   db07        blt.n 0x5d46                ; if 0x400 < (r2 * 4)
; -----------------------------------------------------

  0x5d36:   ebc0 1000   rsb r0, r0, r0, lsl #4      ; r0 *= 15
    5d3a:   f44f 5122   mov.w r1, #10368
    5d3e:   eb01 0080   add.w r0, r1, r0, lsl #2    ; r0 = 0x2880 + (r0 * 4)
    5d42:   213c        movs r1, #60                ; r1 = 60
    5d44:   e027        b.n 0x5d96

  0x5d46:   b120        cbz r0, 0x5d52
    5d48:   2801        cmp r0, #1
    5d4a:   d01d        beq.n 0x5d88
    5d4c:   2802        cmp r0, #2
    5d4e:   d130        bne.n 0x5db2
    5d50:   e01e        b.n 0x5d90

    ; if r0 == 0
  0x5d52:   f891 010f   ldrb.w r0, [r1, #271]   ; r0 = [r1 + 0x10f]
    5d56:   28aa        cmp r0, #170            ; 0xaa
    5d58:   d011        beq.n 0x5d7e            ; if r0 == 0xaa
    5d5a:   781a        ldrb r2, [r3, #0]
    5d5c:   4618        mov r0, r3              ; r0 = 0x400
    5d5e:   2a04        cmp r2, #4
    5d60:   d010        beq.n 0x5d84            ; if [0x400] = 4

    5d62:   2220        movs r2, #32
    5d64:   4619        mov r1, r3
    5d66:   1d28        adds r0, r5, #4
    5d68:   f7fd fc26   bl 0x35b8               ; call memcpy(r5 + 4, 0x400, 32)

    5d6c:   4817        ldr r0, [pc, #92]       ; (0x5dcc) FMC
    5d6e:   f8d0 1180   ldr.w r1, [r0, #384]    ; 0x180     undocumented FMC register
    5d72:   6269        str r1, [r5, #36]       ; [r5 + 0x24] = [FMC + 0x180]
    5d74:   f8d0 018c   ldr.w r0, [r0, #396]    ; 0x18c     undocumented FMC register
    5d78:   2128        movs r1, #40
    5d7a:   62a8        str r0, [r5, #40]       ; [r5 + 0x28] = [FMC + 0x18c]
    5d7c:   e00a        b.n 0x5d94

  0x5d7e:   2110        movs r1, #16        ; r1 = 16
    5d80:   0108        lsls r0, r1, #4     ; r0 = 0x100
    5d82:   e008        b.n 0x5d96

  0x5d84:   2134        movs r1, #52        ; r1 = 52
    5d86:   e006        b.n 0x5d96

    ; if r0 == 1
  0x5d88:   2104        movs r1, #4
    5d8a:   f44f 5070   mov.w r0, #15360    ; 0x3c00
    5d8e:   e002        b.n 0x5d96

    ; if r0 == 2
  0x5d90:   2101        movs r1, #1
    5d92:   7129        strb r1, [r5, #4]   ; [r5 + 4] = 1

  0x5d94:   1d28        adds r0, r5, #4     ; r0 = r5 + 4
  0x5d96:   f000 f85d   bl 0x5e54           ; call flash_read_packet(r0, r1)
    5d9a:   2401        movs r4, #1
  0x5d9c:   7830        ldrb r0, [r6, #0]
    5d9e:   2801        cmp r0, #1
    5da0:   d106        bne.n 0x5db0
    5da2:   b134        cbz r4, 0x5db2

    5da4:   213c        movs r1, #60
    5da6:   1d28        adds r0, r5, #4
  0x5da8:   f7fd fc1f   bl 0x35ea           ; call mem_zero(r5 + 4, 60)

    5dac:   2002        movs r0, #2
    5dae:   7030        strb r0, [r6, #0]   ; [r6] = 2
  0x5db0:   bd70        pop {r4, r5, r6, pc}

    ; else / error handler
  0x5db2:   6828        ldr r0, [r5, #0]
    5db4:   6068        str r0, [r5, #4]    ; [r5 + 4] = [r5]
    5db6:   f64a 20ff   movw r0, #43775
    5dba:   6028        str r0, [r5, #0]    ; [r5] = 0xaaff

    5dbc:   4802        ldr r0, [pc, #8]    ; (0x5dc8)
    5dbe:   2138        movs r1, #56        ; 0x38
    5dc0:   3008        adds r0, #8
    5dc2:   e7f1        b.n 0x5da8          ; call mem_zero(r5 + 8, 56)

  0x5dc4:   0x20000028
  0x5dc8:   0x20000608  ; update_packet
  0x5dcc:   0x40080000  ; FMC

reset_builtin:
    ; r0 = 0/1/2
    ; 0: reset key 0x55aafaf5
    ; 1: reset key 0x55aafaf0
    ; 2: usb disconnect, wait event
  0x5dd0:   b510        push {r4, lr}
    5dd2:   491b        ldr r1, [pc, #108]   ; (0x5e40)
    5dd4:   b168        cbz r0, 0x5df2
    5dd6:   2801        cmp r0, #1
    5dd8:   d00d        beq.n 0x5df6

    5dda:   2802        cmp r0, #2
    5ddc:   d12f        bne.n 0x5e3e        ; return if r0 != 2

    ; if r0 == 2
    ; Disable USB interrupt
    5dde:   2035        movs r0, #53
    5de0:   f7ff fcbc   bl 0x575c           ; call nvic_disable_intr(53)

    5de4:   2000        movs r0, #0
    5de6:   f000 fd55   bl 0x6894           ; call usb_dp_pull_up(0)

    5dea:   e8bd 4010   ldmia.w sp!, {r4, lr}
    5dee:   f7ff bf4b   b.w 0x5c88          ; return function_130_11

    ; if r0 == 0
  0x5df2:   4814        ldr r0, [pc, #80]   ; (0x5e44)
    5df4:   e001        b.n 0x5dfa

    ; if r0 == 1
  0x5df6:   4813        ldr r0, [pc, #76]   ; (0x5e44)
    5df8:   1f40        subs r0, r0, #5

  0x5dfa:   6008        str r0, [r1, #0]

    5dfc:   2100        movs r1, #0
    5dfe:   f44f 3080   mov.w r0, #65536
    5e02:   2301        movs r3, #1
    5e04:   460a        mov r2, r1
    5e06:   f7fd fd3f   bl 0x3888           ; call ckcu_clocks_enable(0x10000, 0, 0, 1)

    5e0a:   490f        ldr r1, [pc, #60]   ; (0x5e48)
    5e0c:   f44f 7000   mov.w r0, #512      ; 0x200
    5e10:   6248        str r0, [r1, #36]   ; 0x24

    ; Disable USB interrupt
    5e12:   2035        movs r0, #53
    5e14:   f7ff fca2   bl 0x575c           ; call nvic_disable_intr(53)

    5e18:   2000        movs r0, #0
    5e1a:   f000 fd3b   bl 0x6894

    5e1e:   f644 6020   movw r0, #20000
    5e22:   f7fd fccf   bl 0x37c4           ; call spin_wait_maybe(20000)

    5e26:   f3bf 8f4f   dsb sy

    ; Request system reset
    ; Write 0x5fa0004 to AIRCR
    ; Set SYSRESETREQ
    5e2a:   4808        ldr r0, [pc, #32]   ; (0x5e4c)
    5e2c:   6801        ldr r1, [r0, #0]
    5e2e:   4a08        ldr r2, [pc, #32]   ; (0x5e50)
    5e30:   f401 61e0   and.w r1, r1, #1792 ; 0x700
    5e34:   4311        orrs r1, r2
    5e36:   6001        str r1, [r0, #0]

    5e38:   f3bf 8f4f   dsb sy
  0x5e3c:   e7fe        b.n 0x5e3c          ; dead loop
  0x5e3e:   bd10        pop {r4, pc}

  0x5e40:   0x20003ffc
  0x5e44:   0x55aafaf5  ; reset key
  0x5e48:   0x400b0000  ; GPIO A
  0x5e4c:   0xe000ed0c
  0x5e50:   0x05fa0004  ; AIRCR key and reset

flash_read_packet:
    ; r0 = src
    ; r1 = len
  0x5e54:   b570        push {r4, r5, r6, lr}
    5e56:   460c        mov r4, r1
    5e58:   4a09        ldr r2, [pc, #36]   ; (0x5e80)
    5e5a:   4601        mov r1, r0

    5e5c:   2002        movs r0, #2
    5e5e:   7010        strb r0, [r2, #0]   ; [r2] = 2
    5e60:   4808        ldr r0, [pc, #32]   ; (0x5e84)
    5e62:   1f05        subs r5, r0, #4     ; r5 = r0 - 4
    5e64:   4281        cmp r1, r0
    5e66:   d003        beq.n 0x5e70        ; if r1 == r0

    5e68:   4622        mov r2, r4
    5e6a:   1d28        adds r0, r5, #4
    5e6c:   f7fd fba4   bl 0x35b8           ; call memcpy(r5 + 4, src, len)

  0x5e70:   1928        adds r0, r5, r4
    5e72:   f1c4 013c   rsb r1, r4, #60
    5e76:   e8bd 4070   ldmia.w sp!, {r4, r5, r6, lr}
    5e7a:   1d00        adds r0, r0, #4
    5e7c:   f7fd bbb5   b.w 0x35ea          ; return mem_zero(r5 + r4 + 4, 60 - r4)

  0x5e80:   0x20000028
  0x5e84:   0x2000060c

ckcu_voodoo1:
    ; r0 = ??
    ; r1 = ??
    ; r2 = ??
    ; r3 = 0/1
    ; Some undocumented CKCU register voodoo
  0x5e88:   b5f0        push {r4, r5, r6, r7, lr}
    5e8a:   4f0a        ldr r7, [pc, #40]   ; (0x5eb4)
    5e8c:   f8d7 4104   ldr.w r4, [r7, #260]   ; 0x104
    5e90:   f8d7 5108   ldr.w r5, [r7, #264]   ; 0x108
    5e94:   f8d7 610c   ldr.w r6, [r7, #268]   ; 0x10c
    5e98:   4384        bics r4, r0
    5e9a:   438d        bics r5, r1
    5e9c:   4396        bics r6, r2
    5e9e:   b113        cbz r3, 0x5ea6
    5ea0:   4304        orrs r4, r0
    5ea2:   430d        orrs r5, r1
    5ea4:   4316        orrs r6, r2
  0x5ea6:   f8c7 4104   str.w r4, [r7, #260]   ; 0x104
    5eaa:   f8c7 5108   str.w r5, [r7, #264]   ; 0x108
    5eae:   f8c7 610c   str.w r6, [r7, #268]   ; 0x10c
    5eb2:   bdf0        pop {r4, r5, r6, r7, pc}

  0x5eb4:   0x40088000  ; CKCU

    5eb8:   4a07        ldr r2, [pc, #28]   ; (0x5ed8)
    5eba:   2100        movs r1, #0
    5ebc:   f44f 50e1   mov.w r0, #7200   ; 0x1c20
    5ec0:   f8c2 1108   str.w r1, [r2, #264]   ; 0x108
    5ec4:   1e40        subs r0, r0, #1
    5ec6:   d2fd        bcs.n 0x5ec4
    5ec8:   2001        movs r0, #1
    5eca:   f8c2 0108   str.w r0, [r2, #264]   ; 0x108
    5ece:   4803        ldr r0, [pc, #12]   ; (0x5edc)
    5ed0:   6881        ldr r1, [r0, #8]
    5ed2:   0689        lsls r1, r1, #26
    5ed4:   d5fc        bpl.n 0x5ed0
    5ed6:   4770        bx lr
    5ed8:   0000        movs r0, r0
    5eda:   42d4        cmn r4, r2
    5edc:   8000        strh r0, [r0, #0]
    5ede:   4008        ands r0, r1
    5ee0:   e92d 47f0   stmdb sp!, {r4, r5, r6, r7, r8, r9, sl, lr}
    5ee4:   270a        movs r7, #10
    5ee6:   4d1a        ldr r5, [pc, #104]   ; (0x5f50)
    5ee8:   e02d        b.n 0x5f46
    5eea:   491a        ldr r1, [pc, #104]   ; (0x5f54)
    5eec:   eb07 0047   add.w r0, r7, r7, lsl #1
    5ef0:   4408        add r0, r1
    5ef2:   f815 1d01   ldrb.w r1, [r5, #-1]!
    5ef6:   7880        ldrb r0, [r0, #2]
    5ef8:   4048        eors r0, r1
    5efa:   ea5f 0800   movs.w r8, r0
    5efe:   d022        beq.n 0x5f46
    5f00:   2480        movs r4, #128   ; 0x80
    5f02:   2608        movs r6, #8
    5f04:   e01c        b.n 0x5f40
    5f06:   ea18 0f04   tst.w r8, r4
    5f0a:   d018        beq.n 0x5f3e
    5f0c:   7828        ldrb r0, [r5, #0]
    5f0e:   4060        eors r0, r4
    5f10:   7028        strb r0, [r5, #0]
    5f12:   4220        tst r0, r4
    5f14:   d101        bne.n 0x5f1a
    5f16:   2001        movs r0, #1
    5f18:   e000        b.n 0x5f1c
    5f1a:   2000        movs r0, #0
    5f1c:   4681        mov r9, r0
    5f1e:   eb06 00c7   add.w r0, r6, r7, lsl #3
    5f22:   b2c0        uxtb r0, r0
    5f24:   4649        mov r1, r9
    5f26:   f7fe fca7   bl 0x4878
    5f2a:   b910        cbnz r0, 0x5f32
    5f2c:   7828        ldrb r0, [r5, #0]
    5f2e:   4060        eors r0, r4
    5f30:   7028        strb r0, [r5, #0]
    5f32:   ea5f 0009   movs.w r0, r9
    5f36:   d000        beq.n 0x5f3a
    5f38:   2001        movs r0, #1
    5f3a:   4907        ldr r1, [pc, #28]   ; (0x5f58)
    5f3c:   8048        strh r0, [r1, #2]
    5f3e:   0864        lsrs r4, r4, #1
    5f40:   1e76        subs r6, r6, #1
    5f42:   b2f6        uxtb r6, r6
    5f44:   d2df        bcs.n 0x5f06
    5f46:   1e7f        subs r7, r7, #1
    5f48:   b2ff        uxtb r7, r7
    5f4a:   d2ce        bcs.n 0x5eea
    5f4c:   e8bd 87f0   ldmia.w sp!, {r4, r5, r6, r7, r8, r9, sl, pc}
    5f50:   01b6        lsls r6, r6, #6
    5f52:   2000        movs r0, #0
    5f54:   0310        lsls r0, r2, #12
    5f56:   2000        movs r0, #0
    5f58:   001a        movs r2, r3
    5f5a:   2000        movs r0, #0
    5f5c:   e92d 41f0   stmdb sp!, {r4, r5, r6, r7, r8, lr}
    5f60:   4606        mov r6, r0
    5f62:   2402        movs r4, #2
    5f64:   4d16        ldr r5, [pc, #88]   ; (0x5fc0)
    5f66:   f44f 77fa   mov.w r7, #500   ; 0x1f4
    5f6a:   f001 f8e7   bl 0x713c
    5f6e:   200a        movs r0, #10
    5f70:   e003        b.n 0x5f7a
    5f72:   eb00 0140   add.w r1, r0, r0, lsl #1
    5f76:   5c69        ldrb r1, [r5, r1]
    5f78:   b911        cbnz r1, 0x5f80
    5f7a:   1e40        subs r0, r0, #1
    5f7c:   b2c0        uxtb r0, r0
    5f7e:   d2f8        bcs.n 0x5f72
    5f80:   28ff        cmp r0, #255   ; 0xff
    5f82:   d007        beq.n 0x5f94
    5f84:   2c00        cmp r4, #0
    5f86:   d1f0        bne.n 0x5f6a
    5f88:   2e00        cmp r6, #0
    5f8a:   d017        beq.n 0x5fbc
    5f8c:   4a0d        ldr r2, [pc, #52]   ; (0x5fc4)
    5f8e:   490c        ldr r1, [pc, #48]   ; (0x5fc0)
    5f90:   200a        movs r0, #10
    5f92:   e00b        b.n 0x5fac
    5f94:   1e64        subs r4, r4, #1
    5f96:   f014 04ff   ands.w r4, r4, #255   ; 0xff
    5f9a:   d0f5        beq.n 0x5f88
    5f9c:   4638        mov r0, r7
    5f9e:   f7fd fc11   bl 0x37c4
    5fa2:   e7e2        b.n 0x5f6a
    5fa4:   788b        ldrb r3, [r1, #2]
    5fa6:   f802 3b01   strb.w r3, [r2], #1
    5faa:   1cc9        adds r1, r1, #3
    5fac:   1e40        subs r0, r0, #1
    5fae:   b2c0        uxtb r0, r0
    5fb0:   d2f8        bcs.n 0x5fa4
    5fb2:   4804        ldr r0, [pc, #16]   ; (0x5fc4)
    5fb4:   7a41        ldrb r1, [r0, #9]
    5fb6:   f041 010f   orr.w r1, r1, #15
    5fba:   7241        strb r1, [r0, #9]
    5fbc:   e8bd 81f0   ldmia.w sp!, {r4, r5, r6, r7, r8, pc}

  0x5fc0:   0x20000310
  0x5fc4:   0x200001ac

  0x5fc8:   4904        ldr r1, [pc, #16]   ; (0x5fdc)
    5fca:   7808        ldrb r0, [r1, #0]
    5fcc:   1c40        adds r0, r0, #1
    5fce:   7008        strb r0, [r1, #0]
    5fd0:   0780        lsls r0, r0, #30
    5fd2:   d101        bne.n 0x5fd8
    5fd4:   f001 b8b2   b.w 0x713c

    5fd8:   4770        bx lr
    5fda:   0000

  0x5fdc:   0x2000001a

    5fe0:   e92d 41f0   stmdb sp!, {r4, r5, r6, r7, r8, lr}
    5fe4:   2600        movs r6, #0
    5fe6:   4631        mov r1, r6
    5fe8:   f44f 2070   mov.w r0, #983040   ; 0xf0000
    5fec:   2301        movs r3, #1
    5fee:   4632        mov r2, r6
    5ff0:   f7fd fc4a   bl 0x3888
    5ff4:   2408        movs r4, #8
    5ff6:   e017        b.n 0x6028
    5ff8:   4825        ldr r0, [pc, #148]   ; (0x6090)
    5ffa:   2200        movs r2, #0
    5ffc:   eb00 01c4   add.w r1, r0, r4, lsl #3
    6000:   888d        ldrh r5, [r1, #4]
    6002:   6808        ldr r0, [r1, #0]
    6004:   b2a9        uxth r1, r5
    6006:   4607        mov r7, r0
    6008:   f7fe fab6   bl 0x4578           ; call gpio_set_pin_pull_up_down
    600c:   b2a9        uxth r1, r5
    600e:   4638        mov r0, r7
    6010:   2201        movs r2, #1
    6012:   f7fe faa1   bl 0x4558           ; call gpio_set_input_enable
    6016:   481e        ldr r0, [pc, #120]   ; (0x6090)
    6018:   3040        adds r0, #64   ; 0x40
    601a:   f810 1014   ldrb.w r1, [r0, r4, lsl #1]
    601e:   eb00 0044   add.w r0, r0, r4, lsl #1
    6022:   7840        ldrb r0, [r0, #1]
    6024:   f7fd fb0c   bl 0x3640
    6028:   1e64        subs r4, r4, #1
    602a:   b2e4        uxtb r4, r4
    602c:   d2e4        bcs.n 0x5ff8
    602e:   240a        movs r4, #10
    6030:   e013        b.n 0x605a
    6032:   4817        ldr r0, [pc, #92]   ; (0x6090)
    6034:   3050        adds r0, #80   ; 0x50
    6036:   eb00 01c4   add.w r1, r0, r4, lsl #3
    603a:   888d        ldrh r5, [r1, #4]
    603c:   680f        ldr r7, [r1, #0]
    603e:   b2a9        uxth r1, r5
    6040:   4638        mov r0, r7
    6042:   f7fe faad   bl 0x45a0
    6046:   b2a9        uxth r1, r5
    6048:   4638        mov r0, r7
    604a:   2200        movs r2, #0
    604c:   f7fe fa8c   bl 0x4568
    6050:   b2a9        uxth r1, r5
    6052:   4638        mov r0, r7
    6054:   2201        movs r2, #1
    6056:   f7fe fa6f   bl 0x4538
    605a:   1e64        subs r4, r4, #1
    605c:   b2e4        uxtb r4, r4
    605e:   d2e8        bcs.n 0x6032
    6060:   22ff        movs r2, #255   ; 0xff
    6062:   210a        movs r1, #10
    6064:   480b        ldr r0, [pc, #44]   ; (0x6094)
    6066:   f7fd fab9   bl 0x35dc
    606a:   2000        movs r0, #0
    606c:   f000 f82e   bl 0x60cc
    6070:   210a        movs r1, #10
    6072:   4809        ldr r0, [pc, #36]   ; (0x6098)
    6074:   22ff        movs r2, #255   ; 0xff
    6076:   e005        b.n 0x6084
    6078:   f800 6b01   strb.w r6, [r0], #1
    607c:   f800 2b01   strb.w r2, [r0], #1
    6080:   f800 2b01   strb.w r2, [r0], #1
    6084:   1e49        subs r1, r1, #1
    6086:   b2c9        uxtb r1, r1
    6088:   d2f6        bcs.n 0x6078
    608a:   e8bd 81f0   ldmia.w sp!, {r4, r5, r6, r7, r8, pc}
    608e:   0000        movs r0, r0

  0x6090:   0x7c18      ; gpio_map_3

    6094:   01ac        lsls r4, r5, #6
    6096:   2000        movs r0, #0
    6098:   0310        lsls r0, r2, #12
    609a:   2000        movs r0, #0
    609c:   490a        ldr r1, [pc, #40]   ; (0x60c8)
    609e:   b510        push {r4, lr}
    60a0:   f501 70b2   add.w r0, r1, #356   ; 0x164
    60a4:   220a        movs r2, #10
    60a6:   e009        b.n 0x60bc
    60a8:   7803        ldrb r3, [r0, #0]
    60aa:   b91b        cbnz r3, 0x60b4
    60ac:   7883        ldrb r3, [r0, #2]
    60ae:   780c        ldrb r4, [r1, #0]
    60b0:   42a3        cmp r3, r4
    60b2:   d001        beq.n 0x60b8
    60b4:   2000        movs r0, #0
    60b6:   bd10        pop {r4, pc}
    60b8:   1cc0        adds r0, r0, #3
    60ba:   1c49        adds r1, r1, #1
    60bc:   1e52        subs r2, r2, #1
    60be:   b2d2        uxtb r2, r2
    60c0:   d2f2        bcs.n 0x60a8
    60c2:   2001        movs r0, #1
    60c4:   bd10        pop {r4, pc}
    60c6:   0000        movs r0, r0
    60c8:   01ac        lsls r4, r5, #6
    60ca:   2000        movs r0, #0
    60cc:   b510        push {r4, lr}
    60ce:   4604        mov r4, r0
    60d0:   2250        movs r2, #80   ; 0x50
    60d2:   490e        ldr r1, [pc, #56]   ; (0x610c)
    60d4:   480e        ldr r0, [pc, #56]   ; (0x6110)
    60d6:   f7fd fa6f   bl 0x35b8
    60da:   b174        cbz r4, 0x60fa
    60dc:   f000 f852   bl 0x6184
    60e0:   2c01        cmp r4, #1
    60e2:   d002        beq.n 0x60ea
    60e4:   2c02        cmp r4, #2
    60e6:   d108        bne.n 0x60fa
    60e8:   e003        b.n 0x60f2
    60ea:   4908        ldr r1, [pc, #32]   ; (0x610c)
    60ec:   31f0        adds r1, #240   ; 0xf0
    60ee:   2022        movs r0, #34   ; 0x22
    60f0:   e001        b.n 0x60f6
    60f2:   4908        ldr r1, [pc, #32]   ; (0x6114)
    60f4:   2011        movs r0, #17
    60f6:   f000 f85b   bl 0x61b0
    60fa:   f000 f843   bl 0x6184
    60fe:   f7ff f8cd   bl 0x529c
    6102:   e8bd 4010   ldmia.w sp!, {r4, lr}
    6106:   f000 b83d   b.w 0x6184
    610a:   0000        movs r0, r0
    610c:   7bc8        ldrb r0, [r1, #15]
    610e:   0000        movs r0, r0
    6110:   02c0        lsls r0, r0, #11
    6112:   2000        movs r0, #0
    6114:   7cfc        ldrb r4, [r7, #19]
    6116:   0000        movs r0, r0
    6118:   e92d 41f0   stmdb sp!, {r4, r5, r6, r7, r8, lr}
    611c:   0007        movs r7, r0
    611e:   f04f 040a   mov.w r4, #10
    6122:   d003        beq.n 0x612c
    6124:   2000        movs r0, #0
    6126:   4680        mov r8, r0
    6128:   4d14        ldr r5, [pc, #80]   ; (0x617c)
    612a:   e011        b.n 0x6150
    612c:   2001        movs r0, #1
    612e:   e7fa        b.n 0x6126
    6130:   eb05 06c4   add.w r6, r5, r4, lsl #3
    6134:   4642        mov r2, r8
    6136:   88b0        ldrh r0, [r6, #4]
    6138:   b281        uxth r1, r0
    613a:   f855 0034   ldr.w r0, [r5, r4, lsl #3]
    613e:   f7fe fa31   bl 0x45a4
    6142:   88b0        ldrh r0, [r6, #4]
    6144:   2201        movs r2, #1
    6146:   b281        uxth r1, r0
    6148:   f855 0034   ldr.w r0, [r5, r4, lsl #3]
    614c:   f7fe f9f4   bl 0x4538
    6150:   1e64        subs r4, r4, #1
    6152:   b2e4        uxtb r4, r4
    6154:   d2ec        bcs.n 0x6130
    6156:   b147        cbz r7, 0x616a
    6158:   2200        movs r2, #0
    615a:   4c09        ldr r4, [pc, #36]   ; (0x6180)
    615c:   2110        movs r1, #16
    615e:   4620        mov r0, r4
    6160:   f7fe fa02   bl 0x4568
    6164:   b11f        cbz r7, 0x616e
    6166:   2201        movs r2, #1
    6168:   e002        b.n 0x6170
    616a:   2201        movs r2, #1
    616c:   e7f5        b.n 0x615a
    616e:   2200        movs r2, #0
    6170:   4620        mov r0, r4
    6172:   e8bd 41f0   ldmia.w sp!, {r4, r5, r6, r7, r8, lr}
    6176:   2110        movs r1, #16
    6178:   f7fe ba14   b.w 0x45a4

  0x617c:   0x7c68      ; gpio_map_2

    6180:   0000        movs r0, r0
    6182:   400b        ands r3, r1
    6184:   b510        push {r4, lr}
    6186:   4c09        ldr r4, [pc, #36]   ; (0x61ac)
    6188:   22ff        movs r2, #255   ; 0xff
    618a:   1c51        adds r1, r2, #1
    618c:   f2a4 104f   subw r0, r4, #335   ; 0x14f
    6190:   f7fd fa24   bl 0x35dc
    6194:   2050        movs r0, #80   ; 0x50
    6196:   f2a4 114f   subw r1, r4, #335   ; 0x14f
    619a:   e002        b.n 0x61a2
    619c:   f814 2901   ldrb.w r2, [r4], #-1
    61a0:   5488        strb r0, [r1, r2]
    61a2:   1e40        subs r0, r0, #1
    61a4:   b2c0        uxtb r0, r0
    61a6:   d2f9        bcs.n 0x619c
    61a8:   bd10        pop {r4, pc}
    61aa:   0000        movs r0, r0
    61ac:   030f        lsls r7, r1, #12
    61ae:   2000        movs r0, #0
    61b0:   b530        push {r4, r5, lr}
    61b2:   4b06        ldr r3, [pc, #24]   ; (0x61cc)
    61b4:   f5a3 7480   sub.w r4, r3, #256   ; 0x100
    61b8:   e004        b.n 0x61c4
    61ba:   784a        ldrb r2, [r1, #1]
    61bc:   f811 5b02   ldrb.w r5, [r1], #2
    61c0:   5d65        ldrb r5, [r4, r5]
    61c2:   555a        strb r2, [r3, r5]
    61c4:   1e40        subs r0, r0, #1
    61c6:   b2c0        uxtb r0, r0
    61c8:   d2f7        bcs.n 0x61ba
    61ca:   bd30        pop {r4, r5, pc}
    61cc:   02c0        lsls r0, r0, #11
    61ce:   2000        movs r0, #0
    61d0:   e92d 43f0   stmdb sp!, {r4, r5, r6, r7, r8, r9, lr}
    61d4:   f8df 905c   ldr.w r9, [pc, #92]   ; 0x6234
    61d8:   f8df c05c   ldr.w ip, [pc, #92]   ; 0x6238
    61dc:   2500        movs r5, #0
    61de:   f1a9 08d8   sub.w r8, r9, #216   ; 0xd8
    61e2:   4f15        ldr r7, [pc, #84]   ; (0x6238)
    61e4:   2410        movs r4, #16
    61e6:   2300        movs r3, #0
    61e8:   eb09 1085   add.w r0, r9, r5, lsl #6
    61ec:   3744        adds r7, #68   ; 0x44
    61ee:   f81c 1003   ldrb.w r1, [ip, r3]
    61f2:   eb01 01c1   add.w r1, r1, r1, lsl #3
    61f6:   eb08 01c1   add.w r1, r8, r1, lsl #3
    61fa:   194a        adds r2, r1, r5
    61fc:   2109        movs r1, #9
    61fe:   e009        b.n 0x6214
    6200:   f812 6b08   ldrb.w r6, [r2], #8
    6204:   1e64        subs r4, r4, #1
    6206:   f014 04ff   ands.w r4, r4, #255   ; 0xff
    620a:   f837 6016   ldrh.w r6, [r7, r6, lsl #1]
    620e:   8006        strh r6, [r0, #0]
    6210:   d00d        beq.n 0x622e
    6212:   1d00        adds r0, r0, #4
    6214:   1e49        subs r1, r1, #1
    6216:   b2c9        uxtb r1, r1
    6218:   d2f2        bcs.n 0x6200
    621a:   1c5b        adds r3, r3, #1
    621c:   b2db        uxtb r3, r3
    621e:   2b03        cmp r3, #3
    6220:   d3e5        bcc.n 0x61ee
    6222:   1c6d        adds r5, r5, #1
    6224:   b2ed        uxtb r5, r5
    6226:   2d08        cmp r5, #8
    6228:   d3db        bcc.n 0x61e2
    622a:   e8bd 83f0   ldmia.w sp!, {r4, r5, r6, r7, r8, r9, pc}
    622e:   2410        movs r4, #16
    6230:   383a        subs r0, #58   ; 0x3a
    6232:   e7ef        b.n 0x6214
    6234:   0406        lsls r6, r0, #16
    6236:   2000        movs r0, #0
    6238:   7d20        ldrb r0, [r4, #20]
    623a:   0000        movs r0, r0
    623c:   e92d 41f0   stmdb sp!, {r4, r5, r6, r7, r8, lr}
    6240:   2100        movs r1, #0
    6242:   f44f 3200   mov.w r2, #131072   ; 0x20000
    6246:   f44f 20e0   mov.w r0, #458752   ; 0x70000
    624a:   2301        movs r3, #1
    624c:   f7fd fb1c   bl 0x3888
    6250:   f64e 2160   movw r1, #60000   ; 0xea60
    6254:   4824        ldr r0, [pc, #144]   ; (0x62e8)
    6256:   f7fd fa9c   bl 0x3792
    625a:   4c24        ldr r4, [pc, #144]   ; (0x62ec)
    625c:   2102        movs r1, #2
    625e:   4620        mov r0, r4
    6260:   f7fe f99e   bl 0x45a0
    6264:   2201        movs r2, #1
    6266:   2102        movs r1, #2
    6268:   4620        mov r0, r4
    626a:   f7fe f97d   bl 0x4568
    626e:   2201        movs r2, #1
    6270:   2102        movs r1, #2
    6272:   4620        mov r0, r4
    6274:   f7fe f960   bl 0x4538
    6278:   2104        movs r1, #4
    627a:   4620        mov r0, r4
    627c:   f7fe f990   bl 0x45a0
    6280:   4e1b        ldr r6, [pc, #108]   ; (0x62f0)
    6282:   f44f 4580   mov.w r5, #16384   ; 0x4000
    6286:   4629        mov r1, r5
    6288:   4630        mov r0, r6
    628a:   f7fe f989   bl 0x45a0
    628e:   006f        lsls r7, r5, #1
    6290:   4639        mov r1, r7
    6292:   4630        mov r0, r6
    6294:   f7fe f984   bl 0x45a0
    6298:   2201        movs r2, #1
    629a:   2104        movs r1, #4
    629c:   4620        mov r0, r4
    629e:   f7fe f963   bl 0x4568
    62a2:   2201        movs r2, #1
    62a4:   4629        mov r1, r5
    62a6:   4630        mov r0, r6
    62a8:   f7fe f95e   bl 0x4568
    62ac:   2201        movs r2, #1
    62ae:   4639        mov r1, r7
    62b0:   4630        mov r0, r6
    62b2:   f7fe f959   bl 0x4568
    62b6:   2201        movs r2, #1
    62b8:   2104        movs r1, #4
    62ba:   4620        mov r0, r4
    62bc:   f7fe f93c   bl 0x4538
    62c0:   2201        movs r2, #1
    62c2:   4629        mov r1, r5
    62c4:   4630        mov r0, r6
    62c6:   f7fe f937   bl 0x4538
    62ca:   2201        movs r2, #1
    62cc:   4639        mov r1, r7
    62ce:   4630        mov r0, r6
    62d0:   f7fe f932   bl 0x4538
    62d4:   2201        movs r2, #1
    62d6:   4611        mov r1, r2
    62d8:   4806        ldr r0, [pc, #24]   ; (0x62f4)
    62da:   f7fe f93d   bl 0x4558           ; call gpio_set_input_enable
    62de:   e8bd 41f0   ldmia.w sp!, {r4, r5, r6, r7, r8, lr}
    62e2:   f000 bf87   b.w 0x71f4
    62e6:   0000        movs r0, r0
    62e8:   7000        strb r0, [r0, #0]
    62ea:   4007        ands r7, r0
    62ec:   4000        ands r0, r0
    62ee:   400b        ands r3, r1
    62f0:   0000        movs r0, r0
    62f2:   400b        ands r3, r1
    62f4:   2000        movs r0, #0
    62f6:   400b        ands r3, r1

  0x62f8:   b570        push {r4, r5, r6, lr}
    62fa:   4c18        ldr r4, [pc, #96]   ; (0x635c)
    62fc:   2100        movs r1, #0
    62fe:   4620        mov r0, r4
    6300:   f7fd fa3d   bl 0x377e
    6304:   2100        movs r1, #0
    6306:   4620        mov r0, r4
    6308:   f7fd fa2f   bl 0x376a
    630c:   4620        mov r0, r4
    630e:   f7fd fa25   bl 0x375c               ; call bftm_clear(BFTM1)
    6312:   4913        ldr r1, [pc, #76]       ; (0x6360)
    6314:   1520        asrs r0, r4, #20
    6316:   f8c1 0180   str.w r0, [r1, #384]    ; 0x180
    631a:   2100        movs r1, #0
    631c:   4811        ldr r0, [pc, #68]       ; (0x6364)
    631e:   f7fe f946   bl 0x45ae
    6322:   4911        ldr r1, [pc, #68]       ; (0x6368)
    6324:   2002        movs r0, #2
    6326:   6248        str r0, [r1, #36]       ; 0x24
    6328:   4c10        ldr r4, [pc, #64]       ; (0x636c)
    632a:   2508        movs r5, #8
    632c:   e012        b.n 0x6354
    632e:   88a0        ldrh r0, [r4, #4]
    6330:   2200        movs r2, #0
    6332:   b281        uxth r1, r0
    6334:   6820        ldr r0, [r4, #0]
    6336:   f7fe f8ff   bl 0x4538
    633a:   88a0        ldrh r0, [r4, #4]
    633c:   2201        movs r2, #1
    633e:   b281        uxth r1, r0
    6340:   6820        ldr r0, [r4, #0]
    6342:   f7fe f909   bl 0x4558           ; call gpio_set_input_enable
    6346:   88a0        ldrh r0, [r4, #4]
    6348:   2202        movs r2, #2
    634a:   b281        uxth r1, r0
    634c:   6820        ldr r0, [r4, #0]
    634e:   f7fe f913   bl 0x4578           ; call gpio_set_pin_pull_up_down
    6352:   3408        adds r4, #8
    6354:   1e6d        subs r5, r5, #1
    6356:   b2ed        uxtb r5, r5
    6358:   d2e9        bcs.n 0x632e
    635a:   bd70        pop {r4, r5, r6, pc}

  0x635c:   0x40077000  ; BFTM 1
  0x6360:   0xe000e004
  0x6364:   0x4006f000  ; GPTM 1
  0x6368:   0x400b4000  ; GPIO C
  0x636c:   0x7d24      ; gpio_map_1

function_130_16:
  0x6370:   b570        push {r4, r5, r6, lr}
    6372:   4c23        ldr r4, [pc, #140]   ; (0x6400)
    6374:   2508        movs r5, #8
    6376:   e011        b.n 0x639c
    6378:   88a0        ldrh r0, [r4, #4]
    637a:   b281        uxth r1, r0
    637c:   6820        ldr r0, [r4, #0]
    637e:   f7fe f90f   bl 0x45a0
    6382:   88a0        ldrh r0, [r4, #4]
    6384:   2201        movs r2, #1
    6386:   b281        uxth r1, r0
    6388:   6820        ldr r0, [r4, #0]
    638a:   f7fe f8ed   bl 0x4568
    638e:   88a0        ldrh r0, [r4, #4]
    6390:   2201        movs r2, #1
    6392:   b281        uxth r1, r0
    6394:   6820        ldr r0, [r4, #0]
    6396:   f7fe f8cf   bl 0x4538
    639a:   3408        adds r4, #8
    639c:   1e6d        subs r5, r5, #1
    639e:   b2ed        uxtb r5, r5
    63a0:   d2ea        bcs.n 0x6378
    63a2:   4918        ldr r1, [pc, #96]   ; (0x6404)
    63a4:   2002        movs r0, #2
    63a6:   6288        str r0, [r1, #40]   ; 0x28
    63a8:   0201        lsls r1, r0, #8
    63aa:   4817        ldr r0, [pc, #92]   ; (0x6408)
    63ac:   f7fd f91d   bl 0x35ea
    63b0:   4916        ldr r1, [pc, #88]   ; (0x640c)
    63b2:   2000        movs r0, #0
    63b4:   7048        strb r0, [r1, #1]
    63b6:   2064        movs r0, #100   ; 0x64
    63b8:   f7fd fa04   bl 0x37c4
    63bc:   f000 f854   bl 0x6468
    63c0:   2002        movs r0, #2
    63c2:   f000 ff41   bl 0x7248
    63c6:   4912        ldr r1, [pc, #72]   ; (0x6410)
    63c8:   f44f 4000   mov.w r0, #32768   ; 0x8000
    63cc:   6248        str r0, [r1, #36]   ; 0x24
    63ce:   2101        movs r1, #1
    63d0:   4810        ldr r0, [pc, #64]   ; (0x6414)
    63d2:   f7fe f8ec   bl 0x45ae
    63d6:   4c10        ldr r4, [pc, #64]   ; (0x6418)
    63d8:   2100        movs r1, #0
    63da:   4620        mov r0, r4
    63dc:   f7fd f9db   bl 0x3796
    63e0:   4620        mov r0, r4
    63e2:   f7fd f9bb   bl 0x375c           ; call bftm_clear(BFTM1)
    63e6:   2101        movs r1, #1
    63e8:   4620        mov r0, r4
    63ea:   f7fd f9be   bl 0x376a
    63ee:   2101        movs r1, #1
    63f0:   4620        mov r0, r4
    63f2:   f7fd f9c4   bl 0x377e
    63f6:   4909        ldr r1, [pc, #36]   ; (0x641c)
    63f8:   1520        asrs r0, r4, #20
    63fa:   f8c1 0100   str.w r0, [r1, #256]   ; 0x100
    63fe:   bd70        pop {r4, r5, r6, pc}

  0x6400:   0x7d24      ; gpio_map_1
  0x6404:   0x400b4000  ; GPIO B
  0x6408:   0x20000406
  0x640c:   0x20000020
  0x6410:   0x400b0000  ; GPIO A
  0x6414:   0x4006f000  ; GPTM 1
  0x6418:   0x40077000  ; BFTM 1

    641c:   e004        b.n 0x6428
    641e:   e000        b.n 0x6422
    6420:   b530        push {r4, r5, lr}
    6422:   2012        movs r0, #18
    6424:   f000 ff10   bl 0x7248
    6428:   210a        movs r1, #10
    642a:   f44f 7040   mov.w r0, #768   ; 0x300
    642e:   f000 ff23   bl 0x7278
    6432:   2102        movs r1, #2
    6434:   2000        movs r0, #0
    6436:   f000 ff1f   bl 0x7278
    643a:   4c09        ldr r4, [pc, #36]   ; (0x6460)
    643c:   f44f 4080   mov.w r0, #16384   ; 0x4000
    6440:   62a0        str r0, [r4, #40]   ; 0x28
    6442:   0045        lsls r5, r0, #1
    6444:   6265        str r5, [r4, #36]   ; 0x24
    6446:   2108        movs r1, #8
    6448:   f44f 6040   mov.w r0, #3072   ; 0xc00
    644c:   f000 ff14   bl 0x7278
    6450:   4904        ldr r1, [pc, #16]   ; (0x6464)
    6452:   2004        movs r0, #4
    6454:   6248        str r0, [r1, #36]   ; 0x24
    6456:   62a5        str r5, [r4, #40]   ; 0x28
    6458:   bf00        nop
    645a:   bf00        nop
    645c:   6265        str r5, [r4, #36]   ; 0x24
    645e:   bd30        pop {r4, r5, pc}
    6460:   0000        movs r0, r0
    6462:   400b        ands r3, r1
    6464:   4000        ands r0, r0
    6466:   400b        ands r3, r1
    6468:   e92d 4ff0   stmdb sp!, {r4, r5, r6, r7, r8, r9, sl, fp, lr}
    646c:   491e        ldr r1, [pc, #120]   ; (0x64e8)
    646e:   481d        ldr r0, [pc, #116]   ; (0x64e4)
    6470:   2510        movs r5, #16
    6472:   784a        ldrb r2, [r1, #1]
    6474:   2704        movs r7, #4
    6476:   eb00 1482   add.w r4, r0, r2, lsl #6
    647a:   7808        ldrb r0, [r1, #0]
    647c:   f8df a06c   ldr.w sl, [pc, #108]   ; 0x64ec
    6480:   4e1b        ldr r6, [pc, #108]   ; (0x64f0)
    6482:   f44f 4b80   mov.w fp, #16384   ; 0x4000
    6486:   343e        adds r4, #62   ; 0x3e
    6488:   b130        cbz r0, 0x6498
    648a:   1e40        subs r0, r0, #1
    648c:   f010 00ff   ands.w r0, r0, #255   ; 0xff
    6490:   7008        strb r0, [r1, #0]
    6492:   d101        bne.n 0x6498
    6494:   f7ff ffc4   bl 0x6420
    6498:   46b9        mov r9, r7
    649a:   1e6d        subs r5, r5, #1
    649c:   b2ed        uxtb r5, r5
    649e:   d31c        bcc.n 0x64da
    64a0:   f44f 4800   mov.w r8, #32768   ; 0x8000
    64a4:   f8c6 8028   str.w r8, [r6, #40]   ; 0x28
    64a8:   8820        ldrh r0, [r4, #0]
    64aa:   1ea7        subs r7, r4, #2
    64ac:   210a        movs r1, #10
    64ae:   f000 fee3   bl 0x7278
    64b2:   8838        ldrh r0, [r7, #0]
    64b4:   2109        movs r1, #9
    64b6:   f3c0 1780   ubfx r7, r0, #6, #1
    64ba:   1f24        subs r4, r4, #4
    64bc:   f000 fedc   bl 0x7278
    64c0:   4658        mov r0, fp
    64c2:   f8c6 b028   str.w fp, [r6, #40]   ; 0x28
    64c6:   f8c6 8024   str.w r8, [r6, #36]   ; 0x24
    64ca:   4649        mov r1, r9
    64cc:   4652        mov r2, sl
    64ce:   b10f        cbz r7, 0x64d4
    64d0:   6251        str r1, [r2, #36]   ; 0x24
    64d2:   e000        b.n 0x64d6
    64d4:   6291        str r1, [r2, #40]   ; 0x28
    64d6:   6270        str r0, [r6, #36]   ; 0x24
    64d8:   e7df        b.n 0x649a
    64da:   f8ca 9024   str.w r9, [sl, #36]   ; 0x24
    64de:   e8bd 8ff0   ldmia.w sp!, {r4, r5, r6, r7, r8, r9, sl, fp, pc}
    64e2:   0000        movs r0, r0
    64e4:   0406        lsls r6, r0, #16
    64e6:   2000        movs r0, #0
    64e8:   0020        movs r0, r4
    64ea:   2000        movs r0, #0
    64ec:   4000        ands r0, r0
    64ee:   400b        ands r3, r1
    64f0:   0000        movs r0, r0
    64f2:   400b        ands r3, r1
    64f4:   2900        cmp r1, #0
    64f6:   6801        ldr r1, [r0, #0]
    64f8:   d002        beq.n 0x6500
    64fa:   f041 0101   orr.w r1, r1, #1
    64fe:   e001        b.n 0x6504
    6500:   f021 0101   bic.w r1, r1, #1
    6504:   6001        str r1, [r0, #0]
    6506:   4770        bx lr

function_e_54:
  0x6508:   b530        push {r4, r5, lr}
    650a:   e9d1 4305   ldrd r4, r3, [r1, #20]
    650e:   b1e4        cbz r4, 0x654a
    6510:   f44f 7200   mov.w r2, #512   ; 0x200
    6514:   40da        lsrs r2, r3
    6516:   4322        orrs r2, r4
    6518:   688c        ldr r4, [r1, #8]
    651a:   680b        ldr r3, [r1, #0]
    651c:   4323        orrs r3, r4
    651e:   e9d1 4503   ldrd r4, r5, [r1, #12]
    6522:   432c        orrs r4, r5
    6524:   4323        orrs r3, r4
    6526:   69cc        ldr r4, [r1, #28]
    6528:   4323        orrs r3, r4
    652a:   4313        orrs r3, r2
    652c:   6043        str r3, [r0, #4]
    652e:   6a4b        ldr r3, [r1, #36]   ; 0x24
    6530:   684a        ldr r2, [r1, #4]
    6532:   431a        orrs r2, r3
    6534:   6a0b        ldr r3, [r1, #32]
    6536:   ea42 1203   orr.w r2, r2, r3, lsl #4
    653a:   6182        str r2, [r0, #24]
    653c:   6a89        ldr r1, [r1, #40]   ; 0x28
    653e:   f04f 32ff   mov.w r2, #4294967295   ; 0xffffffff
    6542:   eb02 0151   add.w r1, r2, r1, lsr #1
    6546:   60c1        str r1, [r0, #12]
    6548:   bd30        pop {r4, r5, pc}
    654a:   f44f 7280   mov.w r2, #256   ; 0x100
    654e:   409a        lsls r2, r3
    6550:   e7e2        b.n 0x6518

    6552:   2900        cmp r1, #0
    6554:   6801        ldr r1, [r0, #0]
    6556:   d002        beq.n 0x655e
    6558:   f041 0108   orr.w r1, r1, #8
    655c:   e001        b.n 0x6562
    655e:   f021 0108   bic.w r1, r1, #8
    6562:   6001        str r1, [r0, #0]
    6564:   4770        bx lr

  0x6566:   b570        push {r4, r5, r6, lr}
    6568:   4605        mov r5, r0
    656a:   f7fd fdbf   bl 0x40ec
    656e:   f360 0407   bfi r4, r0, #0, #8
    6572:   b18d        cbz r5, 0x6598
    6574:   2d01        cmp r5, #1
    6576:   d005        beq.n 0x6584
    6578:   2d02        cmp r5, #2
    657a:   d106        bne.n 0x658a
    657c:   b2a0        uxth r0, r4
    657e:   f040 0402   orr.w r4, r0, #2
    6582:   e002        b.n 0x658a
    6584:   b2a0        uxth r0, r4
    6586:   f020 0402   bic.w r4, r0, #2
    658a:   b2e0        uxtb r0, r4
    658c:   f7fd ffc0   bl 0x4510
    6590:   f7fd fdac   bl 0x40ec
    6594:   f360 0407   bfi r4, r0, #0, #8
    6598:   07a0        lsls r0, r4, #30
    659a:   d501        bpl.n 0x65a0
    659c:   2001        movs r0, #1
    659e:   bd70        pop {r4, r5, r6, pc}
  0x65a0:   2000        movs r0, #0
    65a2:   bd70        pop {r4, r5, r6, pc}

clock_init:
  0x65a4:   4814        ldr r0, [pc, #80]   ; (0x65f8)
    65a6:   2101        movs r1, #1
    65a8:   f8c0 1300   str.w r1, [r0, #768]   ; 0x300
    65ac:   4a13        ldr r2, [pc, #76]   ; (0x65fc)
    65ae:   f8c2 10a8   str.w r1, [r2, #168]   ; 0xa8
    65b2:   f8d2 3108   ldr.w r3, [r2, #264]   ; 0x108
    65b6:   2b00        cmp r3, #0
    65b8:   d0fb        beq.n 0x65b2
    65ba:   2300        movs r3, #0
    65bc:   6213        str r3, [r2, #32]

    65be:   f04f 6310   mov.w r3, #150994944   ; 0x9000000
    65c2:   6183        str r3, [r0, #24]
    65c4:   f8c2 10a4   str.w r1, [r2, #164]   ; 0xa4
    65c8:   f8d2 3104   ldr.w r3, [r2, #260]   ; 0x104
    65cc:   2b00        cmp r3, #0
    65ce:   d0fb        beq.n 0x65c8

    65d0:   4a0b        ldr r2, [pc, #44]   ; (0x6600)
    65d2:   f8d2 3200   ldr.w r3, [r2, #512]   ; 0x200
    65d6:   f023 0307   bic.w r3, r3, #7
    65da:   1cdb        adds r3, r3, #3
    65dc:   f8c2 3200   str.w r3, [r2, #512]   ; 0x200

    65e0:   6201        str r1, [r0, #32]

    65e2:   6842        ldr r2, [r0, #4]
    65e4:   f022 0203   bic.w r2, r2, #3
    65e8:   1c52        adds r2, r2, #1
    65ea:   6042        str r2, [r0, #4]
    65ec:   6b42        ldr r2, [r0, #52]   ; 0x34
    65ee:   ebb1 7f92   cmp.w r1, r2, lsr #30
    65f2:   d1fb        bne.n 0x65ec
    65f4:   4770        bx lr
    65f6:   0000        movs r0, r0

  0x65f8:   0x40088000  ; CKCU
  0x65fc:   0x43100000  ; in APB/AHB bit band alias
  0x6600:   0x40080000  ; FMC.CFCR

    6604:   4806        ldr r0, [pc, #24]   ; (0x6620)
    6606:   2100        movs r1, #0
    6608:   f100 0208   add.w r2, r0, #8
    660c:   61c1        str r1, [r0, #28]
    660e:   6201        str r1, [r0, #32]
    6610:   7051        strb r1, [r2, #1]
    6612:   f8c0 1015   str.w r1, [r0, #21]
    6616:   211d        movs r1, #29
    6618:   4802        ldr r0, [pc, #8]   ; (0x6624)
    661a:   f7fc bfe6   b.w 0x35ea
    661e:   0000        movs r0, r0
    6620:   0034        movs r4, r6
    6622:   2000        movs r0, #0
    6624:   06d6        lsls r6, r2, #27
    6626:   2000        movs r0, #0
    6628:   b510        push {r4, lr}
    662a:   4808        ldr r0, [pc, #32]   ; (0x664c)
    662c:   4907        ldr r1, [pc, #28]   ; (0x664c)
    662e:   2401        movs r4, #1
    6630:   7004        strb r4, [r0, #0]
    6632:   310c        adds r1, #12
    6634:   2002        movs r0, #2
    6636:   7008        strb r0, [r1, #0]
    6638:   4905        ldr r1, [pc, #20]   ; (0x6650)
    663a:   2004        movs r0, #4
    663c:   7008        strb r0, [r1, #0]
    663e:   f7ff ffe1   bl 0x6604
    6642:   4802        ldr r0, [pc, #8]   ; (0x664c)
    6644:   3808        subs r0, #8
    6646:   7144        strb r4, [r0, #5]
    6648:   bd10        pop {r4, pc}
    664a:   0000        movs r0, r0
    664c:   003c        movs r4, r7
    664e:   2000        movs r0, #0
    6650:   06d4        lsls r4, r2, #27
    6652:   2000        movs r0, #0
    6654:   f890 0034   ldrb.w r0, [r0, #52]   ; 0x34
    6658:   f3c0 0040   ubfx r0, r0, #1, #1
    665c:   4770        bx lr
    665e:   0000        movs r0, r0

usb_entry:
    ; r0 =
    ; r1 = N/A
    ; r2 = N/A
  0x6660:   e92d 41f0   stmdb sp!, {r4, r5, r6, r7, r8, lr}
    6664:   4604        mov r4, r0
    6666:   f000 fa1d   bl 0x6aa4               ; call usb_get_intr_flags()
    666a:   4605        mov r5, r0
    666c:   4e56        ldr r6, [pc, #344]   ; (0x67c8)
    666e:   0780        lsls r0, r0, #30
    6670:   d505        bpl.n 0x667e
    6672:   6870        ldr r0, [r6, #4]
    6674:   b100        cbz r0, 0x6678
    6676:   4780        blx r0

  0x6678:   2002        movs r0, #2
    667a:   f000 f8c1   bl 0x6800               ; call usb_set_intr_flags(2)

  0x667e:   06e8        lsls r0, r5, #27
    6680:   d50f        bpl.n 0x66a2

    6682:   2010        movs r0, #16
    6684:   f000 f8bc   bl 0x6800               ; call usb_set_intr_flags(0x10)

    6688:   f894 0032   ldrb.w r0, [r4, #50]   ; 0x32
    668c:   2802        cmp r0, #2
    668e:   d308        bcc.n 0x66a2

    6690:   f000 fa12   bl 0x6ab8               ; call usb_set_lpmode_pdwn()

    6694:   f894 0032   ldrb.w r0, [r4, #50]   ; 0x32
    6698:   f884 0033   strb.w r0, [r4, #51]   ; 0x33
    669c:   2003        movs r0, #3
    669e:   f884 0032   strb.w r0, [r4, #50]   ; 0x32
  0x66a2:   0768        lsls r0, r5, #29
    66a4:   f04f 0700   mov.w r7, #0
    66a8:   d521        bpl.n 0x66ee
    66aa:   1e78        subs r0, r7, #1
    66ac:   6220        str r0, [r4, #32]
    66ae:   f884 7030   strb.w r7, [r4, #48]   ; 0x30
    66b2:   f884 7031   strb.w r7, [r4, #49]   ; 0x31
    66b6:   f894 0034   ldrb.w r0, [r4, #52]   ; 0x34
    66ba:   f020 0002   bic.w r0, r0, #2
    66be:   f884 0034   strb.w r0, [r4, #52]   ; 0x34
    66c2:   2004        movs r0, #4
    66c4:   f884 0032   strb.w r0, [r4, #50]   ; 0x32
    66c8:   63a7        str r7, [r4, #56]   ; 0x38
    66ca:   f000 f8f1   bl 0x68b0               ; call usb_ckcu_voodoo()
    66ce:   f000 f9fb   bl 0x6ac8
    66d2:   493e        ldr r1, [pc, #248]   ; (0x67cc)
    66d4:   2000        movs r0, #0
    66d6:   f000 f949   bl 0x696c
    66da:   483c        ldr r0, [pc, #240]   ; (0x67cc)
    66dc:   6800        ldr r0, [r0, #0]
    66de:   f000 f9c9   bl 0x6a74
    66e2:   6830        ldr r0, [r6, #0]
    66e4:   b100        cbz r0, 0x66e8
    66e6:   4780        blx r0

    66e8:   2004        movs r0, #4
    66ea:   f000 f889   bl 0x6800               ; call usb_set_intr_flags(4)

  0x66ee:   0728        lsls r0, r5, #28
    66f0:   d508        bpl.n 0x6704
    66f2:   f000 f9e9   bl 0x6ac8
    66f6:   f894 0033   ldrb.w r0, [r4, #51]   ; 0x33
    66fa:   f884 0032   strb.w r0, [r4, #50]   ; 0x32

    66fe:   2008        movs r0, #8
    6700:   f000 f87e   bl 0x6800               ; call usb_set_intr_flags(8)

    6704:   05e8        lsls r0, r5, #23
    6706:   f44f 7880   mov.w r8, #256   ; 0x100
    670a:   d53d        bpl.n 0x6788

    670c:   2000        movs r0, #0
    670e:   f000 f91d   bl 0x694c

    6712:   4605        mov r5, r0
    6714:   0580        lsls r0, r0, #22
    6716:   d50a        bpl.n 0x672e

    6718:   4620        mov r0, r4
    671a:   f000 fa65   bl 0x6be8
    671e:   4620        mov r0, r4
    6720:   f000 ff1e   bl 0x7560

    6724:   f44f 7100   mov.w r1, #512
    6728:   2000        movs r0, #0
    672a:   f000 f8d7   bl 0x68dc               ; call usb_set_ep_intr(0, 0x200)

    672e:   07a8        lsls r0, r5, #30
    6730:   d51e        bpl.n 0x6770

    6732:   2102        movs r1, #2
    6734:   2000        movs r0, #0
    6736:   f000 f8d1   bl 0x68dc               ; call usb_set_ep_intr(0, 2)

    673a:   6a20        ldr r0, [r4, #32]
    673c:   1c40        adds r0, r0, #1
    673e:   d017        beq.n 0x6770
    6740:   f894 0024   ldrb.w r0, [r4, #36]   ; 0x24
    6744:   2802        cmp r0, #2
    6746:   d113        bne.n 0x6770

    6748:   2240        movs r2, #64   ; 0x40
    674a:   2000        movs r0, #0
    674c:   69e1        ldr r1, [r4, #28]
    674e:   f000 f93d   bl 0x69cc               ; call usb_recv(0, , 64)

    6752:   69e1        ldr r1, [r4, #28]
    6754:   4401        add r1, r0
    6756:   61e1        str r1, [r4, #28]
    6758:   6a21        ldr r1, [r4, #32]
    675a:   1a08        subs r0, r1, r0
    675c:   6220        str r0, [r4, #32]
    675e:   d107        bne.n 0x6770
    6760:   2001        movs r0, #1
    6762:   f884 0024   strb.w r0, [r4, #36]   ; 0x24
    6766:   6aa1        ldr r1, [r4, #40]   ; 0x28
    6768:   b111        cbz r1, 0x6770
    676a:   6ae0        ldr r0, [r4, #44]   ; 0x2c
    676c:   4788        blx r1
    676e:   62a7        str r7, [r4, #40]   ; 0x28
    6770:   06e8        lsls r0, r5, #27
    6772:   d506        bpl.n 0x6782
    6774:   4620        mov r0, r4
    6776:   f000 fed1   bl 0x751c
    677a:   2110        movs r1, #16
    677c:   2000        movs r0, #0
    677e:   f000 f8ad   bl 0x68dc
    6782:   4640        mov r0, r8
    6784:   f000 f83c   bl 0x6800
    6788:   4644        mov r4, r8
  0x678a:   f000 f98b   bl 0x6aa4               ; call usb_get_intr_flags()
    678e:   f000 f979   bl 0x6a84               ; call function_e_75
    6792:   4605        mov r5, r0
    6794:   1c40        adds r0, r0, #1
    6796:   d014        beq.n 0x67c2
    6798:   4628        mov r0, r5
    679a:   f000 f8d7   bl 0x694c               ; call usb_get_ep_intr
    679e:   f010 0f12   tst.w r0, #18
    67a2:   d0f2        beq.n 0x678a

    67a4:   2112        movs r1, #18
    67a6:   4628        mov r0, r5
    67a8:   f000 f898   bl 0x68dc               ; call usb_set_ep_intr(r5, 0x12)

    67ac:   fa04 f005   lsl.w r0, r4, r5
    67b0:   f000 f826   bl 0x6800

    67b4:   69b0        ldr r0, [r6, #24]
    67b6:   2800        cmp r0, #0
    67b8:   d0e7        beq.n 0x678a
    67ba:   4601        mov r1, r0
    67bc:   4628        mov r0, r5
    67be:   4788        blx r1
    67c0:   e7e3        b.n 0x678a
    67c2:   e8bd 81f0   ldmia.w sp!, {r4, r5, r6, r7, r8, pc}
    67c6:   0000

  0x67c8:   0x80f8
  0x67cc:   0x20000168

  0x67d0:   2102        movs r1, #2
    67d2:   f880 1032   strb.w r1, [r0, #50]   ; 0x32
    67d6:   4801        ldr r0, [pc, #4]   ; (0x67dc)
    67d8:   f000 b96c   b.w 0x6ab4

  0x67dc:   0x20000168

  0x67e0:   f890 0032   ldrb.w r0, [r0, #50]   ; 0x32
    67e4:   2803        cmp r0, #3
    67e6:   d001        beq.n 0x67ec
    67e8:   2000        movs r0, #0
    67ea:   4770        bx lr
    67ec:   2001        movs r0, #1
    67ee:   4770        bx lr
    67f0:   b510        push {r4, lr}
    67f2:   f000 f969   bl 0x6ac8
    67f6:   e8bd 4010   ldmia.w sp!, {r4, lr}
    67fa:   f000 b9fd   b.w 0x6bf8
    67fe:   0000

usb_set_intr_flags:
    ; r0 = new value of USBISR
    ; Set USBISR to r0
  0x6800:   4901        ldr r1, [pc, #4]   ; (0x6808)
    6802:   6088        str r0, [r1, #8]
    6804:   4770        bx lr
    6806:   0000

  0x6808:   0x400a8000

usb_init:
  0x680c:   b510        push {r4, lr}

    ; Enable backup domain register access
    ; Enable USB clock
    680e:   2100        movs r1, #0
    6810:   f44f 6080   mov.w r0, #1024   ; 0x400
    6814:   2240        movs r2, #64   ; 0x40
    6816:   2301        movs r3, #1
    6818:   f7fd f836   bl 0x3888               ; call ckcu_clocks_enable(0x400, 0, 0x40, 1)

    ; Set USB clock speed
    681c:   2002        movs r0, #2
    681e:   f7fd f845   bl 0x38ac               ; call ckcu_set_usb_prescaler(2)

    6822:   4c12        ldr r4, [pc, #72]   ; (0x686c)
    6824:   4810        ldr r0, [pc, #64]   ; (0x6868)
    6826:   60a0        str r0, [r4, #8]
    6828:   385c        subs r0, #92   ; 0x5c
    682a:   60e0        str r0, [r4, #12]
    682c:   38f4        subs r0, #244   ; 0xf4
    682e:   6120        str r0, [r4, #16]
    6830:   2002        movs r0, #2
    6832:   6160        str r0, [r4, #20]

    6834:   f7ff fef8   bl 0x6628

    6838:   4620        mov r0, r4
    683a:   f7ff ffc9   bl 0x67d0

    ; Enable interrupt 53 (USB)
    ; Write 0x200000 to 0xe000e104
    ; Set NVIC_ISER1 to 0x200000
    683e:   490c        ldr r1, [pc, #48]       ; (0x6870)
    6840:   f44f 1000   mov.w r0, #2097152      ; 0x200000
    6844:   f8c1 0100   str.w r0, [r1, #256]    ; 0x100

    6848:   2001        movs r0, #1
    684a:   f000 f823   bl 0x6894

    684e:   20fa        movs r0, #250   ; 0xfa
    6850:   f7fc ffb8   bl 0x37c4

    6854:   f894 0034   ldrb.w r0, [r4, #52]   ; 0x34
    6858:   e8bd 4010   ldmia.w sp!, {r4, lr}
    685c:   f000 0101   and.w r1, r0, #1
    6860:   4804        ldr r0, [pc, #16]   ; (0x6874)
    6862:   f000 b939   b.w 0x6ad8
    6866:   0000

  0x6868:   0x80bc      ; usb_device_desc
  0x686c:   0x200006f4
  0x6870:   0xe000e004
  0x6874:   0x20000168

usb_dp_wake_up:
  0x6878:   4905        ldr r1, [pc, #20]   ; (0x6890)
    687a:   2801        cmp r0, #1
    687c:   6808        ldr r0, [r1, #0]
    687e:   d003        beq.n 0x6888
    6880:   f420 6000   bic.w r0, r0, #2048   ; 0x800
    6884:   6008        str r0, [r1, #0]
    6886:   4770        bx lr
  0x6888:   f440 6000   orr.w r0, r0, #2048   ; 0x800
    688c:   e7fa        b.n 0x6884
    688e:   0000

  0x6890:   0x400a8000  ; USB

usb_dp_pull_up:
    ; r0 = 0/1 disable/enable
    ; Set USBCSR.DPPUEN
    : Enable/Disable USB DP pull up
  0x6894:   4905        ldr r1, [pc, #20]   ; (0x68ac)
    6896:   2801        cmp r0, #1
    6898:   6808        ldr r0, [r1, #0]
    689a:   d003        beq.n 0x68a4
    689c:   f420 6080   bic.w r0, r0, #1024   ; 0x400
    68a0:   6008        str r0, [r1, #0]
    68a2:   4770        bx lr
  0x68a4:   f440 6080   orr.w r0, r0, #1024   ; 0x400
    68a8:   e7fa        b.n 0x68a0
    68aa:   0000

  0x68ac:   0x400a8000  ; USB

usb_ckcu_voodoo:
  0x68b0:   2100        movs r1, #0
    68b2:   2020        movs r0, #32
    68b4:   2301        movs r3, #1
    68b6:   460a        mov r2, r1
    68b8:   f7ff bae6   b.w 0x5e88          ; call ckcu_voodoo1(0x20, 0, 0, 1)

usb_ep_data_toggle:
    ; r0 = ep #
    ; set DTGRX and DTGTX
  0x68bc:   b510        push {r4, lr}
    68be:   f000 ff61   bl 0x7784           ; call usb_get_ep_reg
    68c2:   6801        ldr r1, [r0, #0]
    68c4:   f001 0109   and.w r1, r1, #9
    68c8:   6001        str r1, [r0, #0]
    68ca:   bd10        pop {r4, pc}

usb_ep_stall:
    ; r0 = ep #
    ; set STLRX and STLTX
  0x68cc:   b510        push {r4, lr}
    68ce:   f000 ff59   bl 0x7784           ; call usb_get_ep_reg
    68d2:   6801        ldr r1, [r0, #0]
    68d4:   f001 0124   and.w r1, r1, #36   ; 0x24
    68d8:   6001        str r1, [r0, #0]
    68da:   bd10        pop {r4, pc}

usb_set_ep_intr:
    ; r0 = ep #
    ; r1 = ep ISR flags
  0x68dc:   b510        push {r4, lr}
    68de:   460c        mov r4, r1
    68e0:   f000 ff50   bl 0x7784           ; call usb_get_ep_reg
    68e4:   6084        str r4, [r0, #8]
    68e6:   bd10        pop {r4, pc}

usb_get_ep_buff:
    ; r0 = ep #
  0x68e8:   b510        push {r4, lr}
    68ea:   f000 ff4b   bl 0x7784           ; call usb_get_ep_reg
    68ee:   6900        ldr r0, [r0, #16]
    68f0:   4902        ldr r1, [pc, #8]   ; (0x68fc)
    68f2:   f3c0 0009   ubfx r0, r0, #0, #10
    68f6:   4408        add r0, r1
    68f8:   bd10        pop {r4, pc}
    68fa:   0000

  0x68fc:   0x400aa000  ; USB SRAM

usb_get_ep_buff_end:
    ; r0 = ep #
  0x6900:   b570        push {r4, r5, r6, lr}
    6902:   4605        mov r5, r0
    6904:   f000 ff3e   bl 0x7784               ; call usb_get_ep_reg
    6908:   4604        mov r4, r0
    690a:   4628        mov r0, r5
    690c:   f000 f80a   bl 0x6924               ; call usb_get_ep_len
    6910:   6921        ldr r1, [r4, #16]
    6912:   f3c1 0109   ubfx r1, r1, #0, #10    ; EPBUFA
    6916:   4408        add r0, r1
    6918:   4901        ldr r1, [pc, #4]        ; (0x6920)
    691a:   4408        add r0, r1
    691c:   bd70        pop {r4, r5, r6, pc}
    691e:   0000

  0x6920:   0x400aa000  ; USB SRAM

usb_get_ep_len:
  0x6924:   b510        push {r4, lr}
    6926:   f000 ff2d   bl 0x7784           ; call usb_get_ep_reg
    692a:   6900        ldr r0, [r0, #16]
    692c:   f3c0 2089   ubfx r0, r0, #10, #10
    6930:   bd10        pop {r4, pc}

function_e_67:
  0x6932:   b510        push {r4, lr}
    6934:   f000 ff26   bl 0x7784           ; call usb_get_ep_reg
    6938:   6901        ldr r1, [r0, #16]
    693a:   6800        ldr r0, [r0, #0]
    693c:   00c9        lsls r1, r1, #3
    693e:   d502        bpl.n 0x6946
    6940:   f3c0 0080   ubfx r0, r0, #2, #1
    6944:   bd10        pop {r4, pc}
    6946:   f3c0 1040   ubfx r0, r0, #5, #1
    694a:   bd10        pop {r4, pc}

usb_get_ep_intr:
  0x694c:   b510        push {r4, lr}
    694e:   f000 ff19   bl 0x7784           ; call usb_get_ep_reg
    6952:   6841        ldr r1, [r0, #4]    ; IER
    6954:   6880        ldr r0, [r0, #8]    ; ISR
    6956:   4008        ands r0, r1
    6958:   bd10        pop {r4, pc}

usb_get_ep_tcnt:
    ; r0 = ep #
    ; r1 = right shift
  0x695a:   b510        push {r4, lr}
    695c:   460c        mov r4, r1
    695e:   f000 ff11   bl 0x7784           ; call usb_get_ep_reg
    6962:   68c0        ldr r0, [r0, #12]
    6964:   40e0        lsrs r0, r4
    6966:   f3c0 0008   ubfx r0, r0, #0, #9
    696a:   bd10        pop {r4, pc}

function_e_70:
  0x696c:   b570        push {r4, r5, r6, lr}
    696e:   460c        mov r4, r1
    6970:   4605        mov r5, r0
    6972:   f000 ff07   bl 0x7784           ; call usb_get_ep_reg
    6976:   eb04 01c5   add.w r1, r4, r5, lsl #3
    697a:   684a        ldr r2, [r1, #4]
    697c:   6102        str r2, [r0, #16]
    697e:   6889        ldr r1, [r1, #8]
    6980:   6041        str r1, [r0, #4]
    6982:   f04f 31ff   mov.w r1, #4294967295   ; 0xffffffff
    6986:   6081        str r1, [r0, #8]
    6988:   4628        mov r0, r5
    698a:   e8bd 4070   ldmia.w sp!, {r4, r5, r6, lr}

    ; ????
  0x698e:   f000 b835   b.w 0x69fc          ; call function_e_71

usb_read_ep_buff:
    ; r0 = ep #
    ; r1 = ptr
    ; r2 = len
    ; return tcnt
  0x6992:   e92d 41f0   stmdb sp!, {r4, r5, r6, r7, r8, lr}
    6996:   4616        mov r6, r2
    6998:   460f        mov r7, r1
    699a:   0005        movs r5, r0
    699c:   d011        beq.n 0x69c2        ; if ep # == 0

    699e:   2100        movs r1, #0
  0x69a0:   f7ff ffdb   bl 0x695a           ; call usb_get_ep_tcnt(ep #, 0)
    69a4:   4604        mov r4, r0

    69a6:   42b0        cmp r0, r6
    69a8:   d808        bhi.n 0x69bc        ; return if tcnt > len

    69aa:   4628        mov r0, r5
    69ac:   b15d        cbz r5, 0x69c6      ; if ep # == 0
    69ae:   f7ff ff9b   bl 0x68e8           ; call usb_get_ep_buff(ep #)

  0x69b2:   1ce1        adds r1, r4, #3
    69b4:   088a        lsrs r2, r1, #2     ; r2 = (r4 + 3) / 4
    69b6:   4639        mov r1, r7
    69b8:   f000 fedc   bl 0x7774           ; call copy_words(ep buff, ptr, r2)

  0x69bc:   4620        mov r0, r4
    69be:   e8bd 81f0   ldmia.w sp!, {r4, r5, r6, r7, r8, pc}

  0x69c2:   2110        movs r1, #16
    69c4:   e7ec        b.n 0x69a0

  0x69c6:   f7ff ff9b   bl 0x6900           ; call usb_get_ep_buff_end
    69ca:   e7f2        b.n 0x69b2

usb_recv:
    ; r0 = ep #
    ; r1 = ptr
    ; r2 = len
  0x69cc:   e92d 41f0   stmdb sp!, {r4, r5, r6, r7, r8, lr}
    69d0:   4615        mov r5, r2
    69d2:   460e        mov r6, r1
    69d4:   4607        mov r7, r0

    69d6:   f000 fed5   bl 0x7784           ; call usb_get_ep_reg(ep)
    69da:   4604        mov r4, r0
    69dc:   2000        movs r0, #0
    69de:   b13d        cbz r5, 0x69f0

    69e0:   462a        mov r2, r5
    69e2:   4631        mov r1, r6
    69e4:   4638        mov r0, r7
    69e6:   f7ff ffd4   bl 0x6992           ; call usb_read_ep_buff(ep #, ptr, len)

    69ea:   b908        cbnz r0, 0x69f0     ; if r0 != 0
    69ec:   2d00        cmp r5, #0
    69ee:   d103        bne.n 0x69f8        ; return if r5 != 0

    ; Toggle NAKRX
  0x69f0:   6821        ldr r1, [r4, #0]
    69f2:   f001 0110   and.w r1, r1, #16   ; r1 &= 0x10
    69f6:   6021        str r1, [r4, #0]

  0x69f8:   e8bd 81f0   ldmia.w sp!, {r4, r5, r6, r7, r8, pc}

function_e_71:
  0x69fc:   b510        push {r4, lr}
    69fe:   f000 fec1   bl 0x7784           ; call usb_get_ep_reg
    6a02:   6801        ldr r1, [r0, #0]
    6a04:   f001 0119   and.w r1, r1, #25
    6a08:   6001        str r1, [r0, #0]
    6a0a:   bd10        pop {r4, pc}

function_e_72:
  0x6a0c:   b510        push {r4, lr}
    6a0e:   f000 feb9   bl 0x7784           ; call usb_get_ep_reg
    6a12:   2104        movs r1, #4
    6a14:   6001        str r1, [r0, #0]
    6a16:   bd10        pop {r4, pc}

function_e_73:
  0x6a18:   b510        push {r4, lr}
    6a1a:   f000 feb3   bl 0x7784           ; call usb_get_ep_reg
    6a1e:   2140        movs r1, #64   ; 0x40
    6a20:   6081        str r1, [r0, #8]
    6a22:   6802        ldr r2, [r0, #0]
    6a24:   2124        movs r1, #36   ; 0x24
    6a26:   4391        bics r1, r2
    6a28:   6001        str r1, [r0, #0]
    6a2a:   bd10        pop {r4, pc}

usb_copy_send:
    ; r0 = ep #
    ; r1 = src
    ; r2 = len
  0x6a2c:   e92d 41f0   stmdb sp!, {r4, r5, r6, r7, r8, lr}
    6a30:   4614        mov r4, r2
    6a32:   4688        mov r8, r1
    6a34:   4607        mov r7, r0
    6a36:   f7ff ff75   bl 0x6924           ; call usb_get_ep_len(ep #)
    6a3a:   4606        mov r6, r0
    6a3c:   4638        mov r0, r7
    6a3e:   f000 fea1   bl 0x7784           ; call usb_get_ep_reg(ep #)
    6a42:   4605        mov r5, r0
    6a44:   2100        movs r1, #0
    6a46:   4638        mov r0, r7
    6a48:   f7ff ff87   bl 0x695a           ; call usb_get_ep_tcnt(ep #)
    6a4c:   42b4        cmp r4, r6
    6a4e:   d800        bhi.n 0x6a52
    6a50:   b110        cbz r0, 0x6a58
    6a52:   2000        movs r0, #0
  0x6a54:   e8bd 81f0   ldmia.w sp!, {r4, r5, r6, r7, r8, pc}

  0x6a58:   4638        mov r0, r7
    6a5a:   f7ff ff45   bl 0x68e8           ; call usb_get_ep_buff
    6a5e:   4601        mov r1, r0
    6a60:   1ce0        adds r0, r4, #3
    6a62:   0882        lsrs r2, r0, #2
    6a64:   4640        mov r0, r8
    6a66:   f000 fe85   bl 0x7774           ; call copy_words
    6a6a:   60ec        str r4, [r5, #12]
    6a6c:   2002        movs r0, #2
    6a6e:   6028        str r0, [r5, #0]
    6a70:   4620        mov r0, r4
    6a72:   e7ef        b.n 0x6a54          ; return

usb_enable_intr:
    ; r0 =
  0x6a74:   4902        ldr r1, [pc, #8]   ; (0x6a80)
    6a76:   684a        ldr r2, [r1, #4]
    6a78:   4302        orrs r2, r0
    6a7a:   604a        str r2, [r1, #4]
    6a7c:   4770        bx lr
    6a7e:   0000

  0x6a80:   0x400a8000  ; USB

function_e_75:
    ; r0 =
  0x6a84:   4603        mov r3, r0
    6a86:   2107        movs r1, #7
  0x6a88:   f101 0208   add.w r2, r1, #8
    6a8c:   fa23 f002   lsr.w r0, r3, r2
    6a90:   07c2        lsls r2, r0, #31
    6a92:   d001        beq.n 0x6a98
    6a94:   b248        sxtb r0, r1
    6a96:   4770        bx lr
  0x6a98:   1e49        subs r1, r1, #1
    6a9a:   2900        cmp r1, #0
    6a9c:   dcf4        bgt.n 0x6a88
    6a9e:   f04f 30ff   mov.w r0, #4294967295   ; 0xffffffff
    6aa2:   4770        bx lr

usb_get_intr_flags:
    ; return (USBIER & USBISR)
  0x6aa4:   4802        ldr r0, [pc, #8]   ; (0x6ab0)
    6aa6:   6841        ldr r1, [r0, #4]
    6aa8:   6880        ldr r0, [r0, #8]
    6aaa:   4008        ands r0, r1
    6aac:   4770        bx lr
    6aae:   0000

  0x6ab0:   0x400a8000  ; SUB

jump_1:
  0x6ab4:   f000 b84c   b.w 0x6b50

usb_set_lpmode_pdwn:
    ; Set USBCSR.LPMODE and USBCSR.PDWN
    ; Enter USB low-power mode
    ; Enter USB power-down mode
  0x6ab8:   4802        ldr r0, [pc, #8]   ; (0x6ac4)
    6aba:   6801        ldr r1, [r0, #0]
    6abc:   f041 010c   orr.w r1, r1, #12
    6ac0:   6001        str r1, [r0, #0]
    6ac2:   4770        bx lr

  0x6ac4:   0x400a8000  ; USB

usb_clear_csr:
    ; Clear USBCSR (control and status)
    ; Keep the value of USBCSR.DPPUEN
  0x6ac8:   4802        ldr r0, [pc, #8]   ; (0x6ad4)
    6aca:   6801        ldr r1, [r0, #0]
    6acc:   f401 6180   and.w r1, r1, #1024   ; 0x400
    6ad0:   6001        str r1, [r0, #0]
    6ad2:   4770        bx lr

  0x6ad4:   0x400a8000  ; USB

function_28:
  0x6ad8:   b510        push {r4, lr}
    6ada:   4604        mov r4, r0
    6adc:   481a        ldr r0, [pc, #104]   ; (0x6b48)
    6ade:   6802        ldr r2, [r0, #0]
    6ae0:   2a01        cmp r2, #1
    6ae2:   d12f        bne.n 0x6b44
    6ae4:   2200        movs r2, #0
    6ae6:   6002        str r2, [r0, #0]
    6ae8:   4818        ldr r0, [pc, #96]   ; (0x6b4c)
    6aea:   6802        ldr r2, [r0, #0]
    6aec:   0653        lsls r3, r2, #25
    6aee:   f04f 32ff   mov.w r2, #4294967295   ; 0xffffffff
    6af2:   d50c        bpl.n 0x6b0e
    6af4:   f240 430c   movw r3, #1036   ; 0x40c
    6af8:   6003        str r3, [r0, #0]
    6afa:   6082        str r2, [r0, #8]
    6afc:   b911        cbnz r1, 0x6b04
    6afe:   2000        movs r0, #0
    6b00:   f7ff f8a0   bl 0x5c44
    6b04:   6820        ldr r0, [r4, #0]
    6b06:   e8bd 4010   ldmia.w sp!, {r4, lr}
    6b0a:   f7ff bfb3   b.w 0x6a74
    6b0e:   f640 430c   movw r3, #3084   ; 0xc0c
    6b12:   6003        str r3, [r0, #0]
    6b14:   6082        str r2, [r0, #8]
    6b16:   b911        cbnz r1, 0x6b1e
    6b18:   2000        movs r0, #0
    6b1a:   f7ff f893   bl 0x5c44
    6b1e:   2000        movs r0, #0
    6b20:   f7ff feaa   bl 0x6878
    6b24:   6820        ldr r0, [r4, #0]
    6b26:   f7ff ffa5   bl 0x6a74
    6b2a:   2000        movs r0, #0
    6b2c:   f7ff feb2   bl 0x6894
    6b30:   21c8        movs r1, #200   ; 0xc8
    6b32:   2000        movs r0, #0
    6b34:   1c40        adds r0, r0, #1
    6b36:   4288        cmp r0, r1
    6b38:   d3fc        bcc.n 0x6b34
    6b3a:   e8bd 4010   ldmia.w sp!, {r4, lr}
    6b3e:   2001        movs r0, #1
    6b40:   f7ff bea8   b.w 0x6894
    6b44:   bd10        pop {r4, pc}
    6b46:   0000        movs r0, r0

  0x6b48:   0x20000014
  0x6b4c:   0x400a8000  ; USB

ptr_write_data:
    ; r0 = pointer = 0x200002c4 (pointer_39)
  0x6b50:   f241 111d   movw r1, #4381   ; 0x111d
    6b54:   6001        str r1, [r0, #0]
    6b56:   490a        ldr r1, [pc, #40]   ; (0x6b80)
    6b58:   6041        str r1, [r0, #4]
    6b5a:   f240 2112   movw r1, #530   ; 0x212
    6b5e:   6081        str r1, [r0, #8]
    6b60:   4908        ldr r1, [pc, #32]   ; (0x6b84)
    6b62:   60c1        str r1, [r0, #12]
    6b64:   4a08        ldr r2, [pc, #32]   ; (0x6b88)
    6b66:   2110        movs r1, #16
    6b68:   e9c0 1204   strd r1, r2, [r0, #16]
    6b6c:   6181        str r1, [r0, #24]
    6b6e:   4907        ldr r1, [pc, #28]   ; (0x6b8c)
    6b70:   61c1        str r1, [r0, #28]
    6b72:   2100        movs r1, #0
    6b74:   6201        str r1, [r0, #32]
    6b76:   4906        ldr r1, [pc, #24]   ; (0x6b90)
    6b78:   6241        str r1, [r0, #36]   ; 0x24
    6b7a:   2102        movs r1, #2
    6b7c:   6281        str r1, [r0, #40]   ; 0x28
    6b7e:   4770        bx lr

  0x6b80:   0x80010008
  0x6b84:   0x91002088
  0x6b88:   0x92010090
  0x6b8c:   0x930100d0
  0x6b90:   0x84010110

function_130_2:
  0x6b94:   b510        push {r4, lr}
    6b96:   4c12        ldr r4, [pc, #72]   ; (0x6be0)
    6b98:   f894 0032   ldrb.w r0, [r4, #50]   ; 0x32
    6b9c:   2803        cmp r0, #3
    6b9e:   d101        bne.n 0x6ba4
    6ba0:   f000 fdf8   bl 0x7794               ; call function_130_9()
    6ba4:   490f        ldr r1, [pc, #60]   ; (0x6be4)
    6ba6:   7948        ldrb r0, [r1, #5]
    6ba8:   b178        cbz r0, 0x6bca
    6baa:   2801        cmp r0, #1
    6bac:   d009        beq.n 0x6bc2
    6bae:   2802        cmp r0, #2
    6bb0:   d10f        bne.n 0x6bd2
    6bb2:   f894 0032   ldrb.w r0, [r4, #50]   ; 0x32
    6bb6:   2806        cmp r0, #6
    6bb8:   d101        bne.n 0x6bbe
    6bba:   f000 fb81   bl 0x72c0               ; call function_130_1()
    6bbe:   2002        movs r0, #2
    6bc0:   bd10        pop {r4, pc}
    6bc2:   2000        movs r0, #0
    6bc4:   7148        strb r0, [r1, #5]
    6bc6:   2003        movs r0, #3
    6bc8:   bd10        pop {r4, pc}
    6bca:   f894 0032   ldrb.w r0, [r4, #50]   ; 0x32
    6bce:   2806        cmp r0, #6
    6bd0:   d001        beq.n 0x6bd6
    6bd2:   2000        movs r0, #0
    6bd4:   bd10        pop {r4, pc}
    6bd6:   2002        movs r0, #2
    6bd8:   7148        strb r0, [r1, #5]
    6bda:   2001        movs r0, #1
    6bdc:   bd10        pop {r4, pc}
    6bde:   0000        movs r0, r0
    6be0:   06f4        lsls r4, r6, #27
    6be2:   2000        movs r0, #0
    6be4:   0034        movs r4, r6
    6be6:   2000        movs r0, #0
    6be8:   4902        ldr r1, [pc, #8]   ; (0x6bf4)
    6bea:   680a        ldr r2, [r1, #0]
    6bec:   6002        str r2, [r0, #0]
    6bee:   6849        ldr r1, [r1, #4]
    6bf0:   6041        str r1, [r0, #4]
    6bf2:   4770        bx lr

  0x6bf4:   0x400aa000

  0x6bf8:   4802        ldr r0, [pc, #8]   ; (0x6c04)
    6bfa:   6801        ldr r1, [r0, #0]
    6bfc:   f041 0120   orr.w r1, r1, #32
    6c00:   6001        str r1, [r0, #0]
    6c02:   4770        bx lr
    6c04:   8000        strh r0, [r0, #0]
    6c06:   400a        ands r2, r1
    6c08:   4903        ldr r1, [pc, #12]   ; (0x6c18)
    6c0a:   680a        ldr r2, [r1, #0]
    6c0c:   f442 7280   orr.w r2, r2, #256   ; 0x100
    6c10:   600a        str r2, [r1, #0]
    6c12:   6108        str r0, [r1, #16]
    6c14:   4770        bx lr
    6c16:   0000        movs r0, r0
    6c18:   8000        strh r0, [r0, #0]
    6c1a:   400a        ands r2, r1

usb_intr:
  0x6c1c:   4801        ldr r0, [pc, #4]        ; (0x6c24)
    6c1e:   f7ff bd1f   b.w 0x6660              ; jump usb_entry
    6c22:   0000

  0x6c24:   0x200006f4

watchdog_init:
  0x6c28:   4907        ldr r1, [pc, #28]   ; (0x6c48)
    6c2a:   2010        movs r0, #16
    6c2c:   f8c1 010c   str.w r0, [r1, #268]   ; 0x10c
    6c30:   4806        ldr r0, [pc, #24]   ; (0x6c4c)
    6c32:   f645 71ff   movw r1, #24575   ; 0x5fff
    6c36:   6081        str r1, [r0, #8]
    6c38:   4905        ldr r1, [pc, #20]   ; (0x6c50)
    6c3a:   6041        str r1, [r0, #4]
    6c3c:   f64c 2135   movw r1, #51765   ; 0xca35
    6c40:   6101        str r1, [r0, #16]
    6c42:   4904        ldr r1, [pc, #16]   ; (0x6c54)
    6c44:   6001        str r1, [r0, #0]
    6c46:   4770        bx lr

  0x6c48:   0x40088000  ; CKCU registers
  0x6c4c:   0x40068000  ; WDT registers
  0x6c50:   0x1a7d0
  0x6c54:   0x5fa00001  ; Watchdog timer reload lock and set

watchdog_reload_timer:
  0x6c58:   4902        ldr r1, [pc, #8]   ; (0x6c64)
    6c5a:   4801        ldr r0, [pc, #4]   ; (0x6c60)
    6c5c:   6008        str r0, [r1, #0]
    6c5e:   4770        bx lr

  0x6c60:   0x5fa00001  ; Watchdog timer reload lock and set
  0x6c64:   0x40068000  ; WDT registers

  0x6c68:   b510        push {r4, lr}
    6c6a:   f7fc ffbf   bl 0x3bec
    6c6e:   4904        ldr r1, [pc, #16]   ; (0x6c80)
    6c70:   2000        movs r0, #0
    6c72:   6048        str r0, [r1, #4]
    6c74:   4903        ldr r1, [pc, #12]   ; (0x6c84)
    6c76:   7188        strb r0, [r1, #6]
    6c78:   2001        movs r0, #1
    6c7a:   7008        strb r0, [r1, #0]
    6c7c:   bd10        pop {r4, pc}
    6c7e:   0000

    6c80:   0x20000004
    6c84:   0x20000648

  0x6c88:   b570        push {r4, r5, r6, lr}
    6c8a:   4606        mov r6, r0
    6c8c:   4615        mov r5, r2
    6c8e:   460c        mov r4, r1
    6c90:   4608        mov r0, r1
    6c92:   f7fd fbc7   bl 0x4424
    6c96:   462a        mov r2, r5
    6c98:   4621        mov r1, r4
    6c9a:   4630        mov r0, r6
    6c9c:   e8bd 4070   ldmia.w sp!, {r4, r5, r6, lr}
    6ca0:   f7fd bbe8   b.w 0x4474
    6ca4:   b530        push {r4, r5, lr}
    6ca6:   4909        ldr r1, [pc, #36]   ; (0x6ccc)
    6ca8:   200a        movs r0, #10
    6caa:   4a07        ldr r2, [pc, #28]   ; (0x6cc8)
    6cac:   4b08        ldr r3, [pc, #32]   ; (0x6cd0)
    6cae:   f891 1025   ldrb.w r1, [r1, #37]   ; 0x25
    6cb2:   e004        b.n 0x6cbe
    6cb4:   5c14        ldrb r4, [r2, r0]
    6cb6:   434c        muls r4, r1
    6cb8:   08e4        lsrs r4, r4, #3
    6cba:   181d        adds r5, r3, r0
    6cbc:   712c        strb r4, [r5, #4]
    6cbe:   1e40        subs r0, r0, #1
    6cc0:   b2c0        uxtb r0, r0
    6cc2:   d2f7        bcs.n 0x6cb4
    6cc4:   bd30        pop {r4, r5, pc}
    6cc6:   0000        movs r0, r0
    6cc8:   7bbb        ldrb r3, [r7, #14]
    6cca:   0000        movs r0, r0
    6ccc:   0730        lsls r0, r6, #28
    6cce:   2000        movs r0, #0
    6cd0:   008c        lsls r4, r1, #2
    6cd2:   2000        movs r0, #0

  0x6cd4:   b5f0        push {r4, r5, r6, r7, lr}
    6cd6:   4e65        ldr r6, [pc, #404]   ; (0x6e6c)
    6cd8:   4c65        ldr r4, [pc, #404]   ; (0x6e70)
    6cda:   b08b        sub sp, #44   ; 0x2c
    6cdc:   78f0        ldrb r0, [r6, #3]
    6cde:   2805        cmp r0, #5
    6ce0:   d84d        bhi.n 0x6d7e
    6ce2:   2806        cmp r0, #6
    6ce4:   d219        bcs.n 0x6d1a
    6ce6:   e8df f000   tbb [pc, r0]
    6cea:   0303        lsls r3, r0, #12
    6cec:   561d        ldrsb r5, [r3, r0]
    6cee:   4343        muls r3, r0
    6cf0:   2503        movs r5, #3
    6cf2:   4f60        ldr r7, [pc, #384]   ; (0x6e74)
    6cf4:   e00e        b.n 0x6d14
    6cf6:   78f0        ldrb r0, [r6, #3]
    6cf8:   b188        cbz r0, 0x6d1e
    6cfa:   1960        adds r0, r4, r5
    6cfc:   7900        ldrb r0, [r0, #4]
    6cfe:   6821        ldr r1, [r4, #0]
    6d00:   78c9        ldrb r1, [r1, #3]
    6d02:   4348        muls r0, r1
    6d04:   08c2        lsrs r2, r0, #3
    6d06:   eb05 00c5   add.w r0, r5, r5, lsl #3
    6d0a:   eb07 00c0   add.w r0, r7, r0, lsl #3
    6d0e:   2148        movs r1, #72   ; 0x48
    6d10:   f7fc fc64   bl 0x35dc
    6d14:   1e6d        subs r5, r5, #1
    6d16:   b2ed        uxtb r5, r5
    6d18:   d2ed        bcs.n 0x6cf6
    6d1a:   b00b        add sp, #44   ; 0x2c
    6d1c:   bdf0        pop {r4, r5, r6, r7, pc}

    6d1e:   6820        ldr r0, [r4, #0]
    6d20:   5d40        ldrb r0, [r0, r5]
    6d22:   e7ec        b.n 0x6cfe
    6d24:   7927        ldrb r7, [r4, #4]
    6d26:   250e        movs r5, #14
    6d28:   466e        mov r6, sp
    6d2a:   e00d        b.n 0x6d48
    6d2c:   6820        ldr r0, [r4, #0]
    6d2e:   78c0        ldrb r0, [r0, #3]
    6d30:   0141        lsls r1, r0, #5
    6d32:   eba1 0040   sub.w r0, r1, r0, lsl #1
    6d36:   b2c1        uxtb r1, r0
    6d38:   eb05 0045   add.w r0, r5, r5, lsl #1
    6d3c:   1982        adds r2, r0, r6
    6d3e:   4638        mov r0, r7
    6d40:   f7fd f952   bl 0x3fe8
    6d44:   3720        adds r7, #32
    6d46:   b2ff        uxtb r7, r7
    6d48:   1e6d        subs r5, r5, #1
    6d4a:   b2ed        uxtb r5, r5
    6d4c:   d2ee        bcs.n 0x6d2c
    6d4e:   4d4a        ldr r5, [pc, #296]   ; (0x6e78)
    6d50:   2448        movs r4, #72   ; 0x48
    6d52:   e009        b.n 0x6d68
    6d54:   7828        ldrb r0, [r5, #0]
    6d56:   280e        cmp r0, #14
    6d58:   d205        bcs.n 0x6d66
    6d5a:   eb00 0040   add.w r0, r0, r0, lsl #1
    6d5e:   1981        adds r1, r0, r6
    6d60:   4620        mov r0, r4
    6d62:   f7fd f993   bl 0x408c
    6d66:   1e6d        subs r5, r5, #1
    6d68:   1e64        subs r4, r4, #1
    6d6a:   b2e4        uxtb r4, r4
    6d6c:   d2f2        bcs.n 0x6d54
    6d6e:   e7d4        b.n 0x6d1a
    6d70:   b00b        add sp, #44   ; 0x2c
    6d72:   1f00        subs r0, r0, #4
    6d74:   e8bd 40f0   ldmia.w sp!, {r4, r5, r6, r7, lr}
    6d78:   b2c0        uxtb r0, r0
    6d7a:   f7fc be4d   b.w 0x3a18
    6d7e:   2807        cmp r0, #7
    6d80:   d9cb        bls.n 0x6d1a
    6d82:   f020 0001   bic.w r0, r0, #1
    6d86:   2808        cmp r0, #8
    6d88:   d005        beq.n 0x6d96
    6d8a:   280a        cmp r0, #10
    6d8c:   d009        beq.n 0x6da2
    6d8e:   280c        cmp r0, #12
    6d90:   d1c3        bne.n 0x6d1a
    6d92:   2548        movs r5, #72   ; 0x48
    6d94:   e065        b.n 0x6e62
    6d96:   b00b        add sp, #44   ; 0x2c
    6d98:   1d20        adds r0, r4, #4
    6d9a:   e8bd 40f0   ldmia.w sp!, {r4, r5, r6, r7, lr}
    6d9e:   f7fd b961   b.w 0x4064
    6da2:   2000        movs r0, #0
    6da4:   250e        movs r5, #14
    6da6:   9001        str r0, [sp, #4]
    6da8:   e02a        b.n 0x6e00
    6daa:   eb05 0045   add.w r0, r5, r5, lsl #1
    6dae:   eb04 0140   add.w r1, r4, r0, lsl #1
    6db2:   f811 0f04   ldrb.w r0, [r1, #4]!
    6db6:   b918        cbnz r0, 0x6dc0
    6db8:   7848        ldrb r0, [r1, #1]
    6dba:   b908        cbnz r0, 0x6dc0
    6dbc:   7888        ldrb r0, [r1, #2]
    6dbe:   b1a8        cbz r0, 0x6dec
    6dc0:   78c8        ldrb r0, [r1, #3]
    6dc2:   b918        cbnz r0, 0x6dcc
    6dc4:   7908        ldrb r0, [r1, #4]
    6dc6:   b908        cbnz r0, 0x6dcc
    6dc8:   7948        ldrb r0, [r1, #5]
    6dca:   b168        cbz r0, 0x6de8
    6dcc:   2203        movs r2, #3
    6dce:   466e        mov r6, sp
    6dd0:   e006        b.n 0x6de0
    6dd2:   188b        adds r3, r1, r2
    6dd4:   5c88        ldrb r0, [r1, r2]
    6dd6:   78db        ldrb r3, [r3, #3]
    6dd8:   4298        cmp r0, r3
    6dda:   d800        bhi.n 0x6dde
    6ddc:   4618        mov r0, r3
    6dde:   54b0        strb r0, [r6, r2]
    6de0:   1e52        subs r2, r2, #1
    6de2:   b2d2        uxtb r2, r2
    6de4:   d2f5        bcs.n 0x6dd2
    6de6:   4631        mov r1, r6
    6de8:   4628        mov r0, r5
    6dea:   e007        b.n 0x6dfc
    6dec:   78c8        ldrb r0, [r1, #3]
    6dee:   b918        cbnz r0, 0x6df8
    6df0:   7908        ldrb r0, [r1, #4]
    6df2:   b908        cbnz r0, 0x6df8
    6df4:   7948        ldrb r0, [r1, #5]
    6df6:   b138        cbz r0, 0x6e08
    6df8:   4628        mov r0, r5
    6dfa:   1cc9        adds r1, r1, #3
    6dfc:   f000 f83e   bl 0x6e7c
    6e00:   1e6d        subs r5, r5, #1
    6e02:   b2ed        uxtb r5, r5
    6e04:   d2d1        bcs.n 0x6daa
    6e06:   e788        b.n 0x6d1a
    6e08:   a901        add r1, sp, #4
    6e0a:   e7ed        b.n 0x6de8
    6e0c:   481a        ldr r0, [pc, #104]   ; (0x6e78)
    6e0e:   1c40        adds r0, r0, #1
    6e10:   5d41        ldrb r1, [r0, r5]
    6e12:   f001 0007   and.w r0, r1, #7
    6e16:   eb00 0080   add.w r0, r0, r0, lsl #2
    6e1a:   4420        add r0, r4
    6e1c:   f990 2012   ldrsb.w r2, [r0, #18]
    6e20:   300e        adds r0, #14
    6e22:   b1d2        cbz r2, 0x6e5a
    6e24:   78c3        ldrb r3, [r0, #3]
    6e26:   ebd3 01d1   rsbs r1, r3, r1, lsr #3
    6e2a:   d500        bpl.n 0x6e2e
    6e2c:   4249        negs r1, r1
    6e2e:   1a89        subs r1, r1, r2
    6e30:   310a        adds r1, #10
    6e32:   b2ca        uxtb r2, r1
    6e34:   2a0a        cmp r2, #10
    6e36:   d210        bcs.n 0x6e5a
    6e38:   2103        movs r1, #3
    6e3a:   466b        mov r3, sp
    6e3c:   18a6        adds r6, r4, r2
    6e3e:   e004        b.n 0x6e4a
    6e40:   5c42        ldrb r2, [r0, r1]
    6e42:   7937        ldrb r7, [r6, #4]
    6e44:   437a        muls r2, r7
    6e46:   0a12        lsrs r2, r2, #8
    6e48:   545a        strb r2, [r3, r1]
    6e4a:   1e49        subs r1, r1, #1
    6e4c:   b2c9        uxtb r1, r1
    6e4e:   d2f7        bcs.n 0x6e40
    6e50:   4619        mov r1, r3
    6e52:   4628        mov r0, r5
    6e54:   f7fd f91a   bl 0x408c
    6e58:   e003        b.n 0x6e62
    6e5a:   2100        movs r1, #0
    6e5c:   4628        mov r0, r5
    6e5e:   f7fd f937   bl 0x40d0
    6e62:   1e6d        subs r5, r5, #1
    6e64:   b2ed        uxtb r5, r5
    6e66:   d2d1        bcs.n 0x6e0c
    6e68:   e757        b.n 0x6d1a
    6e6a:   0000        movs r0, r0

  0x6e6c:   0x20000730
  0x6e70:   0x2000008c

    6e74:   032e        lsls r6, r5, #12
    6e76:   2000        movs r0, #0
    6e78:   7b72        ldrb r2, [r6, #13]
    6e7a:   0000        movs r0, r0
    6e7c:   e92d 41f0   stmdb sp!, {r4, r5, r6, r7, r8, lr}
    6e80:   460f        mov r7, r1
    6e82:   4606        mov r6, r0
    6e84:   2448        movs r4, #72   ; 0x48
    6e86:   4d07        ldr r5, [pc, #28]   ; (0x6ea4)
    6e88:   e007        b.n 0x6e9a
    6e8a:   7828        ldrb r0, [r5, #0]
    6e8c:   42b0        cmp r0, r6
    6e8e:   d103        bne.n 0x6e98
    6e90:   4639        mov r1, r7
    6e92:   4620        mov r0, r4
    6e94:   f7fd f8fa   bl 0x408c
    6e98:   1e6d        subs r5, r5, #1
    6e9a:   1e64        subs r4, r4, #1
    6e9c:   b2e4        uxtb r4, r4
    6e9e:   d2f4        bcs.n 0x6e8a
    6ea0:   e8bd 81f0   ldmia.w sp!, {r4, r5, r6, r7, r8, pc}

    6ea4:   7b72        ldrb r2, [r6, #13]
    6ea6:   0000        movs r0, r0

    6ea8:   b538        push {r3, r4, r5, lr}
    6eaa:   4604        mov r4, r0
    6eac:   4809        ldr r0, [pc, #36]   ; (0x6ed4)
    6eae:   6800        ldr r0, [r0, #0]
    6eb0:   78c5        ldrb r5, [r0, #3]
    6eb2:   b919        cbnz r1, 0x6ebc
    6eb4:   4668        mov r0, sp
    6eb6:   f7fd f886   bl 0x3fc6
    6eba:   4669        mov r1, sp
    6ebc:   2203        movs r2, #3
    6ebe:   e005        b.n 0x6ecc
    6ec0:   f811 0b01   ldrb.w r0, [r1], #1
    6ec4:   4368        muls r0, r5
    6ec6:   08c0        lsrs r0, r0, #3
    6ec8:   f804 0b01   strb.w r0, [r4], #1
    6ecc:   1e52        subs r2, r2, #1
    6ece:   b2d2        uxtb r2, r2
    6ed0:   d2f6        bcs.n 0x6ec0
    6ed2:   bd38        pop {r3, r4, r5, pc}

    6ed4:   008c        lsls r4, r1, #2
    6ed6:   2000        movs r0, #0

    6ed8:   f44f 4100   mov.w r1, #32768   ; 0x8000
    6edc:   4288        cmp r0, r1
    6ede:   d301        bcc.n 0x6ee4
    6ee0:   ea01 2090   and.w r0, r1, r0, lsr #10
    6ee4:   b280        uxth r0, r0
    6ee6:   4770        bx lr
    6ee8:   4a05        ldr r2, [pc, #20]   ; (0x6f00)
    6eea:   b500        push {lr}
    6eec:   6810        ldr r0, [r2, #0]
    6eee:   b120        cbz r0, 0x6efa
    6ef0:   f7ff fff2   bl 0x6ed8
    6ef4:   211e        movs r1, #30
    6ef6:   6011        str r1, [r2, #0]
    6ef8:   bd00        pop {pc}
    6efa:   201e        movs r0, #30
    6efc:   bd00        pop {pc}
    6efe:   0000        movs r0, r0

    6f00:   19d0        adds r0, r2, r7
    6f02:   2000        movs r0, #0

    6f04:   0401        lsls r1, r0, #16
    6f06:   d500        bpl.n 0x6f0a
    6f08:   0280        lsls r0, r0, #10
    6f0a:   4770        bx lr
    6f0c:   480f        ldr r0, [pc, #60]   ; (0x6f4c)
    6f0e:   b510        push {r4, lr}
    6f10:   7800        ldrb r0, [r0, #0]
    6f12:   f000 0003   and.w r0, r0, #3
    6f16:   eb00 0040   add.w r0, r0, r0, lsl #1
    6f1a:   00c4        lsls r4, r0, #3
    6f1c:   480c        ldr r0, [pc, #48]   ; (0x6f50)
    6f1e:   6800        ldr r0, [r0, #0]
    6f20:   f7fd fd7d   bl 0x4a1e
    6f24:   4603        mov r3, r0
    6f26:   2018        movs r0, #24
    6f28:   490a        ldr r1, [pc, #40]   ; (0x6f54)
    6f2a:   e00a        b.n 0x6f42
    6f2c:   eb01 0244   add.w r2, r1, r4, lsl #1
    6f30:   8d12        ldrh r2, [r2, #40]   ; 0x28
    6f32:   f3c2 0209   ubfx r2, r2, #0, #10
    6f36:   429a        cmp r2, r3
    6f38:   d101        bne.n 0x6f3e
    6f3a:   4620        mov r0, r4
    6f3c:   bd10        pop {r4, pc}
    6f3e:   1c64        adds r4, r4, #1
    6f40:   b2e4        uxtb r4, r4
    6f42:   1e40        subs r0, r0, #1
    6f44:   b2c0        uxtb r0, r0
    6f46:   d2f1        bcs.n 0x6f2c
    6f48:   2060        movs r0, #96   ; 0x60
    6f4a:   bd10        pop {r4, pc}

    6f4c:   0001        movs r1, r0
    6f4e:   2000        movs r0, #0

    6f50:   0030        movs r0, r6
    6f52:   2000        movs r0, #0

    6f54:   0730        lsls r0, r6, #28
    6f56:   2000        movs r0, #0

    6f58:   4803        ldr r0, [pc, #12]   ; (0x6f68)
    6f5a:   2100        movs r1, #0
    6f5c:   f840 1f0a   str.w r1, [r0, #10]!
    6f60:   6041        str r1, [r0, #4]
    6f62:   8101        strh r1, [r0, #8]
    6f64:   4770        bx lr
    6f66:   0000        movs r0, r0

    6f68:   01ac        lsls r4, r5, #6
    6f6a:   2000        movs r0, #0

    6f6c:   b570        push {r4, r5, r6, lr}
    6f6e:   4c1a        ldr r4, [pc, #104]   ; (0x6fd8)
    6f70:   491a        ldr r1, [pc, #104]   ; (0x6fdc)
    6f72:   2060        movs r0, #96   ; 0x60
    6f74:   70a0        strb r0, [r4, #2]
    6f76:   7848        ldrb r0, [r1, #1]
    6f78:   07c0        lsls r0, r0, #31
    6f7a:   d006        beq.n 0x6f8a
    6f7c:   7888        ldrb r0, [r1, #2]
    6f7e:   2100        movs r1, #0
    6f80:   f7fd fbb8   bl 0x46f4
    6f84:   2800        cmp r0, #0
    6f86:   d026        beq.n 0x6fd6
    6f88:   e009        b.n 0x6f9e
    6f8a:   2002        movs r0, #2
    6f8c:   4a14        ldr r2, [pc, #80]   ; (0x6fe0)
    6f8e:   7809        ldrb r1, [r1, #0]
    6f90:   e002        b.n 0x6f98
    6f92:   5c13        ldrb r3, [r2, r0]
    6f94:   4299        cmp r1, r3
    6f96:   d01e        beq.n 0x6fd6
    6f98:   1e40        subs r0, r0, #1
    6f9a:   b2c0        uxtb r0, r0
    6f9c:   d2f9        bcs.n 0x6f92
    6f9e:   f7fe fdd3   bl 0x5b48
    6fa2:   2800        cmp r0, #0
    6fa4:   d117        bne.n 0x6fd6
    6fa6:   480f        ldr r0, [pc, #60]   ; (0x6fe4)
    6fa8:   4a0f        ldr r2, [pc, #60]   ; (0x6fe8)
    6faa:   4b10        ldr r3, [pc, #64]   ; (0x6fec)
    6fac:   7800        ldrb r0, [r0, #0]
    6fae:   f000 0003   and.w r0, r0, #3
    6fb2:   eb00 0040   add.w r0, r0, r0, lsl #1
    6fb6:   00c0        lsls r0, r0, #3
    6fb8:   70a0        strb r0, [r4, #2]
    6fba:   2018        movs r0, #24
    6fbc:   e008        b.n 0x6fd0
    6fbe:   78a1        ldrb r1, [r4, #2]
    6fc0:   eb02 0541   add.w r5, r2, r1, lsl #1
    6fc4:   8d2d        ldrh r5, [r5, #40]   ; 0x28
    6fc6:   ebb3 5f85   cmp.w r3, r5, lsl #22
    6fca:   d004        beq.n 0x6fd6
    6fcc:   1c49        adds r1, r1, #1
    6fce:   70a1        strb r1, [r4, #2]
    6fd0:   1e40        subs r0, r0, #1
    6fd2:   b2c0        uxtb r0, r0
    6fd4:   d2f3        bcs.n 0x6fbe
    6fd6:   bd70        pop {r4, r5, r6, pc}

  0x6fd8:   0x200019cc
  0x6fdc:   0x20000030
  0x6fe0:   0x7aa0
  0x6fe4:   0x20000001
  0x6fe8:   0x20000730
  0x6fec:   0xffc00000

  0x6ff0:   b538        push {r3, r4, r5, lr}
    6ff2:   4928        ldr r1, [pc, #160]   ; (0x7094)
    6ff4:   4a28        ldr r2, [pc, #160]   ; (0x7098)
    6ff6:   8808        ldrh r0, [r1, #0]
    6ff8:   6812        ldr r2, [r2, #0]
    6ffa:   eb02 0480   add.w r4, r2, r0, lsl #2
    6ffe:   1c40        adds r0, r0, #1
    7000:   8008        strh r0, [r1, #0]
    7002:   7860        ldrb r0, [r4, #1]
    7004:   2104        movs r1, #4
    7006:   ebb1 1f50   cmp.w r1, r0, lsr #5
    700a:   d03d        beq.n 0x7088
    700c:   2000        movs r0, #0
    700e:   9000        str r0, [sp, #0]
    7010:   8820        ldrh r0, [r4, #0]
    7012:   4669        mov r1, sp
    7014:   f7fd fcfe   bl 0x4a14
    7018:   7860        ldrb r0, [r4, #1]
    701a:   0940        lsrs r0, r0, #5
    701c:   2801        cmp r0, #1
    701e:   d002        beq.n 0x7026
    7020:   2802        cmp r0, #2
    7022:   d10b        bne.n 0x703c
    7024:   e004        b.n 0x7030
    7026:   f89d 0003   ldrb.w r0, [sp, #3]
    702a:   f040 0002   orr.w r0, r0, #2
    702e:   e003        b.n 0x7038
    7030:   f89d 0003   ldrb.w r0, [sp, #3]
    7034:   f020 0002   bic.w r0, r0, #2
    7038:   f88d 0003   strb.w r0, [sp, #3]
    703c:   f89d 0001   ldrb.w r0, [sp, #1]
    7040:   07c0        lsls r0, r0, #31
    7042:   f89d 0000   ldrb.w r0, [sp]
    7046:   d002        beq.n 0x704e
    7048:   f7fd fb44   bl 0x46d4
    704c:   e001        b.n 0x7052
    704e:   4913        ldr r1, [pc, #76]   ; (0x709c)
    7050:   5c08        ldrb r0, [r1, r0]
    7052:   f88d 0002   strb.w r0, [sp, #2]
    7056:   f89d 0003   ldrb.w r0, [sp, #3]
    705a:   f040 0005   orr.w r0, r0, #5
    705e:   f88d 0003   strb.w r0, [sp, #3]
    7062:   f89d 1001   ldrb.w r1, [sp, #1]
    7066:   f89d 2002   ldrb.w r2, [sp, #2]
    706a:   f001 0101   and.w r1, r1, #1
    706e:   eb01 0181   add.w r1, r1, r1, lsl #2
    7072:   eb02 0141   add.w r1, r2, r1, lsl #1
    7076:   f3c0 0240   ubfx r2, r0, #1, #1
    707a:   b2c9        uxtb r1, r1
    707c:   4808        ldr r0, [pc, #32]   ; (0x70a0)
    707e:   f7fc ff93   bl 0x3fa8
    7082:   9800        ldr r0, [sp, #0]
    7084:   f7fd fb7c   bl 0x4780
    7088:   8860        ldrh r0, [r4, #2]
    708a:   f7ff ff3b   bl 0x6f04
    708e:   4905        ldr r1, [pc, #20]   ; (0x70a4)
    7090:   6008        str r0, [r1, #0]
    7092:   bd38        pop {r3, r4, r5, pc}

  0x7094:   0x200019cc
  0x7098:   0x20000058
  0x709c:   0x200001c0
  0x70a0:   0x200001b6
  0x70a4:   0x20000060

  0x70a8:   b570        push {r4, r5, r6, lr}
    70aa:   4d18        ldr r5, [pc, #96]   ; (0x710c)
    70ac:   8828        ldrh r0, [r5, #0]
    70ae:   28ff        cmp r0, #255   ; 0xff
    70b0:   d903        bls.n 0x70ba
    70b2:   2001        movs r0, #1
    70b4:   1d29        adds r1, r5, #4
    70b6:   71c8        strb r0, [r1, #7]
    70b8:   e006        b.n 0x70c8
    70ba:   4e15        ldr r6, [pc, #84]   ; (0x7110)
    70bc:   7871        ldrb r1, [r6, #1]
    70be:   07c9        lsls r1, r1, #31
    70c0:   d004        beq.n 0x70cc
    70c2:   7831        ldrb r1, [r6, #0]
    70c4:   29c0        cmp r1, #192   ; 0xc0
    70c6:   d201        bcs.n 0x70cc
    70c8:   2001        movs r0, #1
    70ca:   bd70        pop {r4, r5, r6, pc}
    70cc:   4911        ldr r1, [pc, #68]   ; (0x7114)
    70ce:   6809        ldr r1, [r1, #0]
    70d0:   eb01 0480   add.w r4, r1, r0, lsl #2
    70d4:   1c40        adds r0, r0, #1
    70d6:   8028        strh r0, [r5, #0]
    70d8:   6830        ldr r0, [r6, #0]
    70da:   f7fd fca0   bl 0x4a1e
    70de:   8020        strh r0, [r4, #0]
    70e0:   78f1        ldrb r1, [r6, #3]
    70e2:   0789        lsls r1, r1, #30
    70e4:   d502        bpl.n 0x70ec
    70e6:   f500 5070   add.w r0, r0, #15360   ; 0x3c00
    70ea:   e001        b.n 0x70f0
    70ec:   f500 40b8   add.w r0, r0, #23552   ; 0x5c00
    70f0:   8020        strh r0, [r4, #0]
    70f2:   8828        ldrh r0, [r5, #0]
    70f4:   2801        cmp r0, #1
    70f6:   d903        bls.n 0x7100
    70f8:   f7ff fef6   bl 0x6ee8
    70fc:   f824 0c02   strh.w r0, [r4, #-2]
    7100:   4905        ldr r1, [pc, #20]   ; (0x7118)
    7102:   f04f 30ff   mov.w r0, #4294967295   ; 0xffffffff
    7106:   6008        str r0, [r1, #0]
    7108:   2000        movs r0, #0
    710a:   bd70        pop {r4, r5, r6, pc}

  0x710c:   0x200019cc
  0x7110:   0x20000030
  0x7114:   0x20000058
  0x7118:   0x20000060

  0x711c:   b510        push {r4, lr}
    711e:   4c06        ldr r4, [pc, #24]   ; (0x7138)
    7120:   2100        movs r1, #0
    7122:   78a0        ldrb r0, [r4, #2]
    7124:   f7fc fe34   bl 0x3d90
    7128:   2000        movs r0, #0
    712a:   1d21        adds r1, r4, #4
    712c:   8020        strh r0, [r4, #0]
    712e:   6008        str r0, [r1, #0]
    7130:   2004        movs r0, #4
    7132:   71c8        strb r0, [r1, #7]
    7134:   bd10        pop {r4, pc}
    7136:   0000

  0x7138:   0x200019cc        adds r4, r1, r7

  0x713c:   e92d 41f0   stmdb sp!, {r4, r5, r6, r7, r8, lr}
    7140:   4c28        ldr r4, [pc, #160]   ; (0x71e4)
    7142:   4d29        ldr r5, [pc, #164]   ; (0x71e8)
    7144:   f8df 80a4   ldr.w r8, [pc, #164]   ; 0x71ec GPIO A
    7148:   4f29        ldr r7, [pc, #164]   ; (0x71f0) GPIO C
    714a:   260a        movs r6, #10
    714c:   e9d5 0100   ldrd r0, r1, [r5]
    7150:   6281        str r1, [r0, #40]   ; 0x28
    7152:   1e76        subs r6, r6, #1
    7154:   b2f6        uxtb r6, r6
    7156:   1ee4        subs r4, r4, #3
    7158:   bf00        nop
    715a:   bf00        nop
    715c:   20ff        movs r0, #255   ; 0xff
    715e:   69f9        ldr r1, [r7, #28]
    7160:   0589        lsls r1, r1, #22
    7162:   d400        bmi.n 0x7166
    7164:   20fe        movs r0, #254   ; 0xfe
    7166:   f8d8 201c   ldr.w r2, [r8, #28]
    716a:   4641        mov r1, r8
    716c:   0692        lsls r2, r2, #26
    716e:   d401        bmi.n 0x7174
    7170:   f020 0002   bic.w r0, r0, #2
    7174:   69ca        ldr r2, [r1, #28]
    7176:   0652        lsls r2, r2, #25
    7178:   d401        bmi.n 0x717e
    717a:   f020 0004   bic.w r0, r0, #4
    717e:   69c9        ldr r1, [r1, #28]
    7180:   0609        lsls r1, r1, #24
    7182:   d401        bmi.n 0x7188
    7184:   f020 0008   bic.w r0, r0, #8
    7188:   69f9        ldr r1, [r7, #28]
    718a:   0509        lsls r1, r1, #20
    718c:   d401        bmi.n 0x7192
    718e:   f020 0010   bic.w r0, r0, #16
    7192:   69f9        ldr r1, [r7, #28]
    7194:   0489        lsls r1, r1, #18
    7196:   d401        bmi.n 0x719c
    7198:   f020 0020   bic.w r0, r0, #32
    719c:   69f9        ldr r1, [r7, #28]
    719e:   0449        lsls r1, r1, #17
    71a0:   d401        bmi.n 0x71a6
    71a2:   f020 0040   bic.w r0, r0, #64   ; 0x40
    71a6:   69f9        ldr r1, [r7, #28]
    71a8:   0409        lsls r1, r1, #16
    71aa:   d401        bmi.n 0x71b0
    71ac:   f020 0080   bic.w r0, r0, #128   ; 0x80
    71b0:   e9d5 1200   ldrd r1, r2, [r5]
    71b4:   624a        str r2, [r1, #36]   ; 0x24
    71b6:   7861        ldrb r1, [r4, #1]
    71b8:   4281        cmp r1, r0
    71ba:   d002        beq.n 0x71c2
    71bc:   7060        strb r0, [r4, #1]
    71be:   2003        movs r0, #3
    71c0:   e005        b.n 0x71ce
    71c2:   7820        ldrb r0, [r4, #0]
    71c4:   b120        cbz r0, 0x71d0
    71c6:   2801        cmp r0, #1
    71c8:   d100        bne.n 0x71cc
    71ca:   70a1        strb r1, [r4, #2]
    71cc:   1e40        subs r0, r0, #1
    71ce:   7020        strb r0, [r4, #0]
    71d0:   2e00        cmp r6, #0
    71d2:   d004        beq.n 0x71de
    71d4:   2005        movs r0, #5
    71d6:   f7fc faf5   bl 0x37c4
    71da:   3d08        subs r5, #8
    71dc:   e7b6        b.n 0x714c
    71de:   e8bd 81f0   ldmia.w sp!, {r4, r5, r6, r7, r8, pc}
    71e2:   0000

  0x71e4:   0x2000032e
  0x71e8:   0x7cb0
  0x71ec:   0x400b0000  ; GPIO A
  0x71f0:   0x400b4000  ; GPIO C

    71f4:   b5fe        push {r1, r2, r3, r4, r5, r6, r7, lr}
    71f6:   4811        ldr r0, [pc, #68]   ; (0x723c)
    71f8:   6800        ldr r0, [r0, #0]
    71fa:   4911        ldr r1, [pc, #68]   ; (0x7240)
    71fc:   4e11        ldr r6, [pc, #68]   ; (0x7244)
    71fe:   fbb0 f4f1   udiv r4, r0, r1
    7202:   1e64        subs r4, r4, #1
    7204:   f8ad 4000   strh.w r4, [sp]
    7208:   2500        movs r5, #0
    720a:   f8ad 5002   strh.w r5, [sp, #2]
    720e:   4669        mov r1, sp
    7210:   4630        mov r0, r6
    7212:   f7fd fa02   bl 0x461a
    7216:   f88d 5000   strb.w r5, [sp]
    721a:   2007        movs r0, #7
    721c:   f8ad 0002   strh.w r0, [sp, #2]
    7220:   2001        movs r0, #1
    7222:   f88d 0004   strb.w r0, [sp, #4]
    7226:   f88d 5005   strb.w r5, [sp, #5]
    722a:   0860        lsrs r0, r4, #1
    722c:   f8ad 0006   strh.w r0, [sp, #6]
    7230:   4669        mov r1, sp
    7232:   4630        mov r0, r6
    7234:   f7fd f9c5   bl 0x45c2
    7238:   bdfe        pop {r1, r2, r3, r4, r5, r6, r7, pc}
    723a:   0000        movs r0, r0
    723c:   0010        movs r0, r2
    723e:   2000        movs r0, #0
    7240:   ba00        rev r0, r0
    7242:   00db        lsls r3, r3, #3
    7244:   f000 4006   and.w r0, r0, #2248146944   ; 0x86000000
    7248:   b510        push {r4, lr}
    724a:   490a        ldr r1, [pc, #40]   ; (0x7274)
    724c:   f44f 4400   mov.w r4, #32768   ; 0x8000
    7250:   628c        str r4, [r1, #40]   ; 0x28
    7252:   bf00        nop
    7254:   bf00        nop
    7256:   624c        str r4, [r1, #36]   ; 0x24
    7258:   f44f 4280   mov.w r2, #16384   ; 0x4000
    725c:   e004        b.n 0x7268
    725e:   628a        str r2, [r1, #40]   ; 0x28
    7260:   bf00        nop
    7262:   bf00        nop
    7264:   624a        str r2, [r1, #36]   ; 0x24
    7266:   bf00        nop
    7268:   1e40        subs r0, r0, #1
    726a:   b2c0        uxtb r0, r0
    726c:   d2f7        bcs.n 0x725e
    726e:   628c        str r4, [r1, #40]   ; 0x28
    7270:   bd10        pop {r4, pc}
    7272:   0000        movs r0, r0
    7274:   0000        movs r0, r0
    7276:   400b        ands r3, r1
    7278:   b5f0        push {r4, r5, r6, r7, lr}
    727a:   2204        movs r2, #4
    727c:   4b09        ldr r3, [pc, #36]   ; (0x72a4)
    727e:   0314        lsls r4, r2, #12
    7280:   4d09        ldr r5, [pc, #36]   ; (0x72a8)
    7282:   f64f 76ff   movw r6, #65535   ; 0xffff
    7286:   e009        b.n 0x729c
    7288:   bf00        nop
    728a:   62ac        str r4, [r5, #40]   ; 0x28
    728c:   0407        lsls r7, r0, #16
    728e:   d501        bpl.n 0x7294
    7290:   625a        str r2, [r3, #36]   ; 0x24
    7292:   e000        b.n 0x7296
    7294:   629a        str r2, [r3, #40]   ; 0x28
    7296:   626c        str r4, [r5, #36]   ; 0x24
    7298:   ea06 0040   and.w r0, r6, r0, lsl #1
    729c:   1e49        subs r1, r1, #1
    729e:   b2c9        uxtb r1, r1
    72a0:   d2f2        bcs.n 0x7288
    72a2:   bdf0        pop {r4, r5, r6, r7, pc}
    72a4:   4000        ands r0, r0
    72a6:   400b        ands r3, r1
    72a8:   0000        movs r0, r0
    72aa:   400b        ands r3, r1
    72ac:   2101        movs r1, #1
    72ae:   4081        lsls r1, r0
    72b0:   4802        ldr r0, [pc, #8]   ; (0x72bc)
    72b2:   7982        ldrb r2, [r0, #6]
    72b4:   4311        orrs r1, r2
    72b6:   7181        strb r1, [r0, #6]
    72b8:   4770        bx lr
    72ba:   0000

  0x72bc:   0x20000034

function_130_1:
  0x72c0:   e92d 41f0   stmdb sp!, {r4, r5, r6, r7, r8, lr}
    72c4:   4837        ldr r0, [pc, #220]   ; (0x73a4)
    72c6:   7801        ldrb r1, [r0, #0]
    72c8:   2400        movs r4, #0
    72ca:   f1a0 050a   sub.w r5, r0, #10
    72ce:   2901        cmp r1, #1
    72d0:   d105        bne.n 0x72de
    72d2:   7004        strb r4, [r0, #0]

    72d4:   7c28        ldrb r0, [r5, #16]
    72d6:   f000 0007   and.w r0, r0, #7
    72da:   f7fe fc91   bl 0x5c00

    72de:   4e32        ldr r6, [pc, #200]   ; (0x73a8)
    72e0:   4f32        ldr r7, [pc, #200]   ; (0x73ac) USB
    72e2:   7830        ldrb r0, [r6, #0]
    72e4:   b128        cbz r0, 0x72f2
    72e6:   2802        cmp r0, #2
    72e8:   d018        beq.n 0x731c
    72ea:   2804        cmp r0, #4
    72ec:   d001        beq.n 0x72f2
    72ee:   2805        cmp r0, #5
    72f0:   d11d        bne.n 0x732e
  0x72f2:   79a8        ldrb r0, [r5, #6]
    72f4:   06c0        lsls r0, r0, #27
    72f6:   d51a        bpl.n 0x732e
    72f8:   2001        movs r0, #1
    72fa:   7030        strb r0, [r6, #0]

    72fc:   2240        movs r2, #64
    72fe:   492c        ldr r1, [pc, #176]  ; (0x73b0) update_packet
    7300:   2004        movs r0, #4
    7302:   f7ff fb63   bl 0x69cc           ; call usb_recv(4, update_packet, 64)

    7306:   4a2a        ldr r2, [pc, #168]  ; (0x73b0) update_packet
    7308:   f1c0 0140   rsb r1, r0, #64     ; 0x40
    730c:   4410        add r0, r2
    730e:   f7fc f96c   bl 0x35ea           ; call mem_zero(update_packet + r0, 64 - r0)

    7312:   79a8        ldrb r0, [r5, #6]
    7314:   f020 0010   bic.w r0, r0, #16
    7318:   71a8        strb r0, [r5, #6]
    731a:   e008        b.n 0x732e

  0x731c:   6d38        ldr r0, [r7, #80]   ; 0x50
    731e:   0780        lsls r0, r0, #30
    7320:   d505        bpl.n 0x732e

    ; Send 64 bytes on endpoint 3
    7322:   2240        movs r2, #64   ; 0x40
    7324:   4922        ldr r1, [pc, #136]   ; (0x73b0) update_packet
    7326:   2003        movs r0, #3
    7328:   f7ff fb80   bl 0x6a2c           ; call usb_copy_send(3, ptr, 64)

    732c:   7034        strb r4, [r6, #0]
  0x732e:   6ab8        ldr r0, [r7, #40]   ; 0x28
    7330:   0780        lsls r0, r0, #30
    7332:   d517        bpl.n 0x7364
    7334:   7828        ldrb r0, [r5, #0]
    7336:   b108        cbz r0, 0x733c
    7338:   702c        strb r4, [r5, #0]
    733a:   e00d        b.n 0x7358

  0x733c:   491d        ldr r1, [pc, #116]   ; (0x73b4)
    733e:   6808        ldr r0, [r1, #0]
    7340:   b980        cbnz r0, 0x7364
    7342:   f101 000c   add.w r0, r1, #12
    7346:   6800        ldr r0, [r0, #0]
    7348:   b160        cbz r0, 0x7364
    734a:   f44f 627a   mov.w r2, #4000   ; 0xfa0
    734e:   4350        muls r0, r2
    7350:   10d2        asrs r2, r2, #3
    7352:   fbb0 f0f2   udiv r0, r0, r2
    7356:   6008        str r0, [r1, #0]

    ; Send 8 bytes on endpoint 1
    7358:   4912        ldr r1, [pc, #72]   ; (0x73a4)
    735a:   2208        movs r2, #8
    735c:   3112        adds r1, #18
    735e:   2001        movs r0, #1
    7360:   f7ff fb64   bl 0x6a2c           ; call usb_copy_send(1, ptr, 8)

  0x7364:   6bf8        ldr r0, [r7, #60]   ; 0x3c
    7366:   0780        lsls r0, r0, #30
    7368:   d519        bpl.n 0x739e
    736a:   78a8        ldrb r0, [r5, #2]
    736c:   b120        cbz r0, 0x7378
    736e:   490d        ldr r1, [pc, #52]   ; (0x73a4)
    7370:   2205        movs r2, #5
    7372:   70ac        strb r4, [r5, #2]
    7374:   310a        adds r1, #10
    7376:   e00d        b.n 0x7394
    7378:   7868        ldrb r0, [r5, #1]
    737a:   b120        cbz r0, 0x7386
    737c:   4909        ldr r1, [pc, #36]   ; (0x73a4)
    737e:   2202        movs r2, #2
    7380:   706c        strb r4, [r5, #1]
    7382:   1e89        subs r1, r1, #2
    7384:   e006        b.n 0x7394

  0x7386:   78e8        ldrb r0, [r5, #3]
    7388:   2800        cmp r0, #0
    738a:   d008        beq.n 0x739e        ; return if r0 == 0

    ; Send 31 bytes on endpoint 2
    738c:   4909        ldr r1, [pc, #36]   ; (0x73b4)
    738e:   221f        movs r2, #31
    7390:   70ec        strb r4, [r5, #3]
    7392:   3118        adds r1, #24
  0x7394:   e8bd 41f0   ldmia.w sp!, {r4, r5, r6, r7, r8, lr}
    7398:   2002        movs r0, #2
    739a:   f7ff bb47   b.w 0x6a2c          ; call usb_copy_send(2, ptr, 31)
  0x739e:   e8bd 81f0   ldmia.w sp!, {r4, r5, r6, r7, r8, pc}
    73a2:   0000

  0x73a4:   0x2000003e
  0x73a8:   0x20000028
  0x73ac:   0x400a8000  ; USB
  0x73b0:   0x20000608  ; update_packet
  0x73b4:   0x200006bc

  0x73b8:   b5f0        push {r4, r5, r6, r7, lr}
    73ba:   8801        ldrh r1, [r0, #0]
    73bc:   f44f 7680   mov.w r6, #256   ; 0x100
    73c0:   f640 1521   movw r5, #2337   ; 0x921
    73c4:   0077        lsls r7, r6, #1
    73c6:   2301        movs r3, #1
    73c8:   4c35        ldr r4, [pc, #212]   ; (0x74a0)
    73ca:   f6a1 1221   subw r2, r1, #2337   ; 0x921
    73ce:   42a9        cmp r1, r5
    73d0:   d03c        beq.n 0x744c
    73d2:   dc0d        bgt.n 0x73f0
    73d4:   f512 61f0   adds.w r1, r2, #1920   ; 0x780
    73d8:   d013        beq.n 0x7402
    73da:   42b1        cmp r1, r6
    73dc:   d030        beq.n 0x7440
    73de:   42b9        cmp r1, r7
    73e0:   d145        bne.n 0x746e
    73e2:   8881        ldrh r1, [r0, #4]
    73e4:   2900        cmp r1, #0
    73e6:   d142        bne.n 0x746e
    73e8:   492e        ldr r1, [pc, #184]   ; (0x74a4)
    73ea:   e9c0 1307   strd r1, r3, [r0, #28]
    73ee:   e053        b.n 0x7498
    73f0:   2500        movs r5, #0
    73f2:   42b2        cmp r2, r6
    73f4:   d03d        beq.n 0x7472
    73f6:   42ba        cmp r2, r7
    73f8:   d139        bne.n 0x746e
    73fa:   8882        ldrh r2, [r0, #4]
    73fc:   7881        ldrb r1, [r0, #2]
    73fe:   b3ba        cbz r2, 0x7470
    7400:   e049        b.n 0x7496
    7402:   78c5        ldrb r5, [r0, #3]
    7404:   7882        ldrb r2, [r0, #2]
    7406:   88c4        ldrh r4, [r0, #6]
    7408:   8881        ldrh r1, [r0, #4]
    740a:   2d01        cmp r5, #1
    740c:   d12f        bne.n 0x746e
    740e:   b161        cbz r1, 0x742a
    7410:   2901        cmp r1, #1
    7412:   d02c        beq.n 0x746e
    7414:   2902        cmp r1, #2
    7416:   d12a        bne.n 0x746e
    7418:   2a01        cmp r2, #1
    741a:   d009        beq.n 0x7430
    741c:   2a02        cmp r2, #2
    741e:   d00c        beq.n 0x743a
    7420:   2a04        cmp r2, #4
    7422:   d124        bne.n 0x746e
    7424:   491e        ldr r1, [pc, #120]   ; (0x74a0)
    7426:   310c        adds r1, #12
    7428:   e004        b.n 0x7434
    742a:   491e        ldr r1, [pc, #120]   ; (0x74a4)
    742c:   3118        adds r1, #24
    742e:   e001        b.n 0x7434
    7430:   491c        ldr r1, [pc, #112]   ; (0x74a4)
    7432:   1d09        adds r1, r1, #4
    7434:   e9c0 1407   strd r1, r4, [r0, #28]
    7438:   e02e        b.n 0x7498
    743a:   491a        ldr r1, [pc, #104]   ; (0x74a4)
    743c:   3110        adds r1, #16
    743e:   e7f9        b.n 0x7434
    7440:   8881        ldrh r1, [r0, #4]
    7442:   2900        cmp r1, #0
    7444:   d113        bne.n 0x746e
    7446:   e9c0 4307   strd r4, r3, [r0, #28]
    744a:   e025        b.n 0x7498
    744c:   78c3        ldrb r3, [r0, #3]
    744e:   88c2        ldrh r2, [r0, #6]
    7450:   8881        ldrh r1, [r0, #4]
    7452:   6202        str r2, [r0, #32]
    7454:   2b02        cmp r3, #2
    7456:   d10a        bne.n 0x746e
    7458:   2900        cmp r1, #0
    745a:   d108        bne.n 0x746e
    745c:   4a11        ldr r2, [pc, #68]   ; (0x74a4)
    745e:   320c        adds r2, #12
    7460:   61c2        str r2, [r0, #28]
    7462:   4a11        ldr r2, [pc, #68]   ; (0x74a8)
    7464:   e9c0 210a   strd r2, r1, [r0, #40]   ; 0x28
    7468:   2102        movs r1, #2
    746a:   f880 1024   strb.w r1, [r0, #36]   ; 0x24
    746e:   bdf0        pop {r4, r5, r6, r7, pc}
    7470:   e00e        b.n 0x7490
    7472:   8882        ldrh r2, [r0, #4]
    7474:   78c1        ldrb r1, [r0, #3]
    7476:   2a00        cmp r2, #0
    7478:   d1f9        bne.n 0x746e
    747a:   f44f 627a   mov.w r2, #4000   ; 0xfa0
    747e:   6021        str r1, [r4, #0]
    7480:   4351        muls r1, r2
    7482:   10d2        asrs r2, r2, #3
    7484:   fbb1 f1f2   udiv r1, r1, r2
    7488:   4a05        ldr r2, [pc, #20]   ; (0x74a0)
    748a:   3a0c        subs r2, #12
    748c:   6011        str r1, [r2, #0]
    748e:   e002        b.n 0x7496
    7490:   4a04        ldr r2, [pc, #16]   ; (0x74a4)
    7492:   1f12        subs r2, r2, #4
    7494:   7111        strb r1, [r2, #4]
    7496:   6205        str r5, [r0, #32]
    7498:   f880 3024   strb.w r3, [r0, #36]   ; 0x24
    749c:   e7e7        b.n 0x746e
    749e:   0000        movs r0, r0
    74a0:   06c8        lsls r0, r1, #27
    74a2:   2000        movs r0, #0
    74a4:   0038        movs r0, r7
    74a6:   2000        movs r0, #0
    74a8:   74ad        strb r5, [r5, #18]
    74aa:   0000        movs r0, r0
    
  0x74ac:   4a01        ldr r2, [pc, #4]   ; (0x74b4)
    74ae:   2101        movs r1, #1
    74b0:   5411        strb r1, [r2, r0]
    74b2:   4770        bx lr
    74b4:   003e        movs r6, r7
    74b6:   2000        movs r0, #0
    
  0x74b8:   78c2        ldrb r2, [r0, #3]
    74ba:   8881        ldrh r1, [r0, #4]
    74bc:   2301        movs r3, #1
    74be:   2a21        cmp r2, #33   ; 0x21
    74c0:   d007        beq.n 0x74d2
    74c2:   2a22        cmp r2, #34   ; 0x22
    74c4:   d121        bne.n 0x750a
    74c6:   b1a9        cbz r1, 0x74f4
    74c8:   2901        cmp r1, #1
    74ca:   d017        beq.n 0x74fc
    74cc:   2902        cmp r1, #2
    74ce:   d11a        bne.n 0x7506
    74d0:   e01c        b.n 0x750c
    74d2:   b121        cbz r1, 0x74de
    74d4:   2901        cmp r1, #1
    74d6:   d005        beq.n 0x74e4
    74d8:   2902        cmp r1, #2
    74da:   d106        bne.n 0x74ea
    74dc:   e007        b.n 0x74ee
    74de:   68c1        ldr r1, [r0, #12]
    74e0:   3109        adds r1, #9
    74e2:   e001        b.n 0x74e8
    74e4:   68c1        ldr r1, [r0, #12]
    74e6:   3122        adds r1, #34   ; 0x22
    74e8:   61c1        str r1, [r0, #28]
    74ea:   2109        movs r1, #9
    74ec:   e00a        b.n 0x7504
    74ee:   68c1        ldr r1, [r0, #12]
    74f0:   3142        adds r1, #66   ; 0x42
    74f2:   e7f9        b.n 0x74e8
    74f4:   4908        ldr r1, [pc, #32]   ; (0x7518)
    74f6:   61c1        str r1, [r0, #28]
    74f8:   2140        movs r1, #64   ; 0x40
    74fa:   e003        b.n 0x7504
    74fc:   4906        ldr r1, [pc, #24]   ; (0x7518)
    74fe:   39ac        subs r1, #172   ; 0xac
    7500:   61c1        str r1, [r0, #28]
    7502:   2122        movs r1, #34   ; 0x22
    7504:   6201        str r1, [r0, #32]
    7506:   f880 3024   strb.w r3, [r0, #36]   ; 0x24
    750a:   4770        bx lr
    750c:   4902        ldr r1, [pc, #8]   ; (0x7518)
    750e:   3988        subs r1, #136   ; 0x88
    7510:   61c1        str r1, [r0, #28]
    7512:   2186        movs r1, #134   ; 0x86
    7514:   e7f6        b.n 0x7504
    7516:   0000

  0x7518:   0x8020

  0x751c:   b570        push {r4, r5, r6, lr}
    751e:   4604        mov r4, r0
    7520:   2000        movs r0, #0
    7522:   f7ff f9ff   bl 0x6924
    7526:   4605        mov r5, r0
    7528:   6a20        ldr r0, [r4, #32]
    752a:   1c41        adds r1, r0, #1
    752c:   d016        beq.n 0x755c
    752e:   f894 1024   ldrb.w r1, [r4, #36]   ; 0x24
    7532:   2901        cmp r1, #1
    7534:   d112        bne.n 0x755c
    7536:   42a8        cmp r0, r5
    7538:   d302        bcc.n 0x7540
    753a:   1b40        subs r0, r0, r5
    753c:   6220        str r0, [r4, #32]
    753e:   e005        b.n 0x754c
    7540:   4605        mov r5, r0
    7542:   2000        movs r0, #0
    7544:   6220        str r0, [r4, #32]
    7546:   2002        movs r0, #2
    7548:   f884 0024   strb.w r0, [r4, #36]   ; 0x24

    754c:   462a        mov r2, r5
    754e:   2000        movs r0, #0
    7550:   69e1        ldr r1, [r4, #28]
    7552:   f7ff fa6b   bl 0x6a2c           ; call usb_copy_send

    7556:   69e0        ldr r0, [r4, #28]
    7558:   4428        add r0, r5
    755a:   61e0        str r0, [r4, #28]
    755c:   bd70        pop {r4, r5, r6, pc}
    755e:   0000        movs r0, r0
    7560:   b510        push {r4, lr}
    7562:   4604        mov r4, r0
    7564:   2000        movs r0, #0
    7566:   f884 0024   strb.w r0, [r4, #36]   ; 0x24
    756a:   6220        str r0, [r4, #32]
    756c:   7820        ldrb r0, [r4, #0]
    756e:   f010 0060   ands.w r0, r0, #96   ; 0x60
    7572:   d002        beq.n 0x757a
    7574:   2820        cmp r0, #32
    7576:   d109        bne.n 0x758c
    7578:   e003        b.n 0x7582
    757a:   4620        mov r0, r4
    757c:   f000 f840   bl 0x7600
    7580:   e004        b.n 0x758c
    7582:   4810        ldr r0, [pc, #64]   ; (0x75c4)
    7584:   6941        ldr r1, [r0, #20]
    7586:   b109        cbz r1, 0x758c
    7588:   4620        mov r0, r4
    758a:   4788        blx r1
    758c:   f894 0024   ldrb.w r0, [r4, #36]   ; 0x24
    7590:   2801        cmp r0, #1
    7592:   d006        beq.n 0x75a2
    7594:   2802        cmp r0, #2
    7596:   d00e        beq.n 0x75b6
    7598:   e8bd 4010   ldmia.w sp!, {r4, lr}
    759c:   2000        movs r0, #0
    759e:   f7ff ba35   b.w 0x6a0c
    75a2:   88e0        ldrh r0, [r4, #6]
    75a4:   6a21        ldr r1, [r4, #32]
    75a6:   4281        cmp r1, r0
    75a8:   dd00        ble.n 0x75ac
    75aa:   6220        str r0, [r4, #32]
    75ac:   4620        mov r0, r4
    75ae:   e8bd 4010   ldmia.w sp!, {r4, lr}
    75b2:   f7ff bfb3   b.w 0x751c

  0x75b6:   2200        movs r2, #0
    75b8:   e8bd 4010   ldmia.w sp!, {r4, lr}
    75bc:   4611        mov r1, r2
    75be:   4610        mov r0, r2
    75c0:   f7ff ba34   b.w 0x6a2c          ; return usb_copy_send

    75c4:   80f8        strh r0, [r7, #6]
    75c6:   0000        movs r0, r0
    75c8:   b510        push {r4, lr}
    75ca:   4604        mov r4, r0
    75cc:   2000        movs r0, #0
    75ce:   7660        strb r0, [r4, #25]
    75d0:   b149        cbz r1, 0x75e6
    75d2:   2901        cmp r1, #1
    75d4:   d009        beq.n 0x75ea
    75d6:   2902        cmp r1, #2
    75d8:   d110        bne.n 0x75fc
    75da:   7920        ldrb r0, [r4, #4]
    75dc:   f000 000f   and.w r0, r0, #15
    75e0:   f7ff f9a7   bl 0x6932
    75e4:   e001        b.n 0x75ea
    75e6:   f894 0034   ldrb.w r0, [r4, #52]   ; 0x34
    75ea:   7620        strb r0, [r4, #24]
    75ec:   f104 0018   add.w r0, r4, #24
    75f0:   61e0        str r0, [r4, #28]
    75f2:   2002        movs r0, #2
    75f4:   6220        str r0, [r4, #32]
    75f6:   2001        movs r0, #1
    75f8:   f884 0024   strb.w r0, [r4, #36]   ; 0x24
    75fc:   bd10        pop {r4, pc}
    75fe:   0000        movs r0, r0
    7600:   b570        push {r4, r5, r6, lr}
    7602:   4604        mov r4, r0
    7604:   8800        ldrh r0, [r0, #0]
    7606:   2501        movs r5, #1
    7608:   f5b0 6fa0   cmp.w r0, #1280   ; 0x500
    760c:   d04f        beq.n 0x76ae
    760e:   dc20        bgt.n 0x7652
    7610:   f5b0 7f80   cmp.w r0, #256   ; 0x100
    7614:   d044        beq.n 0x76a0
    7616:   dc0b        bgt.n 0x7630
    7618:   2880        cmp r0, #128   ; 0x80
    761a:   d03d        beq.n 0x7698
    761c:   2881        cmp r0, #129   ; 0x81
    761e:   d03d        beq.n 0x769c
    7620:   2882        cmp r0, #130   ; 0x82
    7622:   d166        bne.n 0x76f2
    7624:   2102        movs r1, #2
    7626:   4620        mov r0, r4
    7628:   e8bd 4070   ldmia.w sp!, {r4, r5, r6, lr}
    762c:   f7ff bfcc   b.w 0x75c8
    7630:   f5b0 7f81   cmp.w r0, #258   ; 0x102
    7634:   d036        beq.n 0x76a4
    7636:   f5b0 7f40   cmp.w r0, #768   ; 0x300
    763a:   d035        beq.n 0x76a8
    763c:   f5a0 7040   sub.w r0, r0, #768   ; 0x300
    7640:   3802        subs r0, #2
    7642:   d156        bne.n 0x76f2
    7644:   2201        movs r2, #1
    7646:   2102        movs r1, #2
    7648:   4620        mov r0, r4
    764a:   e8bd 4070   ldmia.w sp!, {r4, r5, r6, lr}
    764e:   f000 b86b   b.w 0x7728
    7652:   4933        ldr r1, [pc, #204]   ; (0x7720)
    7654:   f5b0 6f10   cmp.w r0, #2304   ; 0x900
    7658:   d04e        beq.n 0x76f8
    765a:   dc0f        bgt.n 0x767c
    765c:   f5b0 6fd0   cmp.w r0, #1664   ; 0x680
    7660:   d02c        beq.n 0x76bc
    7662:   f5a0 60c0   sub.w r0, r0, #1536   ; 0x600
    7666:   3881        subs r0, #129   ; 0x81
    7668:   d044        beq.n 0x76f4
    766a:   f5a0 7080   sub.w r0, r0, #256   ; 0x100
    766e:   38ff        subs r0, #255   ; 0xff
    7670:   d13f        bne.n 0x76f2
    7672:   f104 0030   add.w r0, r4, #48   ; 0x30
    7676:   e9c4 0507   strd r0, r5, [r4, #28]
    767a:   e038        b.n 0x76ee
    767c:   f5a0 6020   sub.w r0, r0, #2560   ; 0xa00
    7680:   3881        subs r0, #129   ; 0x81
    7682:   d04a        beq.n 0x771a
    7684:   2880        cmp r0, #128   ; 0x80
    7686:   d134        bne.n 0x76f2
    7688:   68c8        ldr r0, [r1, #12]
    768a:   2800        cmp r0, #0
    768c:   d031        beq.n 0x76f2
    768e:   4601        mov r1, r0
    7690:   4620        mov r0, r4
    7692:   e8bd 4070   ldmia.w sp!, {r4, r5, r6, lr}
    7696:   4708        bx r1
    7698:   2100        movs r1, #0
    769a:   e7c4        b.n 0x7626
    769c:   2101        movs r1, #1
    769e:   e7c2        b.n 0x7626
    76a0:   2200        movs r2, #0
    76a2:   e002        b.n 0x76aa
    76a4:   2200        movs r2, #0
    76a6:   e7ce        b.n 0x7646
    76a8:   2201        movs r2, #1
    76aa:   2100        movs r1, #0
    76ac:   e7cc        b.n 0x7648
    76ae:   78a0        ldrb r0, [r4, #2]
    76b0:   f7ff faaa   bl 0x6c08
    76b4:   f884 5024   strb.w r5, [r4, #36]   ; 0x24
    76b8:   2005        movs r0, #5
    76ba:   e02b        b.n 0x7714
    76bc:   78e0        ldrb r0, [r4, #3]
    76be:   2801        cmp r0, #1
    76c0:   d00f        beq.n 0x76e2
    76c2:   2802        cmp r0, #2
    76c4:   d00f        beq.n 0x76e6
    76c6:   2803        cmp r0, #3
    76c8:   d113        bne.n 0x76f2
    76ca:   78a0        ldrb r0, [r4, #2]
    76cc:   6961        ldr r1, [r4, #20]
    76ce:   4281        cmp r1, r0
    76d0:   d90f        bls.n 0x76f2
    76d2:   6921        ldr r1, [r4, #16]
    76d4:   f851 0020   ldr.w r0, [r1, r0, lsl #2]
    76d8:   2800        cmp r0, #0
    76da:   d00a        beq.n 0x76f2
    76dc:   61e0        str r0, [r4, #28]
    76de:   7800        ldrb r0, [r0, #0]
    76e0:   e004        b.n 0x76ec
    76e2:   68a0        ldr r0, [r4, #8]
    76e4:   e7fa        b.n 0x76dc
    76e6:   68e0        ldr r0, [r4, #12]
    76e8:   61e0        str r0, [r4, #28]
    76ea:   8840        ldrh r0, [r0, #2]
    76ec:   6220        str r0, [r4, #32]
    76ee:   f884 5024   strb.w r5, [r4, #36]   ; 0x24
    76f2:   bd70        pop {r4, r5, r6, pc}
    76f4:   6888        ldr r0, [r1, #8]
    76f6:   e7c8        b.n 0x768a
    76f8:   78a0        ldrb r0, [r4, #2]
    76fa:   f884 0030   strb.w r0, [r4, #48]   ; 0x30
    76fe:   f884 5024   strb.w r5, [r4, #36]   ; 0x24
    7702:   2501        movs r5, #1
    7704:   4907        ldr r1, [pc, #28]   ; (0x7724)
    7706:   b268        sxtb r0, r5
    7708:   f7ff f930   bl 0x696c
    770c:   1c6d        adds r5, r5, #1
    770e:   2d08        cmp r5, #8
    7710:   d3f8        bcc.n 0x7704
    7712:   2006        movs r0, #6
    7714:   f884 0032   strb.w r0, [r4, #50]   ; 0x32
    7718:   bd70        pop {r4, r5, r6, pc}
    771a:   6908        ldr r0, [r1, #16]
    771c:   e7b5        b.n 0x768a
    771e:   0000        movs r0, r0
    7720:   80f8        strh r0, [r7, #6]
    7722:   0000        movs r0, r0
    7724:   0168        lsls r0, r5, #5
    7726:   2000        movs r0, #0
    7728:   b570        push {r4, r5, r6, lr}
    772a:   4604        mov r4, r0
    772c:   2601        movs r6, #1
    772e:   b161        cbz r1, 0x774a
    7730:   2902        cmp r1, #2
    7732:   d109        bne.n 0x7748
    7734:   7920        ldrb r0, [r4, #4]
    7736:   f010 050f   ands.w r5, r0, #15
    773a:   d003        beq.n 0x7744
    773c:   b182        cbz r2, 0x7760
    773e:   4628        mov r0, r5
    7740:   f7ff f96a   bl 0x6a18

  0x7744:   f884 6024   strb.w r6, [r4, #36]   ; 0x24
    7748:   bd70        pop {r4, r5, r6, pc}
    774a:   78a0        ldrb r0, [r4, #2]
    774c:   2801        cmp r0, #1
    774e:   d1fb        bne.n 0x7748
    7750:   f814 0f34   ldrb.w r0, [r4, #52]!
    7754:   f362 0041   bfi r0, r2, #1, #1
    7758:   f804 0910   strb.w r0, [r4], #-16
    775c:   7026        strb r6, [r4, #0]
    775e:   bd70        pop {r4, r5, r6, pc}
    7760:   6ba0        ldr r0, [r4, #56]   ; 0x38
    7762:   2800        cmp r0, #0
    7764:   d1ee        bne.n 0x7744
    7766:   4628        mov r0, r5
    7768:   f7ff f8b0   bl 0x68cc
    776c:   4628        mov r0, r5
    776e:   f7ff f8a5   bl 0x68bc
    7772:   e7e7        b.n 0x7744

copy_words:
    ; r0 = src
    ; r1 = dest
    ; r2 = word count
  0x7774:   1e52        subs r2, r2, #1
    7776:   d404        bmi.n 0x7782
    7778:   f850 3022   ldr.w r3, [r0, r2, lsl #2]
    777c:   f841 3022   str.w r3, [r1, r2, lsl #2]
    7780:   e7f8        b.n 0x7774
  0x7782:   4770        bx lr

usb_get_ep_reg:
    ; r0 = ep #
  0x7784:   4902        ldr r1, [pc, #8]   ; (0x7790)
    7786:   eb00 0080   add.w r0, r0, r0, lsl #2
    778a:   eb01 0080   add.w r0, r1, r0, lsl #2
    778e:   4770        bx lr

  0x7790:   0x400a8014  0x400a8014

function_130_9:
  0x7794:   e92d 47f0   stmdb sp!, {r4, r5, r6, r7, r8, r9, sl, lr}
    ; Set EXTIEN
    ; Enable external interrupt clock
    7798:   2700        movs r7, #0
    779a:   f44f 4100   mov.w r1, #32768   ; 0x8000
    779e:   463a        mov r2, r7
    77a0:   468a        mov sl, r1
    77a2:   2301        movs r3, #1
    77a4:   4610        mov r0, r2
    77a6:   f7fc f86f   bl 0x3888           ; call ckcu_clocks_enable(0, 0x8000, 0, 1)

    77aa:   4824        ldr r0, [pc, #144]   ; (0x783c)
    77ac:   f7fe ff52   bl 0x6654
    77b0:   4d23        ldr r5, [pc, #140]   ; (0x7840)
    77b2:   4604        mov r4, r0
    77b4:   f64e 26e0   movw r6, #60128   ; 0xeae0
    77b8:   2801        cmp r0, #1
    77ba:   d106        bne.n 0x77ca
    77bc:   6d68        ldr r0, [r5, #84]   ; 0x54
    77be:   4330        orrs r0, r6
    77c0:   6568        str r0, [r5, #84]   ; 0x54
    77c2:   65ae        str r6, [r5, #88]   ; 0x58
    77c4:   6d28        ldr r0, [r5, #80]   ; 0x50
    77c6:   4330        orrs r0, r6
    77c8:   6528        str r0, [r5, #80]   ; 0x50
    77ca:   f8df 8070   ldr.w r8, [pc, #112]   ; 0x783c
    77ce:   f898 0032   ldrb.w r0, [r8, #50]   ; 0x32
    77d2:   2803        cmp r0, #3
    77d4:   d11e        bne.n 0x7814
    77d6:   f8df 906c   ldr.w r9, [pc, #108]   ; 0x7844
    77da:   f8d9 0000   ldr.w r0, [r9]
    77de:   f010 0fc0   tst.w r0, #192   ; 0xc0
    77e2:   d017        beq.n 0x7814
    77e4:   2001        movs r0, #1
    77e6:   f7fd ff0f   bl 0x5608
    77ea:   4917        ldr r1, [pc, #92]   ; (0x7848)
    77ec:   714f        strb r7, [r1, #5]
    77ee:   f898 0032   ldrb.w r0, [r8, #50]   ; 0x32
    77f2:   2803        cmp r0, #3
    77f4:   d10e        bne.n 0x7814
    77f6:   f8d9 0000   ldr.w r0, [r9]
    77fa:   f010 0fc0   tst.w r0, #192   ; 0xc0
    77fe:   d009        beq.n 0x7814
    7800:   f7ff fa2a   bl 0x6c58
    7804:   f44f 707a   mov.w r0, #1000   ; 0x3e8
    7808:   f7fb ffdc   bl 0x37c4
    780c:   65ae        str r6, [r5, #88]   ; 0x58
    780e:   2000        movs r0, #0
    7810:   f7fe fa18   bl 0x5c44
    7814:   6da8        ldr r0, [r5, #88]   ; 0x58
    7816:   4230        tst r0, r6
    7818:   d008        beq.n 0x782c
    781a:   2c01        cmp r4, #1
    781c:   d106        bne.n 0x782c
    781e:   4807        ldr r0, [pc, #28]   ; (0x783c)
    7820:   f7fe ffde   bl 0x67e0
    7824:   2801        cmp r0, #1
    7826:   d101        bne.n 0x782c
    7828:   f7fe ffe2   bl 0x67f0

    ; Unset EXTIEN
    ; Disable external interrupt clock
    782c:   463a        mov r2, r7
    782e:   4651        mov r1, sl
    7830:   e8bd 47f0   ldmia.w sp!, {r4, r5, r6, r7, r8, r9, sl, lr}
    7834:   2300        movs r3, #0
    7836:   4610        mov r0, r2
    7838:   f7fc b826   b.w 0x3888          ; return ckcu_clocks_enable(0, 0x8000, 0, 0)

  0x783c:   0x200006f4
  0x7840:   0x40024000  ; EXTI
  0x7844:   0x400a8000  ; USB
  0x7848:   0x20000034

sram_init_func_1:
  0x784c:   e002        b.n 0x7854

  0x784e:   c808        ldmia r0!, {r3}
    7850:   1f12        subs r2, r2, #4
    7852:   c108        stmia r1!, {r3}
  0x7854:   2a00        cmp r2, #0
    7856:   d1fa        bne.n 0x784e
    7858:   4770        bx lr

    785a:   4770        bx lr

sram_init_func_2:
  0x785c:   2000        movs r0, #0
    785e:   e001        b.n 0x7864

  0x7860:   c101        stmia r1!, {r0}
    7862:   1f12        subs r2, r2, #4
  0x7864:   2a00        cmp r2, #0
    7866:   d1fb        bne.n 0x7860
    7868:   4770        bx lr
    786a:   0000

main:
  0x786c:   f7fd ff32   bl 0x56d4           ; call setup_intr_priority()
    7870:   f7fb ffae   bl 0x37d0           ; call setup_afio_gpio()
    7874:   f7fd ffb0   bl 0x57d8
    7878:   20ff        movs r0, #255   ; 0xff
    787a:   f7fc fad1   bl 0x3e20
    787e:   f7fe fbaf   bl 0x5fe0
    7882:   f7fe f9c3   bl 0x5c0c
    7886:   f7fe fcd9   bl 0x623c
    788a:   f7fd fad1   bl 0x4e30
    788e:   2000        movs r0, #0
    7890:   f7fc fef2   bl 0x4678
    7894:   492f        ldr r1, [pc, #188]   ; (0x7954)
    7896:   2000        movs r0, #0
    7898:   6008        str r0, [r1, #0]
    789a:   f7fd feef   bl 0x567c
    789e:   f7fd ff07   bl 0x56b0
    78a2:   2000        movs r0, #0
    78a4:   f7fd feb0   bl 0x5608

    78a8:   200a        movs r0, #10
    78aa:   f7fb ff8b   bl 0x37c4           ; call spin_wait_maybe

    78ae:   2001        movs r0, #1
    78b0:   f7fe fb54   bl 0x5f5c
    78b4:   f7fd fac2   bl 0x4e3c
    78b8:   4c27        ldr r4, [pc, #156]   ; (0x7958)
    78ba:   b108        cbz r0, 0x78c0
    78bc:   2001        movs r0, #1
    78be:   80a0        strh r0, [r4, #4]
    78c0:   88a0        ldrh r0, [r4, #4]
    78c2:   b188        cbz r0, 0x78e8
    78c4:   f7fe fd54   bl 0x6370
    78c8:   f7fe f9b7   bl 0x5c3a           ; call pinmux_c0_gptm()
    78cc:   2000        movs r0, #0
    78ce:   f7fe fb45   bl 0x5f5c

  0x78d2:   88a0        ldrh r0, [r4, #4]
    78d4:   1c40        adds r0, r0, #1
    78d6:   80a0        strh r0, [r4, #4]
    78d8:   f000 f844   bl 0x7964
    78dc:   2001        movs r0, #1
    78de:   f7fe f9f9   bl 0x5cd4
    78e2:   f7ff f9b9   bl 0x6c58           ; call watchdog_reload_timer
    78e6:   e7f4        b.n 0x78d2

  0x78e8:   2001        movs r0, #1
    78ea:   f7fd fe8d   bl 0x5608           ; call function_130_10(1)
    78ee:   f7fe ff8d   bl 0x680c           ; call usb_init()

    78f2:   4e1a        ldr r6, [pc, #104]  ; (0x795c)
    78f4:   4d1a        ldr r5, [pc, #104]  ; (0x7960)

    ; main loop
  0x78f6:   f7ff f94d   bl 0x6b94           ; call function_130_2
    78fa:   2801        cmp r0, #1
    78fc:   d007        beq.n 0x790e        ; if r0 == 1
    78fe:   2802        cmp r0, #2
    7900:   d00f        beq.n 0x7922        ; if r0 == 2
    7902:   2803        cmp r0, #3
    7904:   d122        bne.n 0x794c        ; if r0 == 3

    ; if r0 == 3
    7906:   2001        movs r0, #1
    7908:   f7fd fe7e   bl 0x5608           ; call function_130_10(1)
    790c:   e01e        b.n 0x794c

    ; if r0 == 1
  0x790e:   2000        movs r0, #0
    7910:   f7fd fe7a   bl 0x5608           ; call function_130_10(0)
    7914:   f7fe fd2c   bl 0x6370           ; call
    7918:   f7fe f98f   bl 0x5c3a           ; call pinmux_c0_gptm()
    791c:   2000        movs r0, #0
    791e:   f7fe fb1d   bl 0x5f5c           ; call

    ; if r0 == 2
  0x7922:   88a0        ldrh r0, [r4, #4]
    7924:   1c40        adds r0, r0, #1
    7926:   0400        lsls r0, r0, #16
    7928:   0c00        lsrs r0, r0, #16
    792a:   80a0        strh r0, [r4, #4]
    792c:   d105        bne.n 0x793a
    792e:   6828        ldr r0, [r5, #0]
    7930:   42b0        cmp r0, r6
    7932:   d902        bls.n 0x793a
    7934:   6828        ldr r0, [r5, #0]
    7936:   1e40        subs r0, r0, #1
    7938:   6028        str r0, [r5, #0]
    793a:   f7fe f9d7   bl 0x5cec           ; call handle_frame()
    793e:   f000 f811   bl 0x7964           ; call function_130_15()
    7942:   7820        ldrb r0, [r4, #0]
    7944:   b910        cbnz r0, 0x794c
    7946:   2001        movs r0, #1
    7948:   f7fe f9c4   bl 0x5cd4           ; call function_130_12(1)

    ; else
  0x794c:   f7ff f984   bl 0x6c58           ; call watchdog_reload_timer()
    7950:   e7d1        b.n 0x78f6          ; loop
    7952:   0000

  0x7954:   0x20000030
  0x7958:   0x20000028
  0x795c:   0x55aafaf0
  0x7960:   0x20003ffc

function_130_15:
  0x7964:   b570        push {r4, r5, r6, lr}
    7966:   4e32        ldr r6, [pc, #200]   ; (0x7a30)
    7968:   2400        movs r4, #0
    796a:   78f0        ldrb r0, [r6, #3]
    796c:   b160        cbz r0, 0x7988
    796e:   2001        movs r0, #1
    7970:   f7fc fe82   bl 0x4678
    7974:   b140        cbz r0, 0x7988
    7976:   78f0        ldrb r0, [r6, #3]
    7978:   2802        cmp r0, #2
    797a:   d019        beq.n 0x79b0
    797c:   f7fc fa90   bl 0x3ea0
    7980:   70f4        strb r4, [r6, #3]
    7982:   2001        movs r0, #1
    7984:   f7fd fe7a   bl 0x567c
    7988:   f7fd fc1e   bl 0x51c8
    798c:   2800        cmp r0, #0
    798e:   d04d        beq.n 0x7a2c
    7990:   4d28        ldr r5, [pc, #160]   ; (0x7a34)
    7992:   78a8        ldrb r0, [r5, #2]
    7994:   2820        cmp r0, #32
    7996:   d303        bcc.n 0x79a0
    7998:   3820        subs r0, #32
    799a:   70a8        strb r0, [r5, #2]
    799c:   2001        movs r0, #1
    799e:   70e8        strb r0, [r5, #3]
    79a0:   7868        ldrb r0, [r5, #1]
    79a2:   28ff        cmp r0, #255   ; 0xff
    79a4:   d00f        beq.n 0x79c6
    79a6:   f7fd f883   bl 0x4ab0
    79aa:   2801        cmp r0, #1
    79ac:   d003        beq.n 0x79b6
    79ae:   e00a        b.n 0x79c6
    79b0:   f7fc fa8e   bl 0x3ed0
    79b4:   e7e4        b.n 0x7980
    79b6:   7868        ldrb r0, [r5, #1]
    79b8:   f7fc fa32   bl 0x3e20
    79bc:   20ff        movs r0, #255   ; 0xff
    79be:   7068        strb r0, [r5, #1]
    79c0:   2002        movs r0, #2
    79c2:   f7fd fe5b   bl 0x567c
    79c6:   7930        ldrb r0, [r6, #4]
    79c8:   b138        cbz r0, 0x79da
    79ca:   f7fd f871   bl 0x4ab0
    79ce:   2801        cmp r0, #1
    79d0:   d103        bne.n 0x79da
    79d2:   7930        ldrb r0, [r6, #4]
    79d4:   f7fd f8a2   bl 0x4b1c
    79d8:   7134        strb r4, [r6, #4]
    79da:   f7fe fa81   bl 0x5ee0
    79de:   f7fd ff0d   bl 0x57fc
    79e2:   4815        ldr r0, [pc, #84]   ; (0x7a38)
    79e4:   7980        ldrb r0, [r0, #6]
    79e6:   2801        cmp r0, #1
    79e8:   d003        beq.n 0x79f2
    79ea:   f7fd f8a3   bl 0x4b34
    79ee:   f7fc f801   bl 0x39f4
    79f2:   78e8        ldrb r0, [r5, #3]
    79f4:   b108        cbz r0, 0x79fa
    79f6:   f7fd f8ed   bl 0x4bd4
    79fa:   7830        ldrb r0, [r6, #0]
    79fc:   b120        cbz r0, 0x7a08
    79fe:   7034        strb r4, [r6, #0]
    7a00:   f7fd fdcc   bl 0x559c
    7a04:   f7fd fdd0   bl 0x55a8
    7a08:   7870        ldrb r0, [r6, #1]
    7a0a:   b110        cbz r0, 0x7a12
    7a0c:   7074        strb r4, [r6, #1]
    7a0e:   f7fe fbdf   bl 0x61d0
    7a12:   78e8        ldrb r0, [r5, #3]
    7a14:   2800        cmp r0, #0
    7a16:   d009        beq.n 0x7a2c
    7a18:   4806        ldr r0, [pc, #24]   ; (0x7a34)
    7a1a:   78aa        ldrb r2, [r5, #2]
    7a1c:   1d80        adds r0, r0, #6
    7a1e:   7841        ldrb r1, [r0, #1]
    7a20:   4411        add r1, r2
    7a22:   7041        strb r1, [r0, #1]
    7a24:   88e8        ldrh r0, [r5, #6]
    7a26:   0840        lsrs r0, r0, #1
    7a28:   80e8        strh r0, [r5, #6]
    7a2a:   70ec        strb r4, [r5, #3]
    7a2c:   bd70        pop {r4, r5, r6, pc}
    7a2e:   0000

  0x7a30:   0x20000648
  0x7a34:   0x20000028
  0x7a38:   0x200019d0

.data:

data_1:
  0x7a3c:   4544
    7a3e:   e3e6
    7a40:   082c
    7a42:   1a14
    7a44:   0100
    7a46:   0200

data_2:
  0x7a48:   e539
    7a4a:   65e4
    7a4c:   1fe7
    7a4e:   0110
    7a50:   113b
    7a52:   3c01
    7a54:   0112
    7a56:   133d
    7a58:   4701
    7a5a:   015f
    7a5c:   3500
    7a5e:   3a01
    7a60:   3b02
    7a62:   3c03
    7a64:   3d04
    7a66:   3e05
    7a68:   3f06
    7a6a:   4007
    7a6c:   4123
    7a6e:   4224
    7a70:   4325
    7a72:   4426
    7a74:   452a
    7a76:   522b
    7a78:   5017
    7a7a:   5133
    7a7c:   4f34
    7a7e:   462d
    7a80:   472e
    7a82:   4832
    7a84:   6519
    7a86:   4a16
    7a88:   4d1e
    7a8a:   4b0f
    7a8c:   4e2c
    7a8e:   4c27
    7a90:   4c36
    7a92:   4935
    7a94:   f512 f613
    7a98:   f414 f209
    7a9c:   f00a f30b
    7aa0:   cfe8
    7aa2:   ffff 00ff
    7aa6:   ff00 00ff
    7aaa:   0000
    7aac:   0201
    7aae:   ff03 ffff
    7ab2:   04ff
    7ab4:   0504
    7ab6:   0605
    7ab8:   0106
    7aba:   0101
    7abc:   0101
    7abe:   0101
    7ac0:   0503
    7ac2:   0907
    7ac4:   010b
    7ac6:   0503
    7ac8:   0907
    7aca:   aa0b
    7acc:   466e
    7ace:   1428
    7ad0:   010a
    7ad2:   0302
    7ad4:   0604
    7ad6:   1009
    7ad8:   070b
    7ada:   0204
    7adc:   1001
    7ade:   070b
    7ae0:   0204
    7ae2:   0001
    7ae4:   0201
    7ae6:   0403
    7ae8:   0605
    7aea:   1b07
    7aec:   191a
    7aee:   1718
    7af0:   1516
    7af2:   1c14
    7af4:   1e1d
    7af6:   201f
    7af8:   2221
    7afa:   3423
    7afc:   3233
    7afe:   3031
    7b00:   2e2f
    7b02:   352d
    7b04:   3736
    7b06:   0908
    7b08:   0b0a
    7b0a:   ff0d 0cff
    7b0e:   1213
    7b10:   1011
    7b12:   ff0e 0fff
    7b16:   2524
    7b18:   2726
    7b1a:   ff28 38ff
    7b1e:   2b2c
    7b20:   292a
    7b22:   ffff ffff
    7b26:   3a39
    7b28:   ff3b 013c
    7b2c:   0101
    7b2e:   0201
    7b30:   0202
    7b32:   0802
    7b34:   0108
    7b36:   0101
    7b38:   0202
    7b3a:   0802
    7b3c:   0808
    7b3e:   0108
    7b40:   0201
    7b42:   0703
    7b44:   0707
    7b46:   0607
    7b48:   0606
    7b4a:   0706
    7b4c:   0607
    7b4e:   0202
    7b50:   0302
    7b52:   ff03 03ff
    7b56:   0303
    7b58:   0303
    7b5a:   ff04 04ff
    7b5e:   0403
    7b60:   0404
    7b62:   ff04 06ff
    7b66:   0505
    7b68:   0505
    7b6a:   ffff ffff
    7b6e:   0606
    7b70:   ff05 0005

    7b74:   1008
    7b76:   2018
    7b78:   3028
    7b7a:   0138
    7b7c:   1109
    7b7e:   2119
    7b80:   3129
    7b82:   0239
    7b84:   120a
    7b86:   221a
    7b88:   322a
    7b8a:   033a
    7b8c:   1b13
    7b8e:   2b23
    7b90:   3b33
    7b92:   0443
    7b94:   140c
    7b96:   4840
    7b98:   5850
    7b9a:   ff68 60ff
    7b9e:   4941
    7ba0:   5951
    7ba2:   ff69 61ff
    7ba6:   4a42
    7ba8:   5a52
    7baa:   ff6a 34ff
    7bae:   534b
    7bb0:   635b
    7bb2:   ffff ffff
    7bb6:   5c54
    7bb8:   ff64 006c
    7bbc:   4924
    7bbe:   926d
    7bc0:   dbb6
    7bc2:   aaff
    7bc4:   0055
    7bc6:   0000
    7bc8:   1e29
    7bca:   201f
    7bcc:   2221
    7bce:   2423
    7bd0:   142b
    7bd2:   081a
    7bd4:   1715
    7bd6:   181c
    7bd8:   0439
    7bda:   0716
    7bdc:   0a09
    7bde:   0d0b
    7be0:   1de1
    7be2:   061b
    7be4:   0519
    7be6:   1011
    7be8:   e3e0
    7bea:   25e2
    7bec:   2726
    7bee:   2a2d
    7bf0:   0064
    7bf2:   0c2e
    7bf4:   1312
    7bf6:   312f
    7bf8:   0000
    7bfa:   0e30
    7bfc:   330f
    7bfe:   2834
    7c00:   0000
    7c02:   362c
    7c04:   3837
    7c06:   35e5
    7c08:   0000
    7c0a:   e600
    7c0c:   65e7
    7c0e:   e400
    7c10:   c1c0
    7c12:   c3c2
    7c14:   0000
    7c16:   0000

gpio_map_3:
  0x7c18:   00 40 0b 40     0x400b4000  ; GPIO C
    7c1c:   00 02 00 00     0x200       ; pin 9

    7c20:   00 00 0b 40     0x400b0000  ; GPIO A
    7c24:   20 00 00 00     0x20        ; pin 5

    7c28:   00 00 0b 40     0x400b0000  ; GPIO A
    7c2c:   40 00 00 00     0x40        ; pin 6

    7c30:   00 00 0b 40     0x400b0000  ; GPIO A
    7c34:   80 00 00 00     0x80        ; pin 7

    7c38:   00 40 0b 40     0x400b4000  ; GPIO C
    7c3c:   00 08 00 00     0x800       ; pin 12

    7c40:   00 40 0b 40     0x400b4000  ; GPIO C
    7c44:   00 20 00 00     0x2000      ; pin 13

    7c48:   00 40 0b 40     0x400b4000  ; GPIO C
    7c4c:   00 40 00 00     0x4000      ; pin 14

    7c50:   00 40 0b 40     0x400b4000  ; GPIO C
    7c54:   00 80 00 00     0x8000      ; pin 15

  0x7c58:   02 09 00 05
    7c5c:   00 06 00 07
    7c60:   02 0b 02 0d
    7c64:   02 0e 02 0f

gpio_map_2:
  0x7c68:   00 40 0b 40     0x400b4000  ; GPIO C
    7c6c:   10 00 00 00     0x10        ; pin 4

    7c70:   00 20 0b 40     0x400b2000  ; GPIO B
    7c74:   40 00 00 00     0x40        ; pin 6

    7c78:   00 60 0b 40     0x400b6000  ; GPIO D
    7c7c:   01 00 00 00     0x1         ; pin 0

    7c80:   00 20 0b 40     0x400b2000  ; GPIO B
    7c84:   00 08 00 00     0x800       ; pin 11

    7c88:   00 00 0b 40     0x400b0000  ; GPIO A
    7c8c:   00 08 00 00     0x800       ; pin 11

    7c90:   00 00 0b 40     0x400b0000  ; GPIO A
    7c94:   01 00 00 00     0x1         ; pin 0

    7c98:   00 00 0b 40     0x400b0000  ; GPIO A
    7c9c:   02 00 00 00     0x2         ; pin 1

    7ca0:   00 00 0b 40     0x400b0000  ; GPIO A
    7ca4:   04 00 00 00     0x4         ; pin 2

    7ca8:   00 00 0b 40     0x400b0000  ; GPIO A
    7cac:   08 00 00 00     0x8         ; pin 3

    7cb0:   00 00 0b 40     0x400b0000  ; GPIO A
    7cb4:   10 00 00 00     0x10        ; pin 4

    7cb8:   2f2d
    7cba:   302e
    7cbc:   3414
    7cbe:   361a
    7cc0:   3708
    7cc2:   1315
    7cc4:   1c17
    7cc6:   091c
    7cc8:   0a18
    7cca:   060c
    7ccc:   1512
    7cce:   0f13
    7cd0:   382f
    7cd2:   2e30
    7cd4:   1216
    7cd6:   0807
    7cd8:   1809
    7cda:   0c0a
    7cdc:   070b
    7cde:   0b0d
    7ce0:   170e
    7ce2:   110f
    7ce4:   1633
    7ce6:   2d34
    7ce8:   331d
    7cea:   141b
    7cec:   0d06
    7cee:   0e19
    7cf0:   1b05
    7cf2:   0511
    7cf4:   1010
    7cf6:   1a36
    7cf8:   1937
    7cfa:   1d38
    7cfc:   0908
    7cfe:   1315
    7d00:   0a17
    7d02:   0d1c
    7d04:   0f18
    7d06:   180c
    7d08:   1c12
    7d0a:   3313
    7d0c:   1516
    7d0e:   1607
    7d10:   1709
    7d12:   070a
    7d14:   110d
    7d16:   080e
    7d18:   0c0f
    7d1a:   1233
    7d1c:   0e11
    7d1e:   0000
    7d20:   0100
    7d22:   0002

gpio_map_1:
  0x7d24:   00 40 0b 40     0x400b4000  ; GPIO C
    7d28:   00 01 00 00     0x100       ; pin 8

    7d2c:   00 40 0b 40     0x400b4000  ; GPIO C
    7d30:   80 00 00 00     0x80        ; pin 7

    7d34:   00 20 0b 40     0x400b2000  ; GPIO B
    7d38:   20 00 00 00     0x20        ; pin 5

    7d3c:   00 20 0b 40     0x400b2000  ; GPIO B
    7d40:   10 00 00 00     0x10        ; pin 4

    7d44:   00 20 0b 40     0x400b2000  ; GPIO B
    7d48:   08 00 00 00     0x8         ; pin 3

    7d4c:   00 20 0b 40     0x400b2000  ; GPIO B
    7d50:   04 00 00 00     0x4         ; pin 2

    7d54:   00 40 0b 40     0x400b4000  ; GPIO C
    7d58:   40 00 00 00     0x40        ; pin 6

    7d5c:   00 40 0b 40     0x400b4000  ; GPIO C
    7d60:   20 00 00 00     0x20        ; pin 5

    7d64:   0000
    7d66:   0013
    7d68:   0026
    7d6a:   003a
    7d6c:   004e
    7d6e:   0062
    7d70:   0077
    7d72:   008c
    7d74:   00a1
    7d76:   00b7
    7d78:   00cd
    7d7a:   00e3
    7d7c:   00fa
    7d7e:   0111
    7d80:   0128
    7d82:   0140
    7d84:   0158
    7d86:   0171
    7d88:   018a
    7d8a:   01a3
    7d8c:   01bd
    7d8e:   01d7
    7d90:   01f1
    7d92:   020c
    7d94:   0228
    7d96:   0243
    7d98:   0260
    7d9a:   027c
    7d9c:   029a
    7d9e:   02b7
    7da0:   02d5
    7da2:   02f4
    7da4:   0313
    7da6:   0332
    7da8:   0353
    7daa:   0373
    7dac:   0394
    7dae:   03b6
    7db0:   03d8
    7db2:   03fb
    7db4:   041e
    7db6:   0442
    7db8:   0466
    7dba:   048b
    7dbc:   04b1
    7dbe:   04d7
    7dc0:   04fd
    7dc2:   0525
    7dc4:   054d
    7dc6:   0575
    7dc8:   059f
    7dca:   05c8
    7dcc:   05f3
    7dce:   061e
    7dd0:   064a
    7dd2:   0677
    7dd4:   06a4
    7dd6:   06d2
    7dd8:   0701
    7dda:   0731
    7ddc:   0761
    7dde:   0792
    7de0:   07c4
    7de2:   07f6
    7de4:   082a
    7de6:   085e
    7de8:   0893
    7dea:   08c9
    7dec:   0900
    7dee:   0938
    7df0:   0970
    7df2:   09aa
    7df4:   09e4
    7df6:   0a1f
    7df8:   0a5b
    7dfa:   0a99
    7dfc:   0ad7
    7dfe:   0b16
    7e00:   0b56
    7e02:   0b97
    7e04:   0bd9
    7e06:   0c1d
    7e08:   0c61
    7e0a:   0ca6
    7e0c:   0ced
    7e0e:   0d34
    7e10:   0d7d
    7e12:   0dc7
    7e14:   0e12
    7e16:   0e5e
    7e18:   0eac
    7e1a:   0efb
    7e1c:   0f4b
    7e1e:   0f9c
    7e20:   0fee
    7e22:   1042
    7e24:   1097
    7e26:   10ee
    7e28:   1146
    7e2a:   119f
    7e2c:   11fa
    7e2e:   1256
    7e30:   12b4
    7e32:   1313
    7e34:   1373
    7e36:   13d5
    7e38:   1439
    7e3a:   149e
    7e3c:   1505
    7e3e:   156e
    7e40:   15d8
    7e42:   1644
    7e44:   16b2
    7e46:   1721
    7e48:   1792
    7e4a:   1805
    7e4c:   187a
    7e4e:   18f0
    7e50:   1969
    7e52:   19e3
    7e54:   1a5f
    7e56:   1ade
    7e58:   1b5e
    7e5a:   1be0
    7e5c:   1c65
    7e5e:   1ceb
    7e60:   1d74
    7e62:   1dff
    7e64:   1e8c
    7e66:   1f1b
    7e68:   1fac
    7e6a:   2040
    7e6c:   20d6
    7e6e:   216f
    7e70:   220a
    7e72:   22a8
    7e74:   2348
    7e76:   23ea
    7e78:   248f
    7e7a:   2537
    7e7c:   25e1
    7e7e:   268e
    7e80:   273e
    7e82:   27f1
    7e84:   28a6
    7e86:   295f
    7e88:   2a1a
    7e8a:   2ad8
    7e8c:   2b99
    7e8e:   2c5e
    7e90:   2d25
    7e92:   2df0
    7e94:   2ebe
    7e96:   2f8f
    7e98:   3063
    7e9a:   313b
    7e9c:   3216
    7e9e:   32f5
    7ea0:   33d7
    7ea2:   34bd
    7ea4:   35a7
    7ea6:   3694
    7ea8:   3785
    7eaa:   387a
    7eac:   3972
    7eae:   3a6f
    7eb0:   3b70
    7eb2:   3c74
    7eb4:   3d7d
    7eb6:   3e8a
    7eb8:   3f9c
    7eba:   40b1
    7ebc:   41cb
    7ebe:   42ea
    7ec0:   440d
    7ec2:   4535
    7ec4:   4661
    7ec6:   4793
    7ec8:   48c9
    7eca:   4a04
    7ecc:   4b44
    7ece:   4c89
    7ed0:   4dd3
    7ed2:   4f22
    7ed4:   5077
    7ed6:   51d2
    7ed8:   5331
    7eda:   5497
    7edc:   5602
    7ede:   5772
    7ee0:   58e9
    7ee2:   5a66
    7ee4:   5be8
    7ee6:   5d71
    7ee8:   5f00
    7eea:   6095
    7eec:   6231
    7eee:   63d3
    7ef0:   657c
    7ef2:   672c
    7ef4:   68e3
    7ef6:   6aa0
    7ef8:   6c65
    7efa:   6e31
    7efc:   7004
    7efe:   71de
    7f00:   73c0
    7f02:   75aa
    7f04:   779c
    7f06:   7995
    7f08:   7b96
    7f0a:   7da0
    7f0c:   7fb2
    7f0e:   81cc
    7f10:   83ef
    7f12:   861a
    7f14:   884f
    7f16:   8a8c
    7f18:   8cd3
    7f1a:   8f22
    7f1c:   917b
    7f1e:   93de
    7f20:   964a
    7f22:   98c0
    7f24:   9b40
    7f26:   9dcb
    7f28:   a05f
    7f2a:   a2ff
    7f2c:   a5a8
    7f2e:   a85d
    7f30:   ab1d
    7f32:   ade8
    7f34:   b0be
    7f36:   b39f
    7f38:   b68d
    7f3a:   b986
    7f3c:   bc8c
    7f3e:   bf9d
    7f40:   c2bc
    7f42:   c5e6
    7f44:   c91e
    7f46:   cc63
    7f48:   cfb5
    7f4a:   d315
    7f4c:   d682
    7f4e:   d9fd
    7f50:   dd87
    7f52:   e11f
    7f54:   e4c5
    7f56:   e87a ec3f
    7f5a:   f012 f3f5
    7f5e:   f7e9 fbec
    7f62:   ffff c0e8
    7f66:   c2c1
    7f68:   00c3
    7f6a:   0000
    7f6c:   80d0
    7f6e:   0000
    7f70:   80d4
    7f72:   0000

usb_report1_desc:
    ; USB hid report descriptor for interface 1
  0x7f74:
    ; 0x06, 0x00, 0xFF,  // Usage Page (Vendor Defined 0xFF00)
    ; 0x09, 0x01,        // Usage (0x01)
    ; 0xA1, 0x01,        // Collection (Application)
    ; 0x09, 0x02,        //   Usage (0x02)
    ; 0x15, 0x00,        //   Logical Minimum (0)
    ; 0x26, 0xFF, 0x00,  //   Logical Maximum (255)
    ; 0x75, 0x08,        //   Report Size (8)
    ; 0x95, 0x40,        //   Report Count (64)
    ; 0x81, 0x02,        //   Input (Data,Var,Abs,No Wrap,Linear,Preferred State,No Null Position)
    ; 0x09, 0x03,        //   Usage (0x03)
    ; 0x15, 0x00,        //   Logical Minimum (0)
    ; 0x26, 0xFF, 0x00,  //   Logical Maximum (255)
    ; 0x75, 0x08,        //   Report Size (8)
    ; 0x95, 0x40,        //   Report Count (64)
    ; 0x91, 0x02,        //   Output (Data,Var,Abs,No Wrap,Linear,Preferred State,No Null Position,Non-volatile)
    ; 0xC0,              // End Collection

    7f96:   00 00

usb_report2_desc:
    ; USB hid report descriptor for interface 2
  0x7f98:
    ; 0x05, 0x01,        // Usage Page (Generic Desktop Ctrls)
    ; 0x09, 0x80,        // Usage (Sys Control)
    ; 0xA1, 0x01,        // Collection (Application)
    ; 0x85, 0x01,        //   Report ID (1)
    ; 0x19, 0x81,        //   Usage Minimum (Sys Power Down)
    ; 0x29, 0x83,        //   Usage Maximum (Sys Wake Up)
    ; 0x15, 0x00,        //   Logical Minimum (0)
    ; 0x25, 0x01,        //   Logical Maximum (1)
    ; 0x95, 0x03,        //   Report Count (3)
    ; 0x75, 0x01,        //   Report Size (1)
    ; 0x81, 0x02,        //   Input (Data,Var,Abs,No Wrap,Linear,Preferred State,No Null Position)
    ; 0x95, 0x01,        //   Report Count (1)
    ; 0x75, 0x05,        //   Report Size (5)
    ; 0x81, 0x01,        //   Input (Const,Array,Abs,No Wrap,Linear,Preferred State,No Null Position)
    ; 0xC0,              // End Collection
    ; 0x05, 0x0C,        // Usage Page (Consumer)
    ; 0x09, 0x01,        // Usage (Consumer Control)
    ; 0xA1, 0x01,        // Collection (Application)
    ; 0x85, 0x02,        //   Report ID (2)
    ; 0x15, 0x00,        //   Logical Minimum (0)
    ; 0x25, 0x01,        //   Logical Maximum (1)
    ; 0x95, 0x12,        //   Report Count (18)
    ; 0x75, 0x01,        //   Report Size (1)
    ; 0x0A, 0x83, 0x01,  //   Usage (AL Consumer Control Configuration)
    ; 0x0A, 0x8A, 0x01,  //   Usage (AL Email Reader)
    ; 0x0A, 0x92, 0x01,  //   Usage (AL Calculator)
    ; 0x0A, 0x94, 0x01,  //   Usage (AL Local Machine Browser)
    ; 0x09, 0xCD,        //   Usage (Play/Pause)
    ; 0x09, 0xB7,        //   Usage (Stop)
    ; 0x09, 0xB6,        //   Usage (Scan Previous Track)
    ; 0x09, 0xB5,        //   Usage (Scan Next Track)
    ; 0x09, 0xE2,        //   Usage (Mute)
    ; 0x09, 0xEA,        //   Usage (Volume Decrement)
    ; 0x09, 0xE9,        //   Usage (Volume Increment)
    ; 0x0A, 0x21, 0x02,  //   Usage (AC Search)
    ; 0x0A, 0x23, 0x02,  //   Usage (AC Home)
    ; 0x0A, 0x24, 0x02,  //   Usage (AC Back)
    ; 0x0A, 0x25, 0x02,  //   Usage (AC Forward)
    ; 0x0A, 0x26, 0x02,  //   Usage (AC Stop)
    ; 0x0A, 0x27, 0x02,  //   Usage (AC Refresh)
    ; 0x0A, 0x2A, 0x02,  //   Usage (AC Bookmarks)
    ; 0x81, 0x02,        //   Input (Data,Var,Abs,No Wrap,Linear,Preferred State,No Null Position)
    ; 0x95, 0x01,        //   Report Count (1)
    ; 0x75, 0x0E,        //   Report Size (14)
    ; 0x81, 0x01,        //   Input (Const,Array,Abs,No Wrap,Linear,Preferred State,No Null Position)
    ; 0xC0,              // End Collection
    ; 0x05, 0x01,        // Usage Page (Generic Desktop Ctrls)
    ; 0x09, 0x06,        // Usage (Keyboard)
    ; 0xA1, 0x01,        // Collection (Application)
    ; 0x85, 0x04,        //   Report ID (4)
    ; 0x05, 0x07,        //   Usage Page (Kbrd/Keypad)
    ; 0x95, 0x01,        //   Report Count (1)
    ; 0x75, 0x08,        //   Report Size (8)
    ; 0x81, 0x03,        //   Input (Const,Var,Abs,No Wrap,Linear,Preferred State,No Null Position)
    ; 0x95, 0xE8,        //   Report Count (232)
    ; 0x75, 0x01,        //   Report Size (1)
    ; 0x15, 0x00,        //   Logical Minimum (0)
    ; 0x25, 0x01,        //   Logical Maximum (1)
    ; 0x05, 0x07,        //   Usage Page (Kbrd/Keypad)
    ; 0x19, 0x00,        //   Usage Minimum (0x00)
    ; 0x29, 0xE7,        //   Usage Maximum (0xE7)
    ; 0x81, 0x00,        //   Input (Data,Array,Abs,No Wrap,Linear,Preferred State,No Null Position)
    ; 0xC0,              // End Collection

    801e:   00 00

usb_report0_desc:
    ; UBS hid report descriptor for interface 0
  0x8020:
    ; 0x05, 0x01,        // Usage Page (Generic Desktop Ctrls)
    ; 0x09, 0x06,        // Usage (Keyboard)
    ; 0xA1, 0x01,        // Collection (Application)
    ; 0x05, 0x07,        //   Usage Page (Kbrd/Keypad)
    ; 0x19, 0xE0,        //   Usage Minimum (0xE0)
    ; 0x29, 0xE7,        //   Usage Maximum (0xE7)
    ; 0x15, 0x00,        //   Logical Minimum (0)
    ; 0x25, 0x01,        //   Logical Maximum (1)
    ; 0x75, 0x01,        //   Report Size (1)
    ; 0x95, 0x08,        //   Report Count (8)
    ; 0x81, 0x02,        //   Input (Data,Var,Abs,No Wrap,Linear,Preferred State,No Null Position)
    ; 0x95, 0x01,        //   Report Count (1)
    ; 0x75, 0x08,        //   Report Size (8)
    ; 0x81, 0x03,        //   Input (Const,Var,Abs,No Wrap,Linear,Preferred State,No Null Position)
    ; 0x95, 0x03,        //   Report Count (3)
    ; 0x75, 0x01,        //   Report Size (1)
    ; 0x05, 0x08,        //   Usage Page (LEDs)
    ; 0x19, 0x01,        //   Usage Minimum (Num Lock)
    ; 0x29, 0x03,        //   Usage Maximum (Scroll Lock)
    ; 0x91, 0x02,        //   Output (Data,Var,Abs,No Wrap,Linear,Preferred State,No Null Position,Non-volatile)
    ; 0x95, 0x01,        //   Report Count (1)
    ; 0x75, 0x05,        //   Report Size (5)
    ; 0x91, 0x03,        //   Output (Const,Var,Abs,No Wrap,Linear,Preferred State,No Null Position,Non-volatile)
    ; 0x95, 0x06,        //   Report Count (6)
    ; 0x75, 0x08,        //   Report Size (8)
    ; 0x15, 0x00,        //   Logical Minimum (0)
    ; 0x26, 0xA4, 0x00,  //   Logical Maximum (164)
    ; 0x05, 0x07,        //   Usage Page (Kbrd/Keypad)
    ; 0x19, 0x00,        //   Usage Minimum (0x00)
    ; 0x29, 0xA4,        //   Usage Maximum (0xA4)
    ; 0x81, 0x00,        //   Input (Data,Array,Abs,No Wrap,Linear,Preferred State,No Null Position)
    ; 0xC0,              // End Collection

usb_config_desc:
    ; USB configuration 1 descriptor
  0x8060:
    ; 0x09,        // bLength
    ; 0x02,        // bDescriptorType (Configuration)
    ; 0x5B, 0x00,  // wTotalLength 91
    ; 0x03,        // bNumInterfaces 3
    ; 0x01,        // bConfigurationValue
    ; 0x00,        // iConfiguration (String Index)
    ; 0xA0,        // bmAttributes Remote Wakeup
    ; 0x32,        // bMaxPower 100mA

usb_interface0_desc:
    ; USB interface 0 descriptor
  0x8069:
    ; 0x09,        // bLength
    ; 0x04,        // bDescriptorType (Interface)
    ; 0x00,        // bInterfaceNumber 0
    ; 0x00,        // bAlternateSetting
    ; 0x01,        // bNumEndpoints 1
    ; 0x03,        // bInterfaceClass
    ; 0x01,        // bInterfaceSubClass
    ; 0x01,        // bInterfaceProtocol
    ; 0x00,        // iInterface (String Index)

usb_hid0_desc:
    ; USB hid descriptor for interface 0
  0x8072
    ; 0x09,        // bLength
    ; 0x21,        // bDescriptorType (HID)
    ; 0x11, 0x01,  // bcdHID 1.11
    ; 0x00,        // bCountryCode
    ; 0x01,        // bNumDescriptors
    ; 0x22,        // bDescriptorType[0] (HID)
    ; 0x40, 0x00,  // wDescriptorLength[0] 64

usb_endpoint1_desc:
    ; USB endpoint 1 (in) descriptor for interface 0
  0x807b:
    ; 0x07,        // bLength
    ; 0x05,        // bDescriptorType (Endpoint)
    ; 0x81,        // bEndpointAddress (IN/D2H)
    ; 0x03,        // bmAttributes (Interrupt)
    ; 0x08, 0x00,  // wMaxPacketSize 8
    ; 0x01,        // bInterval 1 (unit depends on device speed)

usb_interface1_desc:
    ; USB interface 1 descriptor
  0x8082:
    ; 0x09,        // bLength
    ; 0x04,        // bDescriptorType (Interface)
    ; 0x01,        // bInterfaceNumber 1
    ; 0x00,        // bAlternateSetting
    ; 0x02,        // bNumEndpoints 2
    ; 0x03,        // bInterfaceClass
    ; 0x00,        // bInterfaceSubClass
    ; 0x00,        // bInterfaceProtocol
    ; 0x00,        // iInterface (String Index)

usb_hid1_desc:
    ; USB hid descriptor for interface 1
  0x808b:
    ; 0x09,        // bLength
    ; 0x21,        // bDescriptorType (HID)
    ; 0x11, 0x01,  // bcdHID 1.11
    ; 0x00,        // bCountryCode
    ; 0x01,        // bNumDescriptors
    ; 0x22,        // bDescriptorType[0] (HID)
    ; 0x22, 0x00,  // wDescriptorLength[0] 34

usb_endpoint3_desc:
    ; USB endpoint 3 (in) descriptor for interface 1
  0x8094:
    ; 0x07,        // bLength
    ; 0x05,        // bDescriptorType (Endpoint)
    ; 0x83,        // bEndpointAddress (IN/D2H)
    ; 0x03,        // bmAttributes (Interrupt)
    ; 0x40, 0x00,  // wMaxPacketSize 64
    ; 0x01,        // bInterval 1 (unit depends on device speed)

usb_endpoint4_desc:
    ; USB endpoint 4 (out) descriptor for interface 1
  0x809b:
    ; 0x07,        // bLength
    ; 0x05,        // bDescriptorType (Endpoint)
    ; 0x04,        // bEndpointAddress (OUT/H2D)
    ; 0x03,        // bmAttributes (Interrupt)
    ; 0x40, 0x00,  // wMaxPacketSize 64
    ; 0x01,        // bInterval 1 (unit depends on device speed)

usb_interface2_desc:
    ; USB interface 2 descriptor
  0x80a2:
    ; 0x09,        // bLength
    ; 0x04,        // bDescriptorType (Interface)
    ; 0x02,        // bInterfaceNumber 2
    ; 0x00,        // bAlternateSetting
    ; 0x01,        // bNumEndpoints 1
    ; 0x03,        // bInterfaceClass
    ; 0x00,        // bInterfaceSubClass
    ; 0x00,        // bInterfaceProtocol
    ; 0x00,        // iInterface (String Index)

usb hid2_desc:
    ; USB hid descriptor for interface 2
  0x80ab:
    ; 0x09,        // bLength
    ; 0x21,        // bDescriptorType (HID)
    ; 0x11, 0x01,  // bcdHID 1.11
    ; 0x00,        // bCountryCode
    ; 0x01,        // bNumDescriptors
    ; 0x22,        // bDescriptorType[0] (HID)
    ; 0x86, 0x00,  // wDescriptorLength[0] 134

usb_endpoint2_desc:
    ; USB endpoint in descriptor for interface 2
  0x80b2:
    ; 0x07,        // bLength
    ; 0x05,        // bDescriptorType (Endpoint)
    ; 0x82,        // bEndpointAddress (IN/D2H)
    ; 0x03,        // bmAttributes (Interrupt)
    ; 0x40, 0x00,  // wMaxPacketSize 64
    ; 0x01,        // bInterval 1 (unit depends on device speed)

    80bb: 00

usb_device_desc:
    ; USB device descriptor
  0x80bc:
    ; 0x12,        // bLength
    ; 0x01,        // bDescriptorType (Device)
    ; 0x10, 0x01,  // bcdUSB 1.10
    ; 0x00,        // bDeviceClass (Use class information in the Interface Descriptors)
    ; 0x00,        // bDeviceSubClass
    ; 0x00,        // bDeviceProtocol
    ; 0x40,        // bMaxPacketSize0 64
    ; 0xD9, 0x04,  // idVendor 0x04D9
    ; 0x67, 0x01,  // idProduct 0x0167
    ; 0x03, 0x11,  // bcdDevice 28.03
    ; 0x00,        // iManufacturer (String Index)
    ; 0x01,        // iProduct (String Index)
    ; 0x00,        // iSerialNumber (String Index)
    ; 0x01,        // bNumConfigurations 1

    80ce:   00 00

usb_str0_desc:
    ; USB string descriptor 0 (LANGID 0x0409 - English US)
  0x80d0:
    ; 0x04,        // bLength
    ; 0x03,        // bDescriptorType (String)
    ; 0x09, 0x04,

usb_str1_desc:
    ; USB string descriptor 1 "USB-HID Keyboard"
  0x80d4:
    ; 0x22,        // bLength
    ; 0x03,        // bDescriptorType (String)
    ; 0x55, 0x00, 0x53, 0x00, 0x42, 0x00, 0x2D, 0x00,
    ; 0x48, 0x00, 0x49, 0x00, 0x44, 0x00, 0x20, 0x00,
    ; 0x4B, 0x00, 0x65, 0x00, 0x79, 0x00, 0x62, 0x00,
    ; 0x6F, 0x00, 0x61, 0x00, 0x72, 0x00, 0x64, 0x00,

    80f6:   00 00

  0x80f8:   29 66
    80fa:   00 00
    80fc:   00 00
    80fe:   00 00
    8100:   b9 74
    8102:   00 00
    8104:   00 00
    8106:   00 00
    8108:   00 00
    810a:   00 00
    810c:   b9 73
    810e:   00 00
    8110:   ad 72
    8112:   00 00

  0x8114:   0x8ffffff

    8118:   0003
    811a:   0000

task_1:
  0x811c:   0x813c
    8120:   0x20000000
    8124:   0x68
    8128:   0x784c  (sram_init_func_1)

task_2:
  0x812c:   0x81a4
    8130:   0x20000068
    8134:   0x2178
    8138:   0x785c  (sram_init_func_2)

sram_init_data:
  0x813c:   0000
    813e:   0000
    8140:   0000
    8142:   0000
    8144:   0000
    8146:   0000
    8148:   0000
    814a:   0000
    814c:   a200
    814e:   044a
    8150:   0001
    8152:   0000
    8154:   0000
    8156:   0000
    8158:   0000
    815a:   0000
    815c:   00ff
    815e:   0000
    8160:   7d5c
    8162:   0000
    8164:   ff00
    8166:   0000
    8168:   0000
    816a:   0000
    816c:   0000
    816e:   0000
    8170:   0000
    8172:   0000
    8174:   0001
    8176:   0000
    8178:   0000
    817a:   0000
    817c:   0000
    817e:   0000
    8180:   0000
    8182:   0000
    8184:   0000
    8186:   0000
    8188:   0000
    818a:   0000
    818c:   0000
    818e:   0000
    8190:   0000
    8192:   0000
    8194:   09ca
    8196:   2000
    8198:   0000
    819a:   0000
    819c:   0000
    819e:   0000
    81a0:   0000
    81a2:   0000
