
dump_1.1.7:     file format binary


Disassembly of section .data:

00000000 <.data>:
    ...
    vector table
    ...

     154:    4807       ldr r0, [pc, #28]    ; (0x174)
     156:    4780       blx r0
     158:    4807       ldr r0, [pc, #28]    ; (0x178)
     15a:    4780       blx r0
     15c:    4807       ldr r0, [pc, #28]    ; (0x17c)
     15e:    4700       bx r0
     160:    e7fe       b.n 0x160
     162:    e7fe       b.n 0x162
     164:    e7fe       b.n 0x164
     166:    e7fe       b.n 0x166
     168:    e7fe       b.n 0x168
     16a:    e7fe       b.n 0x16a
     16c:    e7fe       b.n 0x16c
     16e:    e7fe       b.n 0x16e
     170:    e7fe       b.n 0x170
     172:    e7fe       b.n 0x172
     174:    70e9       strb r1, [r5, #3]
     176:    0000       movs r0, r0
     178:    66b9       str r1, [r7, #104]    ; 0x68
     17a:    0000       movs r0, r0
     17c:    2d81       cmp r5, #129    ; 0x81
     17e:    0000       movs r0, r0
     180:    f8df d00c  ldr.w r13, [r15, #12]    ; 0x190
     184:    f000 f82a  bl 0x1dc
     188:    4800       ldr r0, [pc, #0]    ; (0x18c)
     18a:    4700       bx r0
     18c:    7b95       ldrb r5, [r2, #14]
     18e:    0000       movs r0, r0
     190:    3760       adds r7, #96    ; 0x60
     192:    2000       movs r0, #0
     194:    4906       ldr r1, [pc, #24]    ; (0x1b0)
     196:    4a07       ldr r2, [pc, #28]    ; (0x1b4)
     198:    6808       ldr r0, [r1, #0]
     19a:    4350       muls r0, r2
     19c:    f243 0239  movw r2, #12345    ; 0x3039
     1a0:    4410       add r0, r2
     1a2:    6008       str r0, [r1, #0]
     1a4:    0840       lsrs r0, r0, #1
     1a6:    4770       bx r14
     1a8:    4901       ldr r1, [pc, #4]    ; (0x1b0)
     1aa:    6008       str r0, [r1, #0]
     1ac:    4770       bx r14
     1ae:    0000       movs r0, r0
     1b0:    0230       lsls r0, r6, #8
     1b2:    2000       movs r0, #0
     1b4:    4e6d       ldr r6, [pc, #436]    ; (0x36c)
     1b6:    41c6       rors r6, r0
     1b8:    ea40 0301  orr.w r3, r0, r1
     1bc:    079b       lsls r3, r3, #30
     1be:    d003       beq.n 0x1c8
     1c0:    e009       b.n 0x1d6
     1c2:    c908       ldmia r1!, {r3}
     1c4:    1f12       subs r2, r2, #4
     1c6:    c008       stmia r0!, {r3}
     1c8:    2a04       cmp r2, #4
     1ca:    d2fa       bcs.n 0x1c2
     1cc:    e003       b.n 0x1d6
     1ce:    f811 3b01  ldrb.w r3, [r1], #1
     1d2:    f800 3b01  strb.w r3, [r0], #1
     1d6:    1e52       subs r2, r2, #1
     1d8:    d2f9       bcs.n 0x1ce
     1da:    4770       bx r14
     1dc:    4c06       ldr r4, [pc, #24]    ; (0x1f8)
     1de:    4d07       ldr r5, [pc, #28]    ; (0x1fc)
     1e0:    e006       b.n 0x1f0
     1e2:    68e0       ldr r0, [r4, #12]
     1e4:    f040 0301  orr.w r3, r0, #1
     1e8:    e894 0007  ldmia.w r4, {r0, r1, r2}
     1ec:    4798       blx r3
     1ee:    3410       adds r4, #16
     1f0:    42ac       cmp r4, r5
     1f2:    d3f6       bcc.n 0x1e2
     1f4:    f7ff ffc8  bl 0x188
     1f8:    8ff0       ldrh r0, [r6, #62]    ; 0x3e
     1fa:    0000       movs r0, r0
     1fc:    9010       str r0, [sp, #64]    ; 0x40
     1fe:    0000       movs r0, r0
     200:    b570       push {r4, r5, r6, r14}
     202:    eb01 0402  add.w r4, r1, r2
     206:    f810 0e5a  ldrbt r0, [r0, #90]
     20a:    40ab       lsls r3, r5
     20c:    a984       add r1, sp, #528    ; 0x210
     20e:    ab52       add r3, sp, #328    ; 0x148
     210:    f8c4 0110  str.w r0, [r4, #272]    ; 0x110
     214:    eed1 062a  cdp 6, 13, cr0, cr1, cr10, {1}
     218:    f82b 01ef  strh.w r0, [r11, <undefined>]
     21c:    e0f8       b.n 0x410
     21e:    ef03 6bf8  vpadd.i8 q3, <illegal reg q9.5>, q12
     222:    0101       lsls r1, r0, #4
     224:    94e1       str r4, [sp, #900]    ; 0x384
     226:    a4fe       add r4, pc, #1016    ; (adr r4, 0x620)
     228:    de08       udf #8
     22a:    24f6       movs r4, #246    ; 0xf6
     22c:    24d3       movs r4, #211    ; 0xd3
     22e:    f0f5 b47e  b.w 0x4f5b2e
     232:    a5f8       add r5, pc, #992    ; (adr r5, 0x614)
     234:    ad6e       add r5, sp, #440    ; 0x1b8
     236:    5454       strb r4, [r2, r1]
     238:    e7f8       b.n 0x22c
     23a:    10fa       asrs r2, r7, #3
     23c:    575b       ldrsb r3, [r3, r5]
     23e:    5491       strb r1, [r2, r2]
     240:    0bbe       lsrs r6, r7, #14
     242:    a857       add r0, sp, #348    ; 0x15c
     244:    031f       lsls r7, r3, #12
     246:    0303       lsls r3, r0, #12
     248:    fe5b 13f8  mrc2 3, 2, r1, cr11, cr8, {7}
     24c:    015b       lsls r3, r3, #5
     24e:    0107       lsls r7, r0, #4
     250:    f9d5 ad1e  ldr??.w r10, [r5, #3358]    ; 0xd1e
     254:    d6d3       bvs.n 0x1fe
     256:    a142       add r1, pc, #264    ; (adr r1, 0x360)
     258:    8f42       ldrh r2, [r0, #58]    ; 0x3a
     25a:    ffdf 3644  vmlsl.u16 <illegal reg q9.5>, d15, d4[0]
     25e:    ffba f1d5  vsra.u64 <illegal reg q7.5>, <illegal reg q2.5>, #6
     262:    c9be       ldmia r1, {r1, r2, r3, r4, r5, r7}
     264:    ab5a       add r3, sp, #360    ; 0x168
     266:    f0d2 bc7d  b.w 0xd2b64
     26a:    5454       strb r4, [r2, r1]
     26c:    ea28 04d0  bic.w r4, r8, r0, lsr #3
     270:    8541       strh r1, [r0, #42]    ; 0x2a
     272:    5082       str r2, [r0, r2]
     274:    7b4b       ldrb r3, [r1, #13]
     276:    adb5       add r5, sp, #724    ; 0x2d4
     278:    f3ff 6102       ; <UNDEFINED> instruction: 0xf3ff6102
     27c:    1f61       subs r1, r4, #5
     27e:    01f3       lsls r3, r6, #7
     280:    025a       lsls r2, r3, #9
     282:    418f       sbcs r7, r1
     284:    61ec       str r4, [r5, #28]
     286:    0a38       lsrs r0, r7, #8
     288:    2859       cmp r0, #89    ; 0x59
     28a:    11d8       asrs r0, r3, #7
     28c:    b520       push {r5, r14}
     28e:    d007       beq.n 0x2a0
     290:    cf1d       ldmia r7!, {r0, r2, r3, r4}
     292:    b727            ; <UNDEFINED> instruction: 0xb727
     294:    8864       ldrh r4, [r4, #2]
     296:    a388       add r3, pc, #544    ; (adr r3, 0x4b8)
     298:    d206       bcs.n 0x2a8
     29a:    7d5b       ldrb r3, [r3, #21]
     29c:    591b       ldr r3, [r3, r4]
     29e:    d587       bpl.n 0x1b0
     2a0:    e800 dff0       ; <UNDEFINED> instruction: 0xe800dff0
     2a4:    59b9       ldr r1, [r7, r6]
     2a6:    43a5       bics r5, r4
     2a8:    b34a       cbz r2, 0x2fe
     2aa:    8849       ldrh r1, [r1, #2]
     2ac:    25cf       movs r5, #207    ; 0xcf
     2ae:    372b       adds r7, #43    ; 0x2b
     2b0:    c541       stmia r5!, {r0, r6}
     2b2:    443e       add r6, r7
     2b4:    4761       bx r12
     2b6:    f3b5 82e2  undefined (bcc, cond=0xE)
     2ba:    1802       adds r2, r0, r0
     2bc:    6100       str r0, [r0, #16]
     2be:    03f3       lsls r3, r6, #15
     2c0:    fe9e 0c1f  mrc2 12, 4, r0, cr14, cr15, {0}
     2c4:    4e5c       ldr r6, [pc, #368]    ; (0x438)
     2c6:    7f0c       ldrb r4, [r1, #28]
     2c8:    c991       ldmia r1!, {r0, r4, r7}
     2ca:    0310       lsls r0, r2, #12
     2cc:    2850       cmp r0, #80    ; 0x50
     2ce:    4da9       ldr r5, [pc, #676]    ; (0x574)
     2d0:    3496       adds r4, #150    ; 0x96
     2d2:    56a6       ldrsb r6, [r4, r2]
     2d4:    f761 f3e7  bl 0xffb61aa6
     2d8:    a14d       add r1, pc, #308    ; (adr r1, 0x410)
     2da:    46ae       mov r14, r5
     2dc:    ef46 5934  vmul.i8 d21, d6, d20
     2e0:    610c       str r4, [r1, #16]
     2e2:    e7f1       b.n 0x2c8
     2e4:    11e7       asrs r7, r4, #7
     2e6:    1386       asrs r6, r0, #14
     2e8:    c713       stmia r7!, {r0, r1, r4}
     2ea:    f39e 61f3       ; <UNDEFINED> instruction: 0xf39e61f3
     2ee:    18eb       adds r3, r5, r3
     2f0:    9470       str r4, [sp, #448]    ; 0x1c0
     2f2:    0400       lsls r0, r0, #16
     2f4:    e8af 0773  stmia.w r15!, {r0, r1, r4, r5, r6, r8, r9, r10}
     2f8:    6efc       ldr r4, [r7, #108]    ; 0x6c
     2fa:    ef2e 6480  vshl.s32 d6, d0, d30
     2fe:    f4b1 a94a  bcs.w 0xffff1596
     302:    8aa8       ldrh r0, [r5, #20]
     304:    d751       bvc.n 0x3aa
     306:    a634       add r6, pc, #208    ; (adr r6, 0x3d8)
     308:    0420       lsls r0, r4, #16
     30a:    7094       strb r4, [r2, #2]
     30c:    4226       tst r6, r4
     30e:    5552       strb r2, [r2, r5]
     310:    cb40       ldmia r3!, {r6}
     312:    59b5       ldr r5, [r6, r6]
     314:    013c       lsls r4, r7, #4
     316:    e004       b.n 0x322
     318:    fb61 14f3       ; <UNDEFINED> instruction: 0xfb6114f3
     31c:    0e94       lsrs r4, r2, #26
     31e:    e08f       b.n 0x440
     320:    4561       cmp r1, r12
     322:    ebf3 61fa       ; <UNDEFINED> instruction: 0xebf361fa
     326:    f3e7 0879       ; <UNDEFINED> instruction: 0xf3e70879
     32a:    18eb       adds r3, r5, r3
     32c:    c86e       ldmia r0!, {r1, r2, r3, r5, r6}
     32e:    1bfc       subs r4, r7, r7
     330:    9104       str r1, [sp, #16]
     332:    0317       lsls r7, r2, #12
     334:    abaa       add r3, sp, #680    ; 0x2a8
     336:    4aad       ldr r2, [pc, #692]    ; (0x5ec)
     338:    1434       asrs r4, r6, #16
     33a:    52a6       strh r6, [r4, r2]
     33c:    b5d7       push {r0, r1, r2, r4, r6, r7, r14}
     33e:    6170       str r0, [r6, #20]
     340:    e85a 55aa       ; <UNDEFINED> instruction: 0xe85a55aa
     344:    aa4d       add r2, sp, #308    ; 0x134
     346:    8a55       ldrh r5, [r2, #18]
     348:    0027       movs r7, r4
     34a:    2000       movs r0, #0
     34c:    ff2c 2000  vhadd.u32 d2, d12, d0
     350:    b510       push {r4, r14}
     352:    22ff       movs r2, #255    ; 0xff
     354:    281c       cmp r0, #28
     356:    2602       movs r6, #2
     358:    2201       movs r2, #1
     35a:    3820       subs r0, #32
     35c:    4d3f       ldr r5, [pc, #252]    ; (0x45c)
     35e:    b4fa       push {r1, r3, r4, r5, r6, r7}
     360:    e40c       b.n 0xfffffb7c
     362:    0d8d       lsrs r5, r1, #22
     364:    98e3       ldr r0, [sp, #908]    ; 0x38c
     366:    d4ff       bmi.n 0x368
     368:    ea2e e909       ; <UNDEFINED> instruction: 0xea2ee909
     36c:    15d4       asrs r4, r2, #23
     36e:    164c       asrs r4, r1, #25
     370:    6011       str r1, [r2, #0]
     372:    bd10       pop {r4, r15}
     374:    55ea       strb r2, [r5, r7]
     376:    578a       ldrsb r2, [r1, r6]
     378:    da1d       bge.n 0x3b6
     37a:    b7e0            ; <UNDEFINED> instruction: 0xb7e0
     37c:    01d6       lsls r6, r2, #7
     37e:    0168       lsls r0, r5, #5
     380:    cb26       ldmia r3!, {r1, r2, r5}
     382:    00d1       lsls r1, r2, #3
     384:    064c       lsls r4, r1, #25
     386:    1b9f       subs r7, r3, r6
     388:    1b60       subs r0, r4, r5
     38a:    d94d       bls.n 0x428
     38c:    2018       movs r0, #24
     38e:    2968       cmp r1, #104    ; 0x68
     390:    bf9f       itttt ls
     392:    dfe3       svcls 227    ; 0xe3
     394:    16ff       asrls r7, r7, #27
     396:    0f47       lsrls r7, r0, #29
     398:    ff98 d00a  vaddlls.u16 <illegal reg q6.5>, d8, d10
     39c:    ea79 5f82  orns r15, r9, r2, lsl #22
     3a0:    3925       subs r1, #37    ; 0x25
     3a2:    bbdd       cbnz r5, 0x41c
     3a4:    ae22       add r6, sp, #136    ; 0x88
     3a6:    4070       eors r0, r6
     3a8:    1c8a       adds r2, r1, #2
     3aa:    55b9       strb r1, [r7, r6]
     3ac:    5aaf       ldrh r7, [r5, r2]
     3ae:    c255       stmia r2!, {r0, r2, r4, r6}
     3b0:    78d6       ldrb r6, [r2, #3]
     3b2:    0729       lsls r1, r5, #28
     3b4:    2742       movs r7, #66    ; 0x42
     3b6:    8401       strh r1, [r0, #32]
     3b8:    d024       beq.n 0x404
     3ba:    46fb       mov r11, r15
     3bc:    48f0       ldr r0, [pc, #960]    ; (0x780)
     3be:    ff0f f9e0  vmls.i8 <illegal reg q7.5>, <illegal reg q15.5>, q8
     3c2:    0cf1       lsrs r1, r6, #19
     3c4:    0fff       lsrs r7, r7, #31
     3c6:    fe90 fff4  mrc2 15, 4, r15, cr0, cr4, {7}
     3ca:    130c       asrs r4, r1, #12
     3cc:    88bc       ldrh r4, [r7, #4]
     3ce:    fcdb 43b8  ldc2l 3, cr4, [r11], {184}    ; 0xb8
     3d2:    ab7f       add r3, sp, #508    ; 0x1fc
     3d4:    ad65       add r5, sp, #404    ; 0x194
     3d6:    7601       strb r1, [r0, #24]
     3d8:    7847       ldrb r7, [r0, #1]
     3da:    9868       ldr r0, [sp, #416]    ; 0x1a0
     3dc:    74ec       strb r4, [r5, #19]
     3de:    51ec       str r4, [r5, r7]
     3e0:    da15       bge.n 0x40e
     3e2:    17bd       asrs r5, r7, #30
     3e4:    10c7       asrs r7, r0, #3
     3e6:    0548       lsls r0, r1, #21
     3e8:    05b9       lsls r1, r7, #22
     3ea:    00f0       lsls r0, r6, #3
     3ec:    0000       movs r0, r0
     3ee:    7042       strb r2, [r0, #1]
     3f0:    0020       movs r0, r4
     3f2:    d700       bvc.n 0x3f6
     3f4:    0020       movs r0, r4
     3f6:    5400       strb r0, [r0, r0]
     3f8:    ffdf 33f8  vrsra.u64 <illegal reg q9.5>, q12, #33
     3fc:    0f2f       lsrs r7, r5, #28
     3fe:    670c       str r4, [r1, #112]    ; 0x70
     400:    f0f0 a47b  bcc.w 0x70cfa
     404:    ba1f       rev r7, r3
     406:    bfe2       ittt al
     408:    dce7       bgt.n 0x3da    ; unpredictable <IT:al>
     40a:    543d       strbal r5, [r7, r0]
     40c:    8852       ldrhal r2, [r2, #2]
     40e:    41f0       rors r0, r6
     410:    1ca0       adds r0, r4, #2
     412:    46ca       mov r10, r9
     414:    c21a       stmia r2!, {r1, r3, r4}
     416:    28a1       cmp r0, #161    ; 0xa1
     418:    53bc       strh r4, [r7, r6]
     41a:    30ea       adds r0, #234    ; 0xea
     41c:    bd4a       pop {r1, r3, r6, r15}
     41e:    0260       lsls r0, r4, #9
     420:    6840       ldr r0, [r0, #4]
     422:    4297       cmp r7, r2
     424:    f10a 5d02  add.w r13, r10, #545259520    ; 0x20800000
     428:    f10a a000  bmi.w 0x4a42c
     42c:    15ff       asrs r7, r7, #23
     42e:    bdbf       pop {r0, r1, r2, r3, r4, r5, r7, r15}
     430:    6f40       ldr r0, [r0, #116]    ; 0x74
     432:    87fb       strh r3, [r7, #62]    ; 0x3e
     434:    a038       add r0, pc, #224    ; (adr r0, 0x518)
     436:    d090       beq.n 0x35a
     438:    5bee       ldrh r6, [r5, r7]
     43a:    0bab       lsrs r3, r5, #14
     43c:    a511       add r5, pc, #68    ; (adr r5, 0x484)
     43e:    1a57       subs r7, r2, r1
     440:    f584 a160  bvs.w 0xfff44704
     444:    5518       strb r0, [r3, r4]
     446:    ac5a       add r4, sp, #360    ; 0x168
     448:    ace8       add r4, sp, #928    ; 0x3a0
     44a:    421c       tst r4, r3
     44c:    10b0       asrs r0, r6, #2
     44e:    f440 7fa1  orr.w r15, r0, #322    ; 0x142
     452:    f162 1000  sbc.w r0, r2, #0
     456:    f0ff a900  bcc.w 0xff65a
     45a:    ffb9 8008  vcgt.s32 d8, d8, #0
     45e:    4001       ands r1, r0
     460:    43ff       mvns r7, r7
     462:    dff8       svc 248    ; 0xf8
     464:    770f       strb r7, [r1, #28]
     466:    2f0c       cmp r7, #12
     468:    f1f8 f4d1  bl 0x5f8e0e
     46c:    aa70       add r2, sp, #448    ; 0x1c0
     46e:    535a       strh r2, [r3, r5]
     470:    5a1a       ldrh r2, [r3, r0]
     472:    a11c       add r1, pc, #112    ; (adr r1, 0x4e4)
     474:    0048       lsls r0, r1, #1
     476:    6270       str r0, [r6, #36]    ; 0x24
     478:    55a9       strb r1, [r5, r6]
     47a:    1ca4       adds r4, r4, #2
     47c:    4a71       ldr r2, [pc, #452]    ; (0x644)
     47e:    5a1a       ldrh r2, [r3, r0]
     480:    000f       movs r7, r1
     482:    6008       str r0, [r1, #0]
     484:    f249 f98c  bl 0x2497a0
     488:    c1f8       stmia r1!, {r3, r4, r5, r6, r7}
     48a:    48f4       ldr r0, [pc, #976]    ; (0x85c)
     48c:    0c48       lsrs r0, r1, #17
     48e:    fc04 fdd1  stc2 13, cr15, [r4], {209}    ; 0xd1
     492:    1e40       subs r0, r0, #1
     494:    b070       add sp, #448    ; 0x1c0
     496:    0c40       lsrs r0, r0, #17
     498:    0302       lsls r2, r0, #12
     49a:    f7db f004  bl 0xffbdb4a6
     49e:    b9f9       cbnz r1, 0x4e0
     4a0:    ea40 ca4a       ; <UNDEFINED> instruction: 0xea40ca4a
     4a4:    91ad       str r1, [sp, #692]    ; 0x2b4
     4a6:    5554       strb r4, [r2, r5]
     4a8:    bff3       iteet <und>
     4aa:    0d0c       lsr<und> r4, r1, #20
     4ac:    abe5       addal r3, sp, #916    ; 0x394
     4ae:    b225       sxthal r5, r4
     4b0:    a155       add<und> r1, pc, #340    ; (adr r1, 0x608)
     4b2:    ea55 007b  orrs.w r0, r5, r11, ror #1
     4b6:    e0e1       b.n 0x67c
     4b8:    55f5       strb r5, [r6, r7]
     4ba:    55fa       strb r2, [r7, r7]
     4bc:    0800       lsrs r0, r0, #32
     4be:    40ff       lsrs r7, r7
     4c0:    0680       lsls r0, r0, #26
     4c2:    ff1a fa04  vpmax.u16 d15, d10, d4
     4c6:    0500       lsls r0, r0, #20
     4c8:    008f       lsls r7, r1, #2
     4ca:    084a       lsrs r2, r1, #1
     4cc:    476c       bx r13
     4ce:    47f1            ; <UNDEFINED> instruction: 0x47f1
     4d0:    38f0       subs r0, #240    ; 0xf0
     4d2:    0800       lsrs r0, r0, #32
     4d4:    abed       add r3, sp, #948    ; 0x3b4
     4d6:    88e2       ldrh r2, [r4, #6]
     4d8:    5512       strb r2, [r2, r4]
     4da:    dd1e       ble.n 0x51a
     4dc:    0a01       lsrs r1, r0, #8
     4de:    d928       bls.n 0x532
     4e0:    19ec       adds r4, r5, r7
     4e2:    dd8b       ble.n 0x3fc
     4e4:    b61c            ; <UNDEFINED> instruction: 0xb61c
     4e6:    51e4       str r4, [r4, r7]
     4e8:    f50f fb00  bl 0xffd0faec
     4ec:    ef15 0400  vshl.s16 d0, d0, d5
     4f0:    0c00       lsrs r0, r0, #16
     4f2:    80df       strh r7, [r3, #6]
     4f4:    d100       bne.n 0x4f8
     4f6:    8f1a       ldrh r2, [r3, #56]    ; 0x38
     4f8:    4841       ldr r0, [pc, #260]    ; (0x600)
     4fa:    7801       ldrb r1, [r0, #0]
     4fc:    e3b6       b.n 0xc6c
     4fe:    8ffe       ldrh r6, [r7, #62]    ; 0x3e
     500:    464f       mov r7, r9
     502:    7707       strb r7, [r0, #28]
     504:    ecb0 80f8  ldc 0, cr8, [r0], #992    ; 0x3e0
     508:    e295       b.n 0xa36
     50a:    d2ab       bcs.n 0x464
     50c:    491c       ldr r1, [pc, #112]    ; (0x580)
     50e:    2554       movs r5, #84    ; 0x54
     510:    483e       ldr r0, [pc, #248]    ; (0x60c)
     512:    6801       ldr r1, [r0, #0]
     514:    44c2       add r10, r8
     516:    541b       strb r3, [r3, r0]
     518:    e335       b.n 0xb86
     51a:    ab4b       add r3, sp, #300    ; 0x12c
     51c:    414e       adcs r6, r1
     51e:    1168       asrs r0, r5, #5
     520:    be1e       bkpt 0x001e
     522:    4968       ldr r1, [pc, #416]    ; (0x6c4)
     524:    4148       adcs r0, r1
     526:    3a9f       subs r2, #159    ; 0x9f
     528:    0129       lsls r1, r5, #4
     52a:    fe68 0268  cdp2 2, 6, cr0, cr8, cr8, {3}
     52e:    01d9       lsls r1, r3, #7
     530:    b69f            ; <UNDEFINED> instruction: 0xb69f
     532:    fee1 3867  cdp2 8, 14, cr3, cr1, cr7, {3}
     536:    0e47       lsrs r7, r0, #25
     538:    f129 f2d9  bl 0x529aee
     53c:    abb4       add r3, sp, #720    ; 0x2d0
     53e:    e3c2       b.n 0xcc6
     540:    541d       strb r5, [r3, r0]
     542:    6035       str r5, [r6, #0]
     544:    01b1       lsls r1, r6, #6
     546:    1168       asrs r0, r5, #5
     548:    3db6       subs r5, #182    ; 0xb6
     54a:    1cab       adds r3, r5, #2
     54c:    ca1d       ldmia r2, {r0, r2, r3, r4}
     54e:    9954       ldr r1, [sp, #336]    ; 0x150
     550:    684e       ldr r6, [r1, #4]
     552:    1101       asrs r1, r0, #4
     554:    971c       str r7, [sp, #112]    ; 0x70
     556:    4901       ldr r1, [pc, #4]    ; (0x55c)
     558:    6048       str r0, [r1, #4]
     55a:    31fe       adds r1, #254    ; 0xfe
     55c:    68b1       ldr r1, [r6, #8]
     55e:    ee01 681c  mcr 8, 0, r6, cr1, cr12, {0}
     562:    4901       ldr r1, [pc, #4]    ; (0x568)
     564:    9fb7       ldr r7, [sp, #732]    ; 0x2dc
     566:    d0fe       beq.n 0x566
     568:    67be       str r6, [r7, #120]    ; 0x78
     56a:    1e0e       subs r6, r1, #0
     56c:    98ec       ldr r0, [sp, #944]    ; 0x3b0
     56e:    b9f1       cbnz r1, 0x5ae
     570:    cae2       ldmia r2!, {r1, r5, r6, r7}
     572:    87ab       strh r3, [r5, #60]    ; 0x3c
     574:    3de4       subs r5, #228    ; 0xe4
     576:    4454       add r4, r10
     578:    681c       ldr r4, [r3, #0]
     57a:    4901       ldr r1, [pc, #4]    ; (0x580)
     57c:    7ee2       ldrb r2, [r4, #27]
     57e:    54ca       strb r2, [r1, r3]
     580:    bbe4       cbnz r4, 0x5fc
     582:    ab3d       add r3, sp, #244    ; 0xf4
     584:    49e3       ldr r1, [pc, #908]    ; (0x914)
     586:    0168       lsls r0, r5, #5
     588:    d648       bvs.n 0x61c
     58a:    0160       lsls r0, r4, #5
     58c:    11b1       asrs r1, r6, #6
     58e:    0197       lsls r7, r2, #6
     590:    491c       ldr r1, [pc, #112]    ; (0x604)
     592:    fe68 2748  cdp2 7, 6, cr2, cr8, cr8, {2}
     596:    0160       lsls r0, r4, #5
     598:    ee4e fe97  mcr 14, 2, r15, cr14, cr7, {4}    ; <UNPREDICTABLE>
     59c:    4613       mov r3, r2
     59e:    0e67       lsrs r7, r4, #25
     5a0:    d5b8       bpl.n 0x514
     5a2:    f190 bb1b  b.w 0x190bdc
     5a6:    abc2       add r3, sp, #776    ; 0x308
     5a8:    1c49       adds r1, r1, #1
     5aa:    543d       strb r5, [r7, r0]
     5ac:    2348       movs r3, #72    ; 0x48
     5ae:    0160       lsls r0, r4, #5
     5b0:    3dbb       subs r5, #187    ; 0xbb
     5b2:    541b       strb r3, [r3, r0]
     5b4:    c21c       stmia r2!, {r2, r3, r4}
     5b6:    ab49       add r3, sp, #292    ; 0x124
     5b8:    60de       str r6, [r3, #12]
     5ba:    0148       lsls r0, r1, #5
     5bc:    7711       strb r1, [r2, #28]
     5be:    01b1       lsls r1, r6, #6
     5c0:    8849       ldrh r1, [r1, #2]
     5c2:    01e1       lsls r1, r4, #7
     5c4:    801f       strh r7, [r3, #0]
     5c6:    fe48 6811  mcr2 8, 2, r6, cr8, cr1, {0}
     5ca:    01b1       lsls r1, r6, #6
     5cc:    97b6       str r7, [sp, #728]    ; 0x2d8
     5ce:    fee3 6f12  mcr2 15, 7, r6, cr3, cr2, {0}
     5d2:    0e47       lsrs r7, r0, #25
     5d4:    98e1       ldr r0, [sp, #900]    ; 0x384
     5d6:    f141 c2e3       ; <UNDEFINED> instruction: 0xf141c2e3
     5da:    abb6       add r3, sp, #728    ; 0x2d8
     5dc:    354e       adds r5, #78    ; 0x4e
     5de:    541d       strb r5, [r3, r0]
     5e0:    6800       ldr r0, [r0, #0]
     5e2:    0129       lsls r1, r5, #4
     5e4:    57ab       ldrsb r3, [r5, r6]
     5e6:    3d7a       subs r5, #122    ; 0x7a
     5e8:    e354       b.n 0xc94
     5ea:    ca49       ldmia r2!, {r0, r3, r6}
     5ec:    70ff       strb r7, [r7, #3]
     5ee:    00bd       lsls r5, r7, #2
     5f0:    ff07 4060  vhadd.u8 q2, <illegal reg q3.5>, q8
     5f4:    0000       movs r0, r0
     5f6:    20fe       movs r0, #254    ; 0xfe
     5f8:    9000       str r0, [sp, #0]
     5fa:    df00       svc 0
     5fc:    0400       lsls r0, r0, #16
     5fe:    2001       movs r0, #1
     600:    94ff       str r4, [sp, #1020]    ; 0x3fc
     602:    dfff       svc 255    ; 0xff
     604:    630f       str r7, [r1, #48]    ; 0x30
     606:    2f0f       cmp r7, #15
     608:    9df0       ldr r5, [sp, #960]    ; 0x3c0
     60a:    d0f0       beq.n 0x5ee
     60c:    a2aa       add r2, pc, #680    ; (adr r2, 0x8b8)
     60e:    8aa9       ldrh r1, [r5, #20]
     610:    9555       str r5, [sp, #340]    ; 0x154
     612:    7555       strb r5, [r2, #21]
     614:    c400       stmia r4!, {}
     616:    2000       movs r0, #0
     618:    558a       strb r2, [r1, r6]
     61a:    5572       strb r2, [r6, r5]
     61c:    aa75       add r2, sp, #468    ; 0x1d4
     61e:    aa81       add r2, sp, #516    ; 0x204
     620:    00df       lsls r7, r3, #3
     622:    00e4       lsls r4, r4, #3
     624:    ff20 0108  vrhadd.u32 d0, d0, d8
     628:    0020       movs r0, r4
     62a:    01f3       lsls r3, r6, #7
     62c:    0020       movs r0, r4
     62e:    ffdc 0020  vaddl.u16 q8, d12, d16
     632:    00c8       lsls r0, r1, #3
     634:    ffdf ff33       ; <UNDEFINED> instruction: 0xffdfff33
     638:    0f2f       lsrs r7, r5, #28
     63a:    0fdf       lsrs r7, r3, #31
     63c:    f0d0 f044  bl 0x4d06c8
     640:    aa8a       add r2, sp, #552    ; 0x228
     642:    aa30       add r2, sp, #192    ; 0xc0
     644:    5575       strb r5, [r6, r5]
     646:    55a9       strb r1, [r5, r6]
     648:    0020       movs r0, r4
     64a:    01d0       lsls r0, r2, #7
     64c:    554a       strb r2, [r1, r5]
     64e:    75aa       strb r2, [r5, #22]
     650:    a945       add r1, sp, #276    ; 0x114
     652:    e2e0       b.n 0xc16
     654:    06ff       lsls r7, r7, #27
     656:    f8f0 efbd  ldr??.w r14, [r0, #4029]    ; 0xfbd
     65a:    40e8       lsrs r0, r5
     65c:    9402       str r4, [sp, #8]
     65e:    be0f       bkpt 0x000f
     660:    0700       lsls r0, r0, #28
     662:    bf70       nop {7}
     664:    2141       movs r1, #65    ; 0x41
     666:    f068 befe  b.w 0x69466
     66a:    9ffe       ldr r7, [sp, #1016]    ; 0x3f8
     66c:    40b0       lsls r0, r6
     66e:    80fc       strh r4, [r7, #6]
     670:    f080 d9b7  bl 0x8809e2
     674:    a8ab       add r0, sp, #684    ; 0x2ac
     676:    7ac2       ldrb r2, [r0, #11]
     678:    5114       str r4, [r2, r4]
     67a:    54a5       strb r5, [r4, r2]
     67c:    2101       movs r1, #1
     67e:    f0e0 54ae       ; <UNDEFINED> instruction: 0xf0e054ae
     682:    35ab       adds r5, #171    ; 0xab
     684:    ed25 8355  stc 3, cr8, [r5, #-340]!    ; 0xfffffeac
     688:    68fe       ldr r6, [r7, #12]
     68a:    d002       beq.n 0x692
     68c:    0f41       lsrs r1, r0, #29
     68e:    0101       lsls r1, r0, #4
     690:    e001       b.n 0x696
     692:    f0de 0101       ; <UNDEFINED> instruction: 0xf0de0101
     696:    9f01       ldr r7, [sp, #4]
     698:    4770       bx r14
     69a:    60c1       str r1, [r0, #12]
     69c:    b88f            ; <UNDEFINED> instruction: 0xb88f
     69e:    9f7e       ldr r7, [sp, #504]    ; 0x1f8
     6a0:    487f       ldr r0, [pc, #508]    ; (0x8a0)
     6a2:    0f0f       lsrs r7, r1, #28
     6a4:    f030 f83b  bl 0x3071e
     6a8:    41aa       sbcs r2, r5
     6aa:    aa29       add r2, sp, #164    ; 0xa4
     6ac:    1e53       subs r3, r2, #1
     6ae:    e045       b.n 0x73c
     6b0:    4418       add r0, r3
     6b2:    0749       lsls r1, r1, #29
     6b4:    56a4       ldrsb r4, [r4, r2]
     6b6:    9cc2       ldr r4, [sp, #776]    ; 0x308
     6b8:    a515       add r5, pc, #84    ; (adr r5, 0x710)
     6ba:    2671       movs r6, #113    ; 0x71
     6bc:    a3bf       add r3, pc, #764    ; (adr r3, 0x9bc)
     6be:    8a43       ldrh r3, [r0, #18]
     6c0:    ec60 0343  stcl 3, cr0, [r0], #-268    ; 0xfffffef4
     6c4:    1000       asrs r0, r0, #32
     6c6:    0042       lsls r2, r0, #1
     6c8:    2040       movs r0, #64    ; 0x40
     6ca:    fd20 0000  stc2 0, cr0, [r0, #-0]
; bad branch to 0x6cc
     6ce:    80eb       strh r3, [r5, #6]
     6d0:    7fe1       ldrb r1, [r4, #31]
     6d2:    bfff       itttt <und>
     6d4:    f248 7fdd  movw<und> r15, #34781    ; 0x87dd

function_6:
   0x6d8:    ddb1       ble.n 0x63e    ; unpredictable <IT:<und>>
     6da:    0019       mov<und> r1, r3
     6dc:    aba9       add<und> r3, sp, #676    ; 0x2a4
     6de:    278b       movs r7, #139    ; 0x8b
     6e0:    7da5       ldrb r5, [r4, #22]
     6e2:    5513       strb r3, [r2, r4]
     6e4:    ab21       add r3, sp, #132    ; 0x84
     6e6:    01f8       lsls r0, r7, #7
     6e8:    51ec       str r4, [r5, r7]
     6ea:    75a6       strb r6, [r4, #22]
     6ec:    5aad       ldrh r5, [r5, r2]
     6ee:    3055       adds r0, #85    ; 0x55
     6f0:    4edd       ldr r6, [pc, #884]    ; (0xa68)
     6f2:    0024       movs r4, r4
     6f4:    b946       cbnz r6, 0x708
     6f6:    3029       adds r0, #41    ; 0x29
     6f8:    f0f9 20ff       ; <UNDEFINED> instruction: 0xf0f920ff
     6fc:    1022       asrs r2, r4, #32
     6fe:    ff67 4646  vmax.u32 q10, <illegal reg q3.5>, q3
     702:    3039       adds r0, #57    ; 0x39
     704:    0f06       lsrs r6, r0, #28
     706:    e5ff       b.n 0x308
     708:    2d49       cmp r5, #73    ; 0x49
     70a:    260d       movs r6, #13
     70c:    b600            ; <UNDEFINED> instruction: 0xb600
     70e:    f0c0 5388       ; <UNDEFINED> instruction: 0xf0c05388
     712:    a88f       add r0, sp, #572    ; 0x23c
     714:    1313       asrs r3, r2, #12
     716:    656c       str r4, [r5, #84]    ; 0x54
     718:    f0f9 2000       ; <UNDEFINED> instruction: 0xf0f92000
     71c:    5588       strb r0, [r1, r6]
     71e:    30bb       adds r0, #187    ; 0xbb
     720:    9a13       ldr r2, [sp, #76]    ; 0x4c
     722:    8313       strh r3, [r2, #24]
     724:    0a06       lsrs r6, r0, #8
     726:    00f0       lsls r0, r6, #3
     728:    d646       bvs.n 0x7b8
     72a:    0222       lsls r2, r4, #8
     72c:    00f0       lsls r0, r6, #3
     72e:    30b9       adds r0, #185    ; 0xb9
     730:    0122       lsls r2, r4, #4
     732:    eaf9 0020       ; <UNDEFINED> instruction: 0xeaf90020
     736:    0b21       lsrs r1, r4, #12
     738:    4b00       ldr r3, [pc, #0]    ; (0x73c)
     73a:    0008       movs r0, r1
     73c:    022e       lsls r6, r5, #8
     73e:    0e2d       lsrs r5, r5, #24
     740:    0f07       lsrs r7, r0, #28
     742:    f2d0 ab88  blt.w 0xd0e56
     746:    0555       lsls r5, r2, #21
     748:    5775       ldrsb r5, [r6, r5]
     74a:    5b74       ldrh r4, [r6, r5]
     74c:    aaff       add r2, sp, #1020    ; 0x3fc
     74e:    fff7 77a5  vcvt.u<illegal width 16>.f<illegal width 16> d23, d21
     752:    548b       strb r3, [r1, r2]
     754:    8aaa       ldrh r2, [r5, #20]
     756:    a8a2       add r0, sp, #648    ; 0x288
     758:    fff4 a548  vmls.f<illegal width 64> q13, q2, d8[0]
     75c:    9740       str r7, [sp, #256]    ; 0x100
     75e:    4005       ands r5, r0
     760:    d401       bmi.n 0x766
     762:    09dd       lsrs r5, r3, #7
     764:    2110       movs r1, #16
     766:    f146 f79c  bl 0x5476a2
     76a:    ffff ddf0       ; <UNDEFINED> instruction: 0xffffddf0
     76e:    fede 49f0  mrc2 9, 6, r4, cr14, cr0, {7}
     772:    1ff8       subs r0, r7, #7
     774:    0ff0       lsrs r0, r6, #31
     776:    67d1       str r1, [r2, #124]    ; 0x7c
     778:    ecaa 8a5a  vstmia r10!, {s16-s105}
     77c:    ad54       add r5, sp, #336    ; 0x150
     77e:    0675       lsls r5, r6, #25
     780:    e8f0 bd81  ldrd r11, r13, [r0], #516    ; 0x204
     784:    55a1       strb r1, [r4, r6]
     786:    15aa       asrs r2, r5, #22
     788:    aa5d       add r2, sp, #372    ; 0x174
     78a:    ead5 10fe       ; <UNDEFINED> instruction: 0xead510fe
     78e:    20b5       movs r0, #181    ; 0xb5
     790:    fc0e fdf0  stc2 13, cr15, [r14], {240}    ; 0xf0
     794:    bd10       pop {r4, r15}
     796:    4017       ands r7, r2
     798:    faff 0820       ; <UNDEFINED> instruction: 0xfaff0820
     79c:    9700       str r7, [sp, #0]
     79e:    20bf       movs r0, #191    ; 0xbf
     7a0:    fcf9 420f  ldc2l 2, cr4, [r9], #60    ; 0x3c
     7a4:    0f4e       lsrs r6, r1, #29
     7a6:    6f2e       ldr r6, [r5, #112]    ; 0x70
     7a8:    f180 b790  b.w 0x5816cc
     7ac:    aaa9       add r2, sp, #676    ; 0x2a4
     7ae:    ca89       ldmia r2!, {r0, r3, r7}
     7b0:    1695       asrs r5, r2, #26
     7b2:    bc35       pop {r0, r2, r4, r5}
     7b4:    0270       lsls r0, r6, #9
     7b6:    4712       bx r2
     7b8:    11c2       asrs r2, r0, #7
     7ba:    e0ba       b.n 0x932
     7bc:    a93d       add r1, sp, #244    ; 0xf4
     7be:    8855       ldrh r5, [r2, #2]
     7c0:    0b2f       lsrs r7, r5, #12
     7c2:    429c       cmp r4, r3
     7c4:    2d5c       cmp r5, #92    ; 0x5c
     7c6:    6882       ldr r2, [r0, #8]
     7c8:    0168       lsls r0, r5, #5
     7ca:    70f5       strb r5, [r6, #3]
     7cc:    491c       ldr r1, [pc, #112]    ; (0x840)
     7ce:    97c2       str r7, [sp, #776]    ; 0x308
     7d0:    f2f3 fbb1  bl 0x2f3f36
     7d4:    ecee 04fd  cfstrd mvd0, [r14], #1012    ; 0x3f4
     7d8:    0e6f       lsrs r7, r5, #25
     7da:    2d0e       cmp r5, #14
     7dc:    e04d       b.n 0x87a
     7de:    b6e0            ; <UNDEFINED> instruction: 0xb6e0
     7e0:    e9c2 1f9a  strd r1, r15, [r2, #616]    ; 0x268
     7e4:    913d       str r1, [sp, #244]    ; 0xf4
     7e6:    7755       strb r5, [r2, #29]
     7e8:    b3fb       cbz r3, 0x86a
     7ea:    1c5b       adds r3, r3, #1
     7ec:    515e       str r6, [r3, r5]
     7ee:    ae5f       add r6, sp, #380    ; 0x17c
     7f0:    ae40       add r6, sp, #256    ; 0x100
     7f2:    c266       stmia r2!, {r1, r2, r5, r6}
     7f4:    0a5c       lsrs r4, r3, #9
     7f6:    d042       beq.n 0x87e
     7f8:    7c42       ldrb r2, [r0, #17]
     7fa:    6868       ldr r0, [r5, #4]
     7fc:    c199       stmia r1!, {r0, r3, r4, r7}
     7fe:    68ab       ldr r3, [r5, #8]
     800:    b252       sxtb r2, r2
     802:    041c       lsls r4, r3, #16
     804:    01f1       lsls r1, r6, #7
     806:    fbf3 beec       ; <UNDEFINED> instruction: 0xfbf3beec
     80a:    9fde       ldr r7, [sp, #888]    ; 0x378
     80c:    1f0e       subs r6, r1, #4
     80e:    492d       ldr r1, [pc, #180]    ; (0x8c4)
     810:    b1c0       cbz r0, 0x844
     812:    984d       ldr r0, [sp, #308]    ; 0x134
     814:    2baa       cmp r3, #170    ; 0xaa
     816:    e8c2 5454       ; <UNDEFINED> instruction: 0xe8c25454
     81a:    7584       strb r4, [r0, #22]
     81c:    0070       lsls r0, r6, #1
     81e:    2047       movs r0, #71    ; 0x47
     820:    12da       asrs r2, r3, #11
     822:    55aa       strb r2, [r5, r6]
     824:    e051       b.n 0x8ca
     826:    8354       strh r4, [r2, #26]
     828:    6aae       ldr r6, [r5, #40]    ; 0x28
     82a:    d002       beq.n 0x832
     82c:    bc81       pop {r0, r7}
     82e:    6251       str r1, [r2, #36]    ; 0x24
     830:    4770       bx r14
     832:    43fe       mvns r6, r7
     834:    e7fb       b.n 0x82e
     836:    ff00 8000  vhadd.u8 d8, d0, d0
     83a:    4008       ands r0, r1
     83c:    b5fb       push {r0, r1, r3, r4, r5, r6, r7, r14}
     83e:    d6fe       bvs.n 0x83e
     840:    65de       str r6, [r3, #92]    ; 0x5c
     842:    df0d       svc 13
     844:    b371       cbz r1, 0x8a4
     846:    9221       str r2, [sp, #132]    ; 0x84
     848:    edda e9ab  ldcl 9, cr14, [r10, #684]    ; 0x2ac
     84c:    b2ae       uxth r6, r5
     84e:    5555       strb r5, [r2, r5]
     850:    8000       strh r0, [r0, #0]
     852:    4008       ands r0, r1
     854:    5183       str r3, [r0, r6]
     856:    54e0       strb r0, [r4, r3]
     858:    bb85       cbnz r5, 0x8bc
     85a:    a83e       add r0, sp, #248    ; 0xf8
     85c:    819c       strh r4, [r3, #12]
     85e:    1143       asrs r3, r0, #5
     860:    8f43       ldrh r3, [r0, #58]    ; 0x3a
     862:    0147       lsls r7, r0, #5
     864:    fb00 0018  mls r0, r0, r8, r0
     868:    0040       lsls r0, r0, #1
     86a:    f780 0368       ; <UNDEFINED> instruction: 0xf7800368
     86e:    0a49       lsrs r1, r1, #9
     870:    ddfd       ble.n 0x86e
     872:    bf0b       itete eq
     874:    4d5f       ldreq r5, [pc, #380]    ; (0x9f4)
     876:    8fe5       ldrhne r5, [r4, #62]    ; 0x3e
     878:    f8b7 8090  ldrheq.w r8, [r7, #144]    ; 0x90
     87c:    aaea       addne r2, sp, #936    ; 0x3a8
     87e:    a22a       add r2, pc, #168    ; (adr r2, 0x928)
     880:    a573       add r5, pc, #460    ; (adr r5, 0xa50)
     882:    55e0       strb r0, [r4, r7]
     884:    1a5d       subs r5, r3, r1
     886:    8be0       ldrh r0, [r4, #30]
     888:    a7a6       add r7, pc, #664    ; (adr r7, 0xb24)
     88a:    74eb       strb r3, [r5, #19]
     88c:    4076       eors r6, r6
     88e:    bad6       revsh r6, r2
     890:    eadb 034f       ; <UNDEFINED> instruction: 0xeadb034f
     894:    dc25       bgt.n 0x8e2
     896:    0800       lsrs r0, r0, #32
     898:    ea0e 037b  and.w r3, r14, r11, ror #1
     89c:    ea07 bc4f       ; <UNDEFINED> instruction: 0xea07bc4f
     8a0:    ea4e 0e5f  orr.w r14, r14, r15, lsr #1
     8a4:    2a15       cmp r2, #21
     8a6:    73fe       strb r6, [r7, #15]
     8a8:    0849       lsrs r1, r1, #1
     8aa:    344c       adds r4, #76    ; 0x4c
     8ac:    ee1a bf9d  mrc 15, 0, r11, cr10, cr13, {4}
     8b0:    ae7b       add r6, sp, #492    ; 0x1ec
     8b2:    5bee       ldrh r6, [r5, r7]
     8b4:    e7bf       b.n 0x836
     8b6:    d6ee       bvs.n 0x896
     8b8:    201c       movs r0, #28
     8ba:    7600       strb r0, [r0, #24]
     8bc:    b779            ; <UNDEFINED> instruction: 0xb779
     8be:    c3e8       stmia r3!, {r3, r5, r6, r7}
     8c0:    5ae8       ldrh r0, [r5, r3]
     8c2:    2ae7       cmp r2, #231    ; 0xe7
     8c4:    089f       lsrs r7, r3, #2
     8c6:    0349       lsls r1, r1, #13
     8c8:    3760       adds r7, #96    ; 0x60
     8ca:    0820       lsrs r0, r4, #32
     8cc:    0861       lsrs r1, r4, #1
     8ce:    14df       asrs r7, r3, #19
     8d0:    12b8       asrs r0, r7, #10
     8d2:    fff0 0840  vtbx.8 d16, {d0}, d0
     8d6:    0000       movs r0, r0
     8d8:    ff94 feb7       ; <UNDEFINED> instruction: 0xff94feb7
     8dc:    0f0f       lsrs r7, r1, #28
     8de:    7f48       ldrb r0, [r1, #29]
     8e0:    f8b0 f0f0  pldw [r0, #240]    ; 0xf0
     8e4:    72ca       strb r2, [r1, #11]
     8e6:    a9e1       add r1, sp, #900    ; 0x384
     8e8:    0f35       lsrs r5, r6, #28
     8ea:    4c35       ldr r4, [pc, #212]    ; (0x9c0)
     8ec:    1861       adds r1, r4, r1
     8ee:    1420       asrs r0, r4, #16
     8f0:    12aa       asrs r2, r5, #10
     8f2:    25aa       movs r5, #170    ; 0xaa
     8f4:    aa5d       add r2, sp, #372    ; 0x174
     8f6:    aa15       add r2, sp, #84    ; 0x54
     8f8:    48f8       ldr r0, [pc, #992]    ; (0xcdc)
     8fa:    0649       lsls r1, r1, #25
     8fc:    1f0a       subs r2, r1, #4
     8fe:    0469       lsls r1, r5, #17
     900:    f381 c2fd       ; <UNDEFINED> instruction: 0xf381c2fd
     904:    2a03       cmp r2, #3
     906:    fcd0 1ef8  ldc2l 14, cr1, [r0], {248}    ; 0xf8
     90a:    40d2       lsrs r2, r2
     90c:    df8f       svc 143    ; 0x8f
     90e:    f7b8 2f7f       ; <UNDEFINED> instruction: 0xf7b82f7f
     912:    0f48       lsrs r0, r1, #29
     914:    0fff       lsrs r7, r7, #31
     916:    0ff0       lsrs r0, r6, #31
     918:    aaa2       add r2, sp, #648    ; 0x288
     91a:    aaea       add r2, sp, #936    ; 0x3a8
     91c:    7f57       ldrb r7, [r2, #29]
     91e:    553d       strb r5, [r7, r4]
     920:    d00a       beq.n 0x938
     922:    0143       lsls r3, r0, #5
     924:    5520       strb r0, [r4, r4]
     926:    164a       asrs r2, r1, #25
     928:    a825       add r0, sp, #148    ; 0x94
     92a:    ed35 00bd  ldc 0, cr0, [r5, #-756]!    ; 0xfffffd0c
     92e:    692a       ldr r2, [r5, #16]
     930:    fe0a 43d0  mcr2 3, 0, r4, cr10, cr0, {6}
     934:    008a       lsls r2, r1, #2
     936:    431f       orrs r7, r3
     938:    4270       negs r0, r6
     93a:    b861            ; <UNDEFINED> instruction: 0xb861
     93c:    0042       lsls r2, r0, #1
     93e:    682a       ldr r2, [r5, #0]
     940:    fef5 bc2f  cdp2 12, 15, cr11, cr5, cr15, {1}
     944:    0f85       lsrs r5, r0, #30
     946:    4cef       ldr r4, [pc, #956]    ; (0xd04)
     948:    b280       uxth r0, r0
     94a:    b790            ; <UNDEFINED> instruction: 0xb790
     94c:    aaa8       add r2, sp, #672    ; 0x2a0
     94e:    c380       stmia r3!, {r7}
     950:    545f       strb r7, [r3, r1]
     952:    1685       asrs r5, r0, #26
     954:    008a       lsls r2, r1, #2
     956:    43e0       mvns r0, r4
     958:    25ed       movs r5, #237    ; 0xed
     95a:    34a8       adds r4, #168    ; 0xa8
     95c:    ab7f       add r3, sp, #508    ; 0x1fc
     95e:    1b17       subs r7, r2, r4
     960:    8297       strh r7, [r2, #20]
     962:    d009       beq.n 0x978
     964:    7d60       ldrb r0, [r4, #21]
     966:    438a       bics r2, r1
     968:    8a43       ldrh r3, [r0, #18]
     96a:    683d       ldr r5, [r7, #0]
     96c:    7047       strb r7, [r0, #1]
     96e:    9fc2       ldr r7, [sp, #776]    ; 0x308
     970:    0a43       lsrs r3, r0, #9
     972:    6882       ldr r2, [r0, #8]
     974:    3d97       subs r5, #151    ; 0x97
     976:    1808       adds r0, r1, r0
     978:    cd6f       ldmia r5, {r0, r1, r2, r3, r5, r6}
     97a:    4c05       ldr r4, [pc, #20]    ; (0x990)
     97c:    7ab3       ldrb r3, [r6, #10]
     97e:    9872       ldr r0, [sp, #456]    ; 0x1c8
     980:    daed       bge.n 0x95e
     982:    ca28       ldmia r2!, {r3, r5}
     984:    2512       movs r5, #18
     986:    3714       adds r7, #20
     988:    4162       adcs r2, r4
     98a:    b10a       cbz r2, 0x990
     98c:    d4da       bmi.n 0x944
     98e:    37ed       adds r7, #237    ; 0xed
     990:    aa25       add r2, sp, #148    ; 0x94
     992:    8312       strh r2, [r2, #24]
     994:    02fe       lsls r6, r7, #11
     996:    d069       beq.n 0xa6c
     998:    fe41 01f0  mcr2 1, 2, r0, cr1, cr0, {7}
     99c:    2101       movs r1, #1
     99e:    f01f 0101  ands.w r1, r15, #1
     9a2:    9e01       ldr r6, [sp, #4]
     9a4:    f070 b547  b.w 0x471436
     9a8:    fef4 db87  cdp2 11, 15, cr13, cr4, cr7, {4}
     9ac:    8c0f       ldrh r7, [r1, #32]
     9ae:    09e4       lsrs r4, r4, #7
     9b0:    6cab       ldr r3, [r5, #72]    ; 0x48
     9b2:    b0f0       sub sp, #448    ; 0x1c0
     9b4:    acad       add r4, sp, #692    ; 0x2b4
     9b6:    5bc7       ldrh r7, [r0, r7]
     9b8:    5315       strh r5, [r2, r4]
     9ba:    a457       add r4, pc, #348    ; (adr r4, 0xb18)
     9bc:    e490       b.n 0x2e0
     9be:    4305       orrs r5, r0
     9c0:    158d       asrs r5, r1, #22
     9c2:    30ad       adds r0, #173    ; 0xad
     9c4:    c712       stmia r7!, {r1, r4}
     9c6:    ea72 65b8  orns r5, r2, r8, ror #26
     9ca:    6d44       ldr r4, [r0, #84]    ; 0x54
     9cc:    854f       strh r7, [r1, #42]    ; 0x2a
     9ce:    409f       lsls r7, r3
     9d0:    433c       orrs r4, r7
     9d2:    65bb       str r3, [r7, #88]    ; 0x58
     9d4:    6814       ldr r4, [r2, #0]
     9d6:    0d40       lsrs r0, r0, #21
     9d8:    1707       asrs r7, r0, #28
     9da:    43bc       bics r4, r7
     9dc:    9feb       ldr r7, [sp, #940]    ; 0x3ac
     9de:    97eb       str r7, [sp, #940]    ; 0x3ac
     9e0:    6740       str r0, [r0, #116]    ; 0x74
     9e2:    4c33       ldr r4, [pc, #204]    ; (0xab0)
     9e4:    90e4       str r0, [sp, #912]    ; 0x390
     9e6:    79ba       ldrb r2, [r7, #6]
     9e8:    ca80       ldmia r2!, {r7}
     9ea:    2320       movs r3, #32
     9ec:    ad93       add r5, sp, #588    ; 0x24c
     9ee:    75f5       strb r5, [r6, #23]
     9f0:    6d02       ldr r2, [r0, #80]    ; 0x50
     9f2:    7a09       ldrb r1, [r1, #8]
     9f4:    cce9       ldmia r4!, {r0, r3, r5, r6, r7}
     9f6:    5fea       ldrsh r2, [r5, r7]
     9f8:    a8e8       add r0, sp, #928    ; 0x3a0
     9fa:    5a30       ldrh r0, [r6, r0]
     9fc:    008f       lsls r7, r1, #2
     9fe:    0121       lsls r1, r4, #4
     a00:    be72       bkpt 0x0072
     a02:    0160       lsls r0, r4, #5
     a04:    4181       sbcs r1, r0
     a06:    418d       sbcs r5, r1
     a08:    8147       strh r7, [r0, #10]
     a0a:    8f81       ldrh r1, [r0, #60]    ; 0x3c
     a0c:    0af8       lsrs r0, r7, #11
     a0e:    c088       stmia r0!, {r3, r7}
     a10:    7777       strb r7, [r6, #29]
     a12:    b5df       push {r0, r1, r2, r3, r4, r6, r7, r14}
     a14:    cf2f       ldmia r7!, {r0, r1, r2, r3, r5}
     a16:    8bf7       ldrh r7, [r6, #30]
     a18:    f204 d298  bl 0xe04f4c
     a1c:    eaca a898       ; <UNDEFINED> instruction: 0xeacaa898
     a20:    57a5       ldrsb r5, [r4, r6]
     a22:    773d       strb r5, [r7, #28]
     a24:    8060       strh r0, [r4, #2]
     a26:    0272       lsls r2, r6, #9
     a28:    3dc2       subs r5, #194    ; 0xc2
     a2a:    1ea8       subs r0, r5, #2
     a2c:    e935 a84f  ldmdb r5!, {r0, r1, r2, r3, r6, r11, r13, r15}
     a30:    8998       ldrh r0, [r3, #12]
     a32:    8109       strh r1, [r1, #8]
     a34:    b821            ; <UNDEFINED> instruction: 0xb821
     a36:    0070       lsls r0, r6, #1
     a38:    f672 ffb0  bl 0xffe7399c
     a3c:    6080       str r0, [r0, #8]
     a3e:    fd41 80f4  stc2l 0, cr8, [r1, #-976]    ; 0xfffffc30
     a42:    4f41       ldr r7, [pc, #260]    ; (0xb48)
     a44:    8e7e       ldrh r6, [r7, #50]    ; 0x32
     a46:    fe7f 480f  cdp2 8, 7, cr4, cr15, cr15, {0}
     a4a:    0f7f       lsrs r7, r7, #29
     a4c:    19b7       adds r7, r6, r6
     a4e:    00dd       lsls r5, r3, #3
     a50:    e2c2       b.n 0xfd8
     a52:    68ed       ldr r5, [r5, #12]
     a54:    3519       adds r5, #25
     a56:    1297       asrs r7, r2, #10
     a58:    05f0       lsls r0, r6, #23
     a5a:    4f51       ldr r7, [pc, #324]    ; (0xba0)
     a5c:    547f       strb r7, [r7, r1]
     a5e:    55a3       strb r3, [r4, r6]
     a60:    d5b5       bpl.n 0x9ce
     a62:    af74       add r7, sp, #464    ; 0x1d0
     a64:    012a       lsls r2, r5, #4
     a66:    d105       bne.n 0xa74
     a68:    84e0       strh r0, [r4, #38]    ; 0x26
     a6a:    0421       lsls r1, r4, #16
     a6c:    01d5       lsls r5, r2, #7
     a6e:    11fa       asrs r2, r7, #7
     a70:    77e0       strb r0, [r4, #31]
     a72:    f921 9305  vld2.8 {d9-d12}, [r1], r5
     a76:    3f49       subs r7, #73    ; 0x49
     a78:    f82a f687  strh.w r15, [r10, <undefined>]
     a7c:    15be       asrs r6, r7, #22
     a7e:    6d86       ldr r6, [r0, #88]    ; 0x58
     a80:    9271       str r2, [sp, #452]    ; 0x1c4
     a82:    a2ee       add r2, pc, #952    ; (adr r2, 0xe3c)
     a84:    914a       str r1, [sp, #296]    ; 0x128
     a86:    aa88       add r2, sp, #544    ; 0x220
     a88:    3eb5       subs r6, #181    ; 0xb5
     a8a:    5774       ldrsb r4, [r6, r5]
     a8c:    10c0       asrs r0, r0, #3
     a8e:    d4f8       bmi.n 0xa82
     a90:    a4aa       add r4, pc, #680    ; (adr r4, 0xd3c)
     a92:    e9a5 7a62       ; <UNDEFINED> instruction: 0xe9a57a62
     a96:    cf18       ldmia r7!, {r3, r4}
     a98:    8912       ldrh r2, [r2, #8]
     a9a:    2b88       cmp r3, #136    ; 0x88
     a9c:    e3b6       b.n 0x120c
     a9e:    5eb2       ldrsh r2, [r6, r2]
     aa0:    f5c8 b2e0  b.w 0xff9c9064
     aa4:    d00c       beq.n 0xac0
     aa6:    bfdc       itt le
     aa8:    f4c0 6f11       ; <UNDEFINED> instruction: 0xf4c06f11
     aac:    e7e1       ble.n 0xa72
     aae:    ae2f       add r6, sp, #188    ; 0xbc
     ab0:    2613       movs r6, #19
     ab2:    0cde       lsrs r6, r3, #19
     ab4:    ddea       ble.n 0xa8c
     ab6:    f129 425a       ; <UNDEFINED> instruction: 0xf129425a
     aba:    17ed       asrs r5, r5, #31
     abc:    7455       strb r5, [r2, #17]
     abe:    54a5       strb r5, [r4, r2]
     ac0:    b82c            ; <UNDEFINED> instruction: 0xb82c
     ac2:    5d4f       ldrb r7, [r1, r5]
     ac4:    8a1a       ldrh r2, [r3, #16]
     ac6:    d552       bpl.n 0xb6e
     ac8:    e554       b.n 0x574
     aca:    a0a5       add r0, pc, #660    ; (adr r0, 0xd60)
     acc:    bf4d       iteet mi
     ace:    f588 970e  bmi.w 0xff1898ee    ; unpredictable branch in IT block

     ad2:    d01f       beq.n 0xb14    ; unpredictable <IT:pl>
     ad4:    a268       addpl r2, pc, #416    ; (adr r2, 0xc78)
     ad6:    120a       asrmi r2, r1, #8
     ad8:    1208       asrs r0, r1, #8
     ada:    2e1f       cmp r6, #31
     adc:    6101       str r1, [r0, #16]
     ade:    2978       cmp r1, #120    ; 0x78
     ae0:    fe78 9e2f  cdp2 14, 7, cr9, cr8, cr15, {1}
     ae4:    1236       asrs r6, r6, #8
     ae6:    05ef       lsls r7, r5, #23
     ae8:    7178       strb r0, [r7, #5]
     aea:    0891       lsrs r1, r2, #2
     aec:    ab17       add r3, sp, #92    ; 0x5c
     aee:    423a       tst r2, r7
     af0:    a5cd       add r5, pc, #820    ; (adr r5, 0xe28)
     af2:    add2       add r5, sp, #840    ; 0x348
     af4:    0192       lsls r2, r2, #6
     af6:    b120       cbz r0, 0xb02
     af8:    7f1b       ldrb r3, [r3, #28]
     afa:    2d08       cmp r5, #8
     afc:    2a37       cmp r2, #55    ; 0x37
     afe:    5e1a       ldrsh r2, [r3, r0]
     b00:    f0b8 e8bd       ; <UNDEFINED> instruction: 0xf0b8e8bd
     b04:    b6b8            ; <UNDEFINED> instruction: 0xb6b8
     b06:    f000 04d2  and.w r4, r0, #210    ; 0xd2
     b0a:    4254       negs r4, r2
     b0c:    0310       lsls r0, r2, #12
     b0e:    071c       lsls r4, r3, #28
     b10:    2681       movs r6, #129    ; 0x81
     b12:    6181       str r1, [r0, #24]
     b14:    b2b9       uxth r1, r7
     b16:    1814       adds r4, r2, r0
     b18:    0c9f       lsrs r7, r3, #18
     b1a:    f78b 0942       ; <UNDEFINED> instruction: 0xf78b0942
     b1e:    10e8       asrs r0, r5, #3
     b20:    2252       movs r2, #82    ; 0x52
     b22:    cb2b       ldmia r3, {r0, r1, r3, r5}
     b24:    b7b2            ; <UNDEFINED> instruction: 0xb7b2
     b26:    f554 8069  bpl.w 0xfff14bfc
     b2a:    4607       mov r7, r0
     b2c:    56a6       ldrsb r6, [r4, r2]
     b2e:    5552       strb r2, [r2, r5]
     b30:    8c38       ldrh r0, [r7, #32]
     b32:    2b4b       cmp r3, #75    ; 0x4b
     b34:    0351       lsls r1, r2, #13
     b36:    d142       bne.n 0xbbe
     b38:    c700       stmia r7!, {}
     b3a:    4621       mov r1, r4
     b3c:    1e00       subs r0, r0, #0
     b3e:    f80f e120  strb.w r14, [r15, #-288]    ; 0xa20
     b42:    7789       strb r1, [r1, #30]
     b44:    d288       bcs.n 0xa58
     b46:    d142       bne.n 0xbce
     b48:    7bb2       ldrb r2, [r6, #14]
     b4a:    07b9       lsls r1, r7, #30
     b4c:    370c       adds r7, #12
     b4e:    499f       ldr r1, [pc, #636]    ; (0xdcc)
     b50:    eef0 0800  cdp 8, 15, cr0, cr0, cr0, {0}
     b54:    4a8f       ldr r2, [pc, #572]    ; (0xd94)
     b56:    c2cb       stmia r2!, {r0, r1, r3, r6, r7}
     b58:    9d55       ldr r5, [sp, #340]    ; 0x154
     b5a:    857d       strh r5, [r7, #42]    ; 0x2a
     b5c:    f0bd 47e8       ; <UNDEFINED> instruction: 0xf0bd47e8
     b60:    12aa       asrs r2, r5, #10
     b62:    74a9       strb r1, [r5, #18]
     b64:    dab4       bge.n 0xad0
     b66:    5a55       ldrh r5, [r2, r1]
     b68:    f8ec f8c4  str??.w r15, [r12, #2244]    ; 0x8c4
     b6c:    6f10       ldr r0, [r2, #112]    ; 0x70
     b6e:    e7be       b.n 0xaee
     b70:    9000       str r0, [sp, #0]
     b72:    40fb       lsrs r3, r7
     b74:    2f4c       cmp r7, #76    ; 0x4c
     b76:    df00       svc 0
     b78:    021e       lsls r6, r3, #8
     b7a:    2000       movs r0, #0
     b7c:    d6ff       bvs.n 0xb7e
     b7e:    97fe       str r7, [sp, #1016]    ; 0x3f8
     b80:    df0d       svc 13
     b82:    ff4e f1f1  veor <illegal reg q15.5>, q15, <illegal reg q8.5>
     b86:    10f1       asrs r1, r6, #3
     b88:    5a8b       ldrh r3, [r1, r2]
     b8a:    abab       add r3, sp, #684    ; 0x2ac
     b8c:    3554       adds r5, #84    ; 0x54
     b8e:    1225       asrs r5, r4, #8
     b90:    6801       ldr r1, [r0, #0]
     b92:    f041 57ca  orr.w r7, r1, #423624704    ; 0x19400000
     b96:    54ab       strb r3, [r5, r2]
     b98:    da3d       bge.n 0xc16
     b9a:    a912       add r1, sp, #72    ; 0x48
     b9c:    9b2b       ldr r3, [sp, #172]    ; 0xac
     b9e:    fc07 f5f4  stc2 5, cr15, [r7], {244}    ; 0xf4
     ba2:    41b1       sbcs r1, r6
     ba4:    8061       strh r1, [r4, #2]
     ba6:    c19e       stmia r1!, {r1, r2, r3, r4, r7}
     ba8:    7000       strb r0, [r0, #0]
     baa:    ff47 00f0  vqadd.u8 q8, <illegal reg q11.5>, q8
     bae:    00b5       lsls r5, r6, #2
     bb0:    f4b7 fb07  bl 0xffcb81c2
     bb4:    0e26       lsrs r6, r4, #24
     bb6:    0e77       lsrs r7, r6, #25
     bb8:    f1d1 f221  bl 0x5d1ffe
     bbc:    ab8a       add r3, sp, #552    ; 0x228
     bbe:    abda       add r3, sp, #872    ; 0x368
     bc0:    5555       strb r5, [r2, r5]
     bc2:    55e8       strb r0, [r5, r7]
     bc4:    1c20       adds r0, r4, #0
     bc6:    0002       movs r2, r0
     bc8:    1dd2       adds r2, r2, #7
     bca:    54a9       strb r1, [r5, r2]
     bcc:    1374       asrs r4, r6, #13
     bce:    ab5c       add r3, sp, #368    ; 0x170
     bd0:    70df       strb r7, [r3, #3]
     bd2:    0101       lsls r1, r0, #4
     bd4:    b800            ; <UNDEFINED> instruction: 0xb800
     bd6:    0070       lsls r0, r6, #1
     bd8:    0220       lsls r0, r4, #8
     bda:    00e3       lsls r3, r4, #3
     bdc:    4700       bx r0
     bde:    ff70 b521  vrshl.u64 d27, d17, d0
     be2:    0e30       lsrs r0, r6, #24
     be4:    dbb4       blt.n 0xb50
     be6:    e4fe       b.n 0x5e6
     be8:    e410       b.n 0x40c
     bea:    1fbe       subs r6, r7, #6
     bec:    2100       movs r1, #0
     bee:    f0f8 aa82  bcc.w 0xf90f6
     bf2:    a2a5       add r2, pc, #660    ; (adr r2, 0xe88)
     bf4:    872d       strh r5, [r5, #56]    ; 0x38
     bf6:    4c79       ldr r4, [pc, #484]    ; (0xddc)
     bf8:    4043       eors r3, r0
     bfa:    2184       movs r1, #132    ; 0x84
     bfc:    724a       strb r2, [r1, #9]
     bfe:    4cda       ldr r4, [pc, #872]    ; (0xf68)
     c00:    8f8d       ldrh r5, [r1, #60]    ; 0x3c
     c02:    3b7d       subs r3, #125    ; 0x7d
     c04:    11b9       asrs r1, r7, #6
     c06:    0022       movs r2, r4
     c08:    5278       strh r0, [r7, r1]
     c0a:    5d18       ldrb r0, [r3, r4]
     c0c:    00d1       lsls r1, r2, #3
     c0e:    85bd       strh r5, [r7, #44]    ; 0x2c
     c10:    491c       ldr r1, [pc, #112]    ; (0xc84)
     c12:    fe22 0629  cdp2 6, 2, cr0, cr2, cr9, {1}
     c16:    c9b2       ldmia r1, {r1, r4, r5, r7}
     c18:    3546       adds r5, #70    ; 0x46
     c1a:    092c       lsrs r4, r5, #4
     c1c:    5517       strb r7, [r2, r4]
     c1e:    0f2e       lsrs r6, r5, #28
     c20:    c241       stmia r2!, {r0, r6}
     c22:    6288       str r0, [r1, #40]    ; 0x28
     c24:    6318       str r0, [r3, #48]    ; 0x30
     c26:    e3b6       b.n 0x1396
     c28:    ad86       add r5, sp, #536    ; 0x218
     c2a:    537c       strh r4, [r7, r5]
     c2c:    03d0       lsls r0, r2, #15
     c2e:    0629       lsls r1, r5, #24
     c30:    b5f0       push {r4, r5, r6, r7, r14}
     c32:    5bb2       ldrh r2, [r6, r6]
     c34:    daac       bge.n 0xb90
     c36:    3ab2       subs r2, #178    ; 0xb2
     c38:    08ff       lsrs r7, r7, #3
     c3a:    c2f0       stmia r2!, {r4, r5, r6, r7}
     c3c:    ff04 07fa  vaba.u8 q0, q10, q13
     c40:    f105 00b7  add.w r0, r5, #183    ; 0xb7
     c44:    4482       add r10, r0
     c46:    ef78 4382  vcgt.s<illegal width 64> d20, d24, d2
     c4a:    0a70       lsrs r0, r6, #9
     c4c:    b7bb            ; <UNDEFINED> instruction: 0xb7bb
     c4e:    fc9e 2f3f  ldc2 15, cr2, [r14], {63}    ; 0x3f
     c52:    0eb2       lsrs r2, r6, #26
     c54:    f0f0 ccd0  blx 0x8f15f8
     c58:    a9aa       add r1, sp, #680    ; 0x2a8
     c5a:    868a       strh r2, [r1, #52]    ; 0x34
     c5c:    5555       strb r5, [r2, r5]
     c5e:    8d75       ldrh r5, [r6, #42]    ; 0x2a
     c60:    494e       ldr r1, [pc, #312]    ; (0xd9c)
     c62:    02f6       lsls r6, r6, #11
     c64:    2d22       cmp r5, #34    ; 0x22
     c66:    30aa       adds r0, #170    ; 0xaa
     c68:    da55       bge.n 0xd16
     c6a:    aa12       add r2, sp, #72    ; 0x48
     c6c:    00fd       lsls r5, r7, #3
     c6e:    4040       eors r0, r0
     c70:    fc80 6d48  stc2 13, cr6, [r0], {72}    ; 0x48
     c74:    4e78       ldr r6, [pc, #480]    ; (0xe58)
     c76:    0109       lsls r1, r1, #4
     c78:    0800       lsrs r0, r0, #32
     c7a:    2f40       cmp r7, #64    ; 0x40
     c7c:    0170       lsls r0, r6, #5
     c7e:    4720       bx r4
     c80:    fffd bfbf       ; <UNDEFINED> instruction: 0xfffdbfbf

function_7:
   0xc84:    7f89       ldrb r1, [r1, #30]
     c86:    bfba       itte lt
     c88:    0f60       lsrlt r0, r4, #29
     c8a:    0f07       lsrlt r7, r0, #28
     c8c:    aba6       addge r3, sp, #664    ; 0x298
     c8e:    575a       ldrsb r2, [r3, r5]
     c90:    7f7c       ldrb r4, [r7, #29]
     c92:    1b19       subs r1, r3, r4
     c94:    0394       lsls r4, r2, #14
     c96:    f822 0352  strh.w r0, [r2, <undefined>]
     c9a:    558c       strb r4, [r1, r6]
     c9c:    821d       strh r5, [r3, #16]
     c9e:    ba75       rev16 r5, r6
     ca0:    fb8e f601  smull r15, r6, r14, r1    ; <UNPREDICTABLE>
     ca4:    6ffb       ldr r3, [r7, #124]    ; 0x7c
     ca6:    f001 2878  and.w r8, r1, #2013296640    ; 0x78007800
     caa:    4dda       ldr r5, [pc, #872]    ; (0x1014)
     cac:    05d1       lsls r1, r2, #23
     cae:    d756       bvc.n 0xd5e
     cb0:    3128       adds r1, #40    ; 0x28
     cb2:    7868       ldrb r0, [r5, #1]
     cb4:    5787       ldrsb r7, [r0, r6]
     cb6:    2efd       cmp r6, #253    ; 0xfd
     cb8:    09df       lsrs r7, r3, #7
     cba:    273b       movs r7, #59    ; 0x3b
     cbc:    2e0a       cmp r6, #10
     cbe:    00f4       lsls r4, r6, #3
     cc0:    93aa       str r3, [sp, #680]    ; 0x2a8
     cc2:    523e       strh r6, [r7, r0]
     cc4:    4785            ; <UNDEFINED> instruction: 0x4785
     cc6:    7d54       ldrb r4, [r2, #21]
     cc8:    94f8       str r4, [sp, #992]    ; 0x3e0
     cca:    e01a       b.n 0xd02
     ccc:    1a8c       subs r4, r1, r2
     cce:    a1aa       add r1, pc, #680    ; (adr r1, 0xf78)
     cd0:    fc2a 5237  stc2 2, cr5, [r10], #-220    ; 0xffffff24
     cd4:    1adf       subs r7, r3, r3
     cd6:    4810       ldr r0, [pc, #64]    ; (0xd18)
     cd8:    8001       strh r1, [r0, #0]
     cda:    61f5       str r5, [r6, #28]
     cdc:    7401       strb r1, [r0, #16]
     cde:    fb0f 2028       ; <UNDEFINED> instruction: 0xfb0f2028
     ce2:    8978       ldrh r0, [r7, #10]
     ce4:    2694       movs r6, #148    ; 0x94
     ce6:    00f8       lsls r0, r7, #3
     ce8:    45ff       cmp r15, r15
     cea:    000f       movs r7, r1
     cec:    bbe7       cbnz r7, 0xd68
     cee:    f7e8 d8b6  bl 0xff7e8e5e
     cf2:    49f0       ldr r1, [pc, #960]    ; (0x10b4)
     cf4:    e21e       b.n 0x1134
     cf6:    aa52       add r2, sp, #328    ; 0x148
     cf8:    9d45       ldr r5, [sp, #276]    ; 0x114
     cfa:    75ec       strb r4, [r5, #23]
     cfc:    48a4       ldr r0, [pc, #656]    ; (0xf90)
     cfe:    00f8       lsls r0, r7, #3
     d00:    1dba       adds r2, r7, #6
     d02:    c5a9       stmia r5!, {r0, r3, r5, r7}
     d04:    8a5c       ldrh r4, [r3, #18]
     d06:    52d8       strh r0, [r3, r3]
     d08:    00ec       lsls r4, r5, #3
     d0a:    f44f 8f02  bne.w 0xfff90b12
     d0e:    f8ad 0010  strh.w r0, [r13, #16]
     d12:    48f2       ldr r0, [pc, #968]    ; (0x10dc)
     d14:    9000       str r0, [sp, #0]
     d16:    df01       svc 1
     d18:    f88d 0012  strb.w r0, [r13, #18]
     d1c:    dfff       svc 255    ; 0xff
     d1e:    6ffe       ldr r6, [r7, #124]    ; 0x7c
     d20:    9f0d       ldr r7, [sp, #52]    ; 0x34
     d22:    4967       ldr r1, [pc, #412]    ; (0xec0)
     d24:    00f2       lsls r2, r6, #3
     d26:    0b3c       lsrs r4, r7, #12
     d28:    523e       strh r6, [r7, r0]
     d2a:    aa93       add r2, sp, #588    ; 0x24c
     d2c:    a555       add r5, pc, #340    ; (adr r5, 0xe84)
     d2e:    ae65       add r6, sp, #404    ; 0x194
     d30:    f000 ff78  bl 0x1c24
     d34:    5317       strh r7, [r2, r4]
     d36:    251a       movs r5, #26
     d38:    ee55 aad8  mrc 10, 2, r10, cr5, cr8, {6}
     d3c:    58df       ldr r7, [r3, r3]
     d3e:    0000       movs r0, r0
     d40:    4520       cmp r0, r4
     d42:    001c       movs r4, r3
     d44:    a800       add r0, sp, #0
     d46:    0070       lsls r0, r6, #1
     d48:    4d00       ldr r5, [pc, #0]    ; (0xd4c)
     d4a:    ff39 2d4f  vabd.f<illegal width 64> q1, <illegal reg q4.5>, <illegal reg q7.5>
     d4e:    f7e9 7bb9       ; <UNDEFINED> instruction: 0xf7e97bb9
     d52:    fa4f 0e9f       ; <UNDEFINED> instruction: 0xfa4f0e9f
     d56:    0c2f       lsrs r7, r5, #16
     d58:    f008 2fd0  and.w r15, r8, #3489714176    ; 0xd000d000
     d5c:    563a       ldrsb r2, [r7, r0]
     d5e:    aa19       add r2, sp, #100    ; 0x64
     d60:    54c5       strb r5, [r0, r3]
     d62:    57c5       ldrsb r5, [r0, r7]
     d64:    0e46       lsrs r6, r0, #25
     d66:    8146       strh r6, [r0, #10]
     d68:    adaa       add r5, sp, #680    ; 0x2a8
     d6a:    6161       str r1, [r4, #20]
     d6c:    5b52       ldrh r2, [r2, r5]
     d6e:    2afe       cmp r2, #254    ; 0xfe
     d70:    f8ff 3097  ldr??.w r3, [r15, #151]    ; 0xe0b
     d74:    d7d9       bvc.n 0xd2a
     d76:    0e01       lsrs r1, r0, #24
     d78:    4978       ldr r1, [pc, #480]    ; (0xf5c)
     d7a:    0907       lsrs r7, r0, #4
     d7c:    29d1       cmp r1, #209    ; 0xd1
     d7e:    f501 1cb2  add.w r12, r1, #1458176    ; 0x164000
     d82:    c040       stmia r0!, {r6}
     d84:    07ff       lsls r7, r7, #31
     d86:    cf78       ldmia r7!, {r3, r4, r5, r6}
     d88:    27d6       movs r7, #214    ; 0xd6
     d8a:    0d09       lsrs r1, r1, #20
     d8c:    d008       beq.n 0xda0
     d8e:    77f2       strb r2, [r6, #31]
     d90:    aa5a       add r2, sp, #360    ; 0x168
     d92:    ae9a       add r6, sp, #616    ; 0x268
     d94:    aa2d       add r2, sp, #180    ; 0xb4
     d96:    ed66 f00a  stcl 0, cr15, [r6, #-40]!    ; 0xffffffd8
     d9a:    014f       lsls r7, r1, #5
     d9c:    567b       ldrsb r3, [r7, r1]
     d9e:    5482       strb r2, [r0, r2]
     da0:    2a2c       cmp r2, #44    ; 0x2c
     da2:    451d       cmp r5, r3
     da4:    042f       lsls r7, r5, #16
     da6:    fc28 cf00  stc2 15, cr12, [r8], #-0
     daa:    97f8       str r7, [sp, #992]    ; 0x3e0
     dac:    06d0       lsls r0, r2, #27
     dae:    01d7       lsls r7, r2, #7
     db0:    97f8       str r7, [sp, #992]    ; 0x3e0
     db2:    f5e0 0128       ; <UNDEFINED> instruction: 0xf5e00128
     db6:    3000       adds r0, #0
     db8:    afb9       add r7, sp, #740    ; 0x2e4
     dba:    f92f 4749  vld1.16 {d4}, [r15], r9
     dbe:    0fef       lsrs r7, r5, #31
     dc0:    c0f0       stmia r0!, {r4, r5, r6, r7}
     dc2:    7708       strb r0, [r1, #28]
     dc4:    a2aa       add r2, pc, #680    ; (adr r2, 0x1070)
     dc6:    6152       str r2, [r2, #20]
     dc8:    9051       str r0, [sp, #324]    ; 0x144
     dca:    53be       strh r6, [r7, r6]
     dcc:    01d0       lsls r0, r2, #7
     dce:    222c       movs r2, #44    ; 0x2c
     dd0:    799b       ldrb r3, [r3, #6]
     dd2:    167b       asrs r3, r7, #25
     dd4:    329d       adds r2, #157    ; 0x9d
     dd6:    ace4       add r4, sp, #912    ; 0x390
     dd8:    2cfa       cmp r4, #250    ; 0xfa
     dda:    22d1       movs r2, #209    ; 0xd1
     ddc:    072b       lsls r3, r5, #28
     dde:    9700       str r7, [sp, #0]
     de0:    f001 40ff  and.w r0, r1, #2139095040    ; 0x7f800000
     de4:    f82b 7800  strh.w r7, [r11, <undefined>]
     de8:    2c05       cmp r4, #5
     dea:    43d1       mvns r1, r2
     dec:    07d4       lsls r4, r2, #31
     dee:    68ff       ldr r7, [r7, #12]
     df0:    ff0d 4f0f  vpmax.f32 d4, d13, d15
     df4:    08db       lsrs r3, r3, #3
     df6:    77f0       strb r0, [r6, #31]
     df8:    5281       strh r1, [r0, r2]
     dfa:    3daa       subs r5, #170    ; 0xaa
     dfc:    7d4e       ldrb r6, [r1, #21]
     dfe:    5684       ldrsb r4, [r0, r2]
     e00:    f834 cba0  ldrh.w r12, [r4], #160
     e04:    572d       ldrsb r5, [r5, r4]
     e06:    ad8a       add r5, sp, #552    ; 0x228
     e08:    8040       strh r0, [r0, #2]
     e0a:    4a55       ldr r2, [pc, #340]    ; (0xf60)
     e0c:    4878       ldr r0, [pc, #480]    ; (0xff0)
     e0e:    f846 d522  str.w r13, [r6, <undefined>]
     e12:    2c90       cmp r4, #144    ; 0x90
     e14:    0597       lsls r7, r2, #22
     e16:    f82e 2b01  strh.w r2, [r14], #1
     e1a:    0f10       lsrs r0, r2, #28
     e1c:    fe87 f801  cdp2 8, 8, cr15, cr7, cr1, {0}
     e20:    d4bc       bmi.n 0xd9c
     e22:    d3ef       bcc.n 0xe04
     e24:    0a98       lsrs r0, r3, #10
     e26:    f7de dbf1  bl 0xff7df60c
     e2a:    00e0       lsls r0, r4, #3
     e2c:    572d       ldrsb r5, [r5, r4]
     e2e:    52ab       strh r3, [r5, r2]
     e30:    7e6d       ldrb r5, [r5, #25]
     e32:    2645       movs r6, #69    ; 0x45
     e34:    cb34       ldmia r3!, {r2, r4, r5}
     e36:    00f8       lsls r0, r7, #3
     e38:    547a       strb r2, [r7, r1]
     e3a:    79ee       ldrb r6, [r5, #7]
     e3c:    bd84       pop {r2, r7, r15}
     e3e:    8659       strh r1, [r3, #50]    ; 0x32
     e40:    784e       ldrb r6, [r1, #1]
     e42:    9806       ldr r0, [sp, #24]
     e44:    bb2c       cbnz r4, 0xe92
     e46:    2010       movs r0, #16
     e48:    87f8       strh r0, [r7, #62]    ; 0x3e
     e4a:    d1fe       bne.n 0xe4a
     e4c:    0c2c       lsrs r4, r5, #16
     e4e:    ff2b 97f8  vaba.u32 <illegal reg q4.5>, <illegal reg q13.5>, q12
     e52:    d10e       bne.n 0xe72
     e54:    efd7 ffd4       ; <UNDEFINED> instruction: 0xefd7ffd4
     e58:    88f7       ldrh r7, [r6, #6]
     e5a:    de05       udf #5
     e5c:    3b08       subs r3, #8
     e5e:    60da       str r2, [r3, #12]
     e60:    af4a       add r7, sp, #296    ; 0x128
     e62:    0a9e       lsrs r6, r3, #10
     e64:    5484       strb r4, [r0, r2]
     e66:    7911       ldrb r1, [r2, #4]
     e68:    2b90       cmp r3, #144    ; 0x90
     e6a:    f887 6161  strb.w r6, [r7, #353]    ; 0x161
     e6e:    c552       stmia r5!, {r1, r4, r6}
     e70:    a96f       add r1, sp, #444    ; 0x1bc
     e72:    7a79       ldrb r1, [r7, #9]
     e74:    01bc       lsls r4, r7, #6
     e76:    d02c       beq.n 0xed2
     e78:    bf21       itttt cs
     e7a:    d12c       bne.n 0xed6    ; unpredictable <IT:cs>
     e7c:    3006       addcs r0, #6
     e7e:    b367       cbz r7, 0xeda    ; unpredictable <IT:cs>
     e80:    0543       lslcs r3, r0, #21
     e82:    2e2c       cmp r6, #44    ; 0x2c
     e84:    2e97       cmp r6, #151    ; 0x97
     e86:    00f8       lsls r0, r7, #3
     e88:    efbf ff0f       ; <UNDEFINED> instruction: 0xefbfff0f
     e8c:    2188       movs r1, #136    ; 0x88
     e8e:    0ff7       lsrs r7, r6, #31
     e90:    f5ca 21dc  rsb r1, r10, #450560    ; 0x6e000
     e94:    843d       strh r5, [r7, #32]
     e96:    aa52       add r2, sp, #328    ; 0x148
     e98:    7515       strb r5, [r2, #20]
     e9a:    55a5       strb r5, [r4, r6]
     e9c:    2e87       cmp r6, #135    ; 0x87
     e9e:    00f8       lsls r0, r7, #3
     ea0:    798b       ldrb r3, [r1, #6]
     ea2:    84af       strh r7, [r5, #36]    ; 0x24
     ea4:    52c2       strh r2, [r0, r3]
     ea6:    aa7b       add r2, sp, #492    ; 0x1ec
     ea8:    f0bf 0040       ; <UNDEFINED> instruction: 0xf0bf0040
     eac:    0787       lsls r7, r0, #30
     eae:    002e       movs r6, r5
     eb0:    f897 00d1  ldrb.w r0, [r7, #209]    ; 0xd1
     eb4:    2870       cmp r0, #112    ; 0x70
     eb6:    2e22       cmp r6, #34    ; 0x22
     eb8:    f887 902e  strb.w r9, [r7, #46]    ; 0x2e
     ebc:    0778       lsls r0, r7, #29
     ebe:    5fd0       ldrsh r0, [r2, r7]
     ec0:    f798 0f23       ; <UNDEFINED> instruction: 0xf7980f23
     ec4:    0070       lsls r0, r6, #1
     ec6:    f0f1 522d       ; <UNDEFINED> instruction: 0xf0f1522d
     eca:    aa87       add r2, sp, #540    ; 0x21c
     ecc:    b542       push {r1, r6, r14}
     ece:    7916       ldrb r6, [r2, #4]
     ed0:    d105       bne.n 0xede
     ed2:    f897 7b5a  ldrb.w r7, [r7, #2906]    ; 0xb5a
     ed6:    75aa       strb r2, [r5, #22]
     ed8:    baad       hlt 0x002d
     eda:    2d55       cmp r5, #85    ; 0x55
     edc:    2ed3       cmp r6, #211    ; 0xd3
     ede:    3a00       subs r2, #0
     ee0:    faf8 97d1       ; <UNDEFINED> instruction: 0xfaf897d1
     ee4:    2ef0       cmp r6, #240    ; 0xf0
     ee6:    20ff       movs r0, #255    ; 0xff
     ee8:    20f8       movs r0, #248    ; 0xf8
     eea:    7800       ldrb r0, [r0, #0]
     eec:    2e2c       cmp r6, #44    ; 0x2c
     eee:    2100       movs r1, #0
     ef0:    fa07 682e       ; <UNDEFINED> instruction: 0xfa07682e
     ef4:    21ff       movs r1, #255    ; 0xff
     ef6:    2f0f       cmp r7, #15
     ef8:    b008       add sp, #32
     efa:    77f0       strb r0, [r6, #31]
     efc:    845a       strh r2, [r3, #34]    ; 0x22
     efe:    aeaa       add r6, sp, #680    ; 0x2a8
     f00:    887d       ldrh r5, [r7, #2]
     f02:    54ab       strb r3, [r5, r2]
     f04:    517e       str r6, [r7, r5]
     f06:    78d1       ldrb r1, [r2, #3]
     f08:    1e5e       subs r6, r3, #1
     f0a:    1a3c       subs r4, r7, r0
     f0c:    c67d       stmia r6!, {r0, r2, r3, r4, r5, r6}
     f0e:    ab2a       add r3, sp, #168    ; 0xa8
     f10:    d007       beq.n 0xf22
     f12:    9708       str r7, [sp, #32]
     f14:    ff28 0128  vrhadd.u32 d0, d8, d24
     f18:    d0f8       beq.n 0xf0c
     f1a:    97e7       str r7, [sp, #924]    ; 0x39c
     f1c:    0028       movs r0, r5
     f1e:    fe2f d0e0  cdp2 0, 2, cr13, cr15, cr0, {7}
     f22:    4214       tst r4, r2
     f24:    8189       strh r1, [r1, #12]
     f26:    c747       stmia r7!, {r0, r1, r2, r6}
     f28:    f71f 2898       ; <UNDEFINED> instruction: 0xf71f2898
     f2c:    ba08       rev r0, r1
     f2e:    777e       strb r6, [r7, #29]
     f30:    ba52       rev16 r2, r2
     f32:    2d8c       cmp r5, #140    ; 0x8c
     f34:    c5ad       stmia r5!, {r0, r2, r3, r5, r7}
     f36:    d74c       bvc.n 0xfd2
     f38:    0ff8       lsrs r0, r7, #31
     f3a:    53f0       strh r0, [r6, r7]
     f3c:    37ec       adds r7, #236    ; 0xec
     f3e:    74aa       strb r2, [r5, #18]
     f40:    d535       bpl.n 0xfae
     f42:    aaa0       add r2, sp, #640    ; 0x280
     f44:    040f       lsls r7, r1, #16
     f46:    0146       lsls r6, r0, #5
     f48:    dde0       ble.n 0xf0c
     f4a:    f5fe 2800       ; <UNDEFINED> instruction: 0xf5fe2800
     f4e:    9707       str r7, [sp, #28]
     f50:    04d0       lsls r0, r2, #19
     f52:    fe28 2f00  cdp2 15, 2, cr2, cr8, cr0, {0}
     f56:    97f8       str r7, [sp, #992]    ; 0x3e0
     f58:    eb2f fed7       ; <UNDEFINED> instruction: 0xeb2ffed7
     f5c:    08fe       lsrs r6, r7, #3
     f5e:    16ef       asrs r7, r5, #27
     f60:    088b       lsrs r3, r1, #2
     f62:    e8f7 c8ec  ldrd r12, r8, [r7], #944    ; 0x3b0
     f66:    12d9       asrs r1, r3, #11
     f68:    7545       strb r5, [r0, #21]
     f6a:    06ad       lsls r5, r5, #26
     f6c:    01f5       lsls r5, r6, #7
     f6e:    7e48       ldrb r0, [r1, #25]
     f70:    34ab       adds r4, #171    ; 0xab
     f72:    2a5a       cmp r2, #90    ; 0x5a
     f74:    5029       str r1, [r5, r0]
     f76:    831d       strh r5, [r3, #24]
     f78:    78c7       ldrb r7, [r0, #3]
     f7a:    0070       lsls r0, r6, #1
     f7c:    0710       lsls r0, r2, #28
     f7e:    8790       strh r0, [r2, #60]    ; 0x3c
     f80:    f118 a7f8  bmi.w 0x59f74
     f84:    e097       b.n 0x10b6
     f86:    faf8 0087       ; <UNDEFINED> instruction: 0xfaf80087
     f8a:    2df8       cmp r5, #248    ; 0xf8
     f8c:    ff78 d307  vcgt.u<illegal width 64> d29, d8, d7
     f90:    9f98       ldr r7, [sp, #608]    ; 0x260
     f92:    20f7       movs r0, #247    ; 0xf7
     f94:    f0f0 d600  bl 0xcf1b98
     f98:    543d       strb r5, [r7, r0]
     f9a:    c952       ldmia r1, {r1, r4, r6}
     f9c:    5555       strb r5, [r2, r5]
     f9e:    6ca5       ldr r5, [r4, #72]    ; 0x48
     fa0:    f903 f7f0  vst1.64 {d15}, [r3 :256], r0
     fa4:    b82d            ; <UNDEFINED> instruction: 0xb82d
     fa6:    ad57       add r5, sp, #348    ; 0x15c
     fa8:    b1c2       cbz r2, 0xfdc
     faa:    52c5       strh r5, [r0, r3]
     fac:    3d90       subs r5, #144    ; 0x90
     fae:    4a00       ldr r2, [pc, #0]    ; (0xfb0)
     fb0:    7b02       ldrb r2, [r0, #12]
     fb2:    d042       beq.n 0x103a
     fb4:    b8e8            ; <UNDEFINED> instruction: 0xb8e8
     fb6:    0f0e       lsrs r6, r1, #28
     fb8:    2297       movs r2, #151    ; 0x97
     fba:    07d1       lsls r1, r2, #31
     fbc:    2c01       cmp r4, #1
     fbe:    2100       movs r1, #0
     fc0:    fef5 2ed7  mrc2 14, 7, r2, cr5, cr7, {6}
     fc4:    0f1c       lsrs r4, r3, #28
     fc6:    532f       strh r7, [r5, r4]
     fc8:    6cf0       ldr r0, [r6, #76]    ; 0x4c
     fca:    21b2       movs r1, #178    ; 0xb2
     fcc:    aaea       add r2, sp, #936    ; 0x3a8
     fce:    b68b            ; <UNDEFINED> instruction: 0xb68b
     fd0:    9551       str r5, [sp, #324]    ; 0x144
     fd2:    7de7       ldrb r7, [r4, #23]
     fd4:    f701 29d3       ; <UNDEFINED> instruction: 0xf70129d3
     fd8:    5332       strh r2, [r6, r4]
     fda:    84b8       strh r0, [r7, #36]    ; 0x24
     fdc:    2dad       cmp r5, #173    ; 0xad
     fde:    1b45       subs r5, r0, r5
     fe0:    091f       lsrs r7, r3, #4
     fe2:    a002       add r0, pc, #8    ; (adr r0, 0xfec)
     fe4:    fd90 f887  ldc2 8, cr15, [r0, #540]    ; 0x21c
     fe8:    0490       lsls r0, r2, #18
     fea:    f878 6890  ldr??.w r6, [r8, <undefined>]
     fee:    07c7       lsls r7, r0, #31
     ff0:    6c90       ldr r0, [r2, #72]    ; 0x48
     ff2:    f8c7 fb6f  str.w r15, [r7, #2927]    ; 0xb6f
     ff6:    0734       lsls r4, r6, #28
     ff8:    40ff       lsrs r7, r7
     ffa:    2f0e       cmp r7, #14
     ffc:    f060 f8f0  bl 0x611e0
    1000:    94aa       str r4, [sp, #680]    ; 0x2a8
    1002:    523d       strh r5, [r7, r0]
    1004:    4d84       ldr r5, [pc, #528]    ; (0x1218)
    1006:    17d1       asrs r1, r2, #31
    1008:    2c00       cmp r4, #0
    100a:    f897 54ab  ldrb.w r5, [r7, #1195]    ; 0x4ab
    100e:    7d8b       ldrb r3, [r1, #22]
    1010:    aa5f       add r2, sp, #380    ; 0x17c
    1012:    8a84       ldrh r4, [r0, #20]
    1014:    9cec       ldr r4, [sp, #944]    ; 0x3b0
    1016:    425c       negs r4, r3
    1018:    ff00 21d1  veor q1, q8, <illegal reg q0.5>
    101c:    c040       stmia r0!, {r6}
    101e:    b2e3       uxtb r3, r4
    1020:    f704 2c28       ; <UNDEFINED> instruction: 0xf7042c28
    1024:    0801       lsrs r1, r0, #32
    1026:    d129       bne.n 0x107c
    1028:    eff9 4e67  vext.8 q10, <illegal reg q4.5>, <illegal reg q11.5>, #14
    102c:    0c88       lsrs r0, r1, #18
    102e:    aff7       add r7, sp, #988    ; 0x3dc
    1030:    77f1       strb r1, [r6, #31]
    1032:    0810       lsrs r0, r2, #32
    1034:    aba9       add r3, sp, #676    ; 0x2a4
    1036:    8a3a       ldrh r2, [r7, #16]
    1038:    1255       asrs r5, r2, #9
    103a:    1dc5       adds r5, r0, #7
    103c:    9080       str r0, [sp, #512]    ; 0x200
    103e:    f838 5586  ldrh.w r5, [r8, <undefined>]
    1042:    7dab       ldrb r3, [r5, #22]
    1044:    7b5c       ldrb r4, [r3, #13]
    1046:    8a55       ldrh r5, [r2, #18]
    1048:    5cee       ldrb r6, [r5, r3]
    104a:    428c       cmp r4, r1
    104c:    2e01       cmp r6, #1
    104e:    2101       movs r1, #1
    1050:    9102       str r1, [sp, #8]
    1052:    1cbf       adds r7, r7, #2
    1054:    b2c0       uxtb r0, r0
    1056:    d704       bvc.n 0x1062
    1058:    d3f6       bcc.n 0x1048
    105a:    2401       movs r4, #1
    105c:    64f9       str r1, [r7, #76]    ; 0x4c
    105e:    bf4b       itete mi
    1060:    474c       bxmi r9    ; unpredictable branch in IT block

    1062:    464b       movpl r3, r9
    1064:    bab4       hlt 0x0034
    1066:    dbf0       blt.n 0x104a    ; unpredictable <IT:pl>
    1068:    31aa       adds r1, #170    ; 0xaa
    106a:    41aa       sbcs r2, r5
    106c:    5590       strb r0, [r2, r6]
    106e:    be54       bkpt 0x0054
    1070:    01c5       lsls r5, r0, #7
    1072:    eb02 907a       ; <UNDEFINED> instruction: 0xeb02907a
    1076:    7ba8       ldrb r0, [r5, #14]
    1078:    ab85       add r3, sp, #532    ; 0x214
    107a:    e97e 36c0  ldrd r3, r6, [r14, #-768]!    ; 0x300
    107e:    804f       strh r7, [r1, #2]
    1080:    c4b1       stmia r4!, {r0, r4, r5, r7}
    1082:    237e       movs r3, #126    ; 0x7e
    1084:    db30       blt.n 0x10e8
    1086:    3407       adds r4, #7
    1088:    0b9b       lsrs r3, r3, #14
    108a:    fdb9 43f8  ldc2 3, cr4, [r9, #992]!    ; 0x3e0
    108e:    97b1       str r7, [sp, #708]    ; 0x2c4
    1090:    d9d4       bls.n 0x103c
    1092:    fecf 1424  cdp2 4, 12, cr1, cr15, cr4, {1}
    1096:    0ddf       lsrs r7, r3, #23
    1098:    ebad 6020  sub.w r0, r13, r0, asr #24
    109c:    2a4a       cmp r2, #74    ; 0x4a
    109e:    9bec       ldr r3, [sp, #944]    ; 0x3b0
    10a0:    6413       str r3, [r2, #64]    ; 0x40
    10a2:    7d13       ldrb r3, [r2, #20]
    10a4:    06f0       lsls r0, r6, #27
    10a6:    039a       lsls r2, r3, #14
    10a8:    a9ec       add r1, sp, #944    ; 0x3b0
    10aa:    d5b9       bpl.n 0x1020
    10ac:    5255       strh r5, [r2, r1]
    10ae:    8ec2       ldrh r2, [r0, #54]    ; 0x36
    10b0:    282f       cmp r0, #47    ; 0x2f
    10b2:    0502       lsls r2, r0, #20
    10b4:    d7d0       bvc.n 0x1058
    10b6:    0312       lsls r2, r2, #12
    10b8:    28d0       cmp r0, #208    ; 0xd0
    10ba:    01fc       lsls r4, r7, #7
    10bc:    28d1       cmp r0, #209    ; 0xd1
    10be:    de13       udf #19
    10c0:    495d       ldr r1, [pc, #372]    ; (0x1238)
    10c2:    482e       ldr r0, [pc, #184]    ; (0x117c)
    10c4:    bcaa       pop {r1, r3, r5, r7}
    10c6:    b7df            ; <UNDEFINED> instruction: 0xb7df
    10c8:    2f9f       cmp r7, #159    ; 0x9f
    10ca:    0e0e       lsrs r6, r1, #24
    10cc:    10ad       asrs r5, r5, #2
    10ce:    70ea       strb r2, [r5, #3]
    10d0:    4df7       ldr r5, [pc, #988]    ; (0x14b0)
    10d2:    224e       movs r2, #78    ; 0x4e
    10d4:    b27e       sxtb r6, r7
    10d6:    54b7       strb r7, [r6, r2]
    10d8:    d04f       beq.n 0x117a
    10da:    1f14       subs r4, r2, #4
    10dc:    6ed4       ldr r4, [r2, #108]    ; 0x6c
    10de:    d595       bpl.n 0x100c
    10e0:    71ad       strb r5, [r5, #6]
    10e2:    89e4       ldrh r4, [r4, #14]
    10e4:    0b46       lsrs r6, r0, #13
    10e6:    3430       adds r4, #48    ; 0x30
    10e8:    fcb3 029b  ldc2 2, cr0, [r3], #620    ; 0x26c
    10ec:    2630       movs r6, #48    ; 0x30
    10ee:    9707       str r7, [sp, #28]
    10f0:    2fd0       cmp r7, #208    ; 0xd0
    10f2:    fe2b 43d0  mcr2 3, 1, r4, cr11, cr0, {6}
    10f6:    022b       lsls r3, r5, #8
    10f8:    7fb9       ldrb r1, [r7, #30]
    10fa:    6fa2       ldr r2, [r4, #120]    ; 0x78
    10fc:    4e52       ldr r6, [pc, #328]    ; (0x1248)
    10fe:    1047       asrs r7, r0, #1
    1100:    b1a5       cbz r5, 0x112c
    1102:    51b3       str r3, [r6, r6]
    1104:    ac33       add r4, sp, #204    ; 0xcc
    1106:    eaec cba8       ; <UNDEFINED> instruction: 0xeaeccba8
    110a:    56a5       ldrsb r5, [r4, r2]
    110c:    0698       lsls r0, r3, #26
    110e:    174f       asrs r7, r1, #29
    1110:    62aa       str r2, [r5, #40]    ; 0x28
    1112:    4382       bics r2, r0
    1114:    3229       adds r2, #41    ; 0x29
    1116:    aa85       add r2, sp, #532    ; 0x214
    1118:    2884       cmp r0, #132    ; 0x84
    111a:    01d0       lsls r0, r2, #7
    111c:    b929       cbnz r1, 0x112a
    111e:    3246       adds r2, #70    ; 0x46
    1120:    4604       mov r4, r0
    1122:    400f       ands r7, r1
    1124:    fd04 cc46  stc2 12, cr12, [r4, #-280]    ; 0xfffffee8
    1128:    282b       cmp r0, #43    ; 0x2b
    112a:    e8d0 1fce       ; <UNDEFINED> instruction: 0xe8d01fce
    112e:    ceb9       ldmia r6!, {r0, r3, r4, r5, r7}
    1130:    4909       ldr r1, [pc, #36]    ; (0x1158)
    1132:    2795       movs r7, #149    ; 0x95
    1134:    003c       movs r4, r7
    1136:    f30b ec3d       ; <UNDEFINED> instruction: 0xf30bec3d
    113a:    2a52       cmp r2, #82    ; 0x52
    113c:    5557       strb r7, [r2, r5]
    113e:    717d       strb r5, [r7, #5]
    1140:    d012       beq.n 0x1168
    1142:    0528       lsls r0, r5, #20
    1144:    56a9       ldrsb r1, [r5, r2]
    1146:    7d7a       ldrb r2, [r7, #21]
    1148:    ab46       add r3, sp, #280    ; 0x118
    114a:    8285       strh r5, [r0, #20]
    114c:    d6fe       bvs.n 0x114c
    114e:    20d1       movs r0, #209    ; 0xd1
    1150:    fed3 e790  mrc2 7, 6, r14, cr3, cr0, {4}
    1154:    80d0       strh r0, [r2, #6]
    1156:    e7a2       b.n 0x109e
    1158:    d800       bhi.n 0x115c
    115a:    df00       svc 0
    115c:    3c00       subs r4, #0
    115e:    2000       movs r0, #0
    1160:    1bff       subs r7, r7, r7
    1162:    dfd2       svc 210    ; 0xd2
    1164:    4b0f       ldr r3, [pc, #60]    ; (0x11a4)
    1166:    0f82       lsrs r2, r0, #30
    1168:    4af0       ldr r2, [pc, #960]    ; (0x152c)
    116a:    d0ec       beq.n 0x1146
    116c:    daaa       bge.n 0x10c4
    116e:    aa21       add r2, sp, #132    ; 0x84
    1170:    4555       cmp r5, r10
    1172:    55da       strb r2, [r3, r7]
    1174:    5800       ldr r0, [r0, r0]
    1176:    008f       lsls r7, r1, #2
    1178:    55aa       strb r2, [r5, r6]
    117a:    db62       blt.n 0x1242
    117c:    aa75       add r2, sp, #468    ; 0x1d4
    117e:    86ef       strh r7, [r5, #54]    ; 0x36
    1180:    ba18       rev r0, r3
    1182:    5d88       ldrb r0, [r1, r6]
    1184:    7e78       ldrb r0, [r7, #25]
    1186:    487e       ldr r0, [pc, #504]    ; (0x1380)
    1188:    02d0       lsls r0, r2, #11
    118a:    29fe       cmp r1, #254    ; 0xfe
    118c:    02a0       lsls r0, r4, #10
    118e:    0780       lsls r0, r0, #30
    1190:    7c48       ldrb r0, [r1, #17]
    1192:    2400       movs r4, #0
    1194:    7ff8       ldrb r0, [r7, #31]
    1196:    87ff       strh r7, [r7, #62]    ; 0x3e
    1198:    2623       movs r6, #35    ; 0x23
    119a:    da0b       bge.n 0x11b4
    119c:    88b8       ldrh r0, [r7, #4]
    119e:    21f2       movs r1, #242    ; 0xf2
    11a0:    8b1b       ldrh r3, [r3, #24]
    11a2:    d22b       bcs.n 0x11fc
    11a4:    dd2d       ble.n 0x1202
    11a6:    1c23       adds r3, r4, #0
    11a8:    04d0       lsls r0, r2, #19
    11aa:    2801       cmp r0, #1
    11ac:    d5e9       bpl.n 0x1182
    11ae:    ad4a       add r5, sp, #296    ; 0x128
    11b0:    9f77       ldr r7, [sp, #476]    ; 0x1dc
    11b2:    8ef5       ldrh r5, [r6, #54]    ; 0x36
    11b4:    c8c0       ldmia r0!, {r6, r7}
    11b6:    78e0       ldrb r0, [r4, #3]
    11b8:    c301       stmia r3!, {r0}
    11ba:    d028       beq.n 0x120e
    11bc:    5001       str r1, [r0, r0]
    11be:    bb67       cbnz r7, 0x121a
    11c0:    3b71       subs r3, #113    ; 0x71
    11c2:    a34a       add r3, pc, #296    ; (adr r3, 0x12ec)
    11c4:    02ab       lsls r3, r5, #10
    11c6:    d142       bne.n 0x124e
    11c8:    4cec       ldr r4, [pc, #944]    ; (0x157c)
    11ca:    bda3       pop {r0, r1, r5, r7, r15}
    11cc:    4f0b       ldr r7, [pc, #44]    ; (0x11fc)
    11ce:    13df       asrs r7, r3, #15
    11d0:    dc30       bgt.n 0x1234
    11d2:    d842       bhi.n 0x125a
    11d4:    ba5f       rev16 r7, r3
    11d6:    4a79       ldr r2, [pc, #484]    ; (0x13bc)
    11d8:    5b79       ldrh r1, [r7, r5]
    11da:    877d       strh r5, [r7, #58]    ; 0x3a
    11dc:    0001       movs r1, r0
    11de:    f023 57b5  bic.w r7, r3, #379584512    ; 0x16a00000
    11e2:    1539       asrs r1, r7, #20
    11e4:    e633       b.n 0xe4e
    11e6:    a317       add r3, pc, #92    ; (adr r3, 0x1244)
    11e8:    3407       adds r4, #7
    11ea:    f854 af22  ldr.w r10, [r4, #34]!
    11ee:    431d       orrs r5, r3
    11f0:    f844 50dd  str.w r5, [r4, r13, lsl #1]
    11f4:    4a64       ldr r2, [pc, #400]    ; (0x1388)
    11f6:    cd2c       ldmia r5, {r2, r3, r5}
    11f8:    5c14       ldrb r4, [r2, r0]
    11fa:    2cc4       cmp r4, #196    ; 0xc4
    11fc:    2fab       cmp r7, #171    ; 0xab
    11fe:    23f4       movs r3, #244    ; 0xf4
    1200:    23cf       movs r3, #207    ; 0xcf
    1202:    df1f       svc 31
    1204:    dc31       bgt.n 0x126a
    1206:    20e1       movs r0, #225    ; 0xe1
    1208:    8668       strh r0, [r5, #50]    ; 0x32
    120a:    7ab5       ldrb r5, [r6, #10]
    120c:    7996       ldrb r6, [r2, #6]
    120e:    8447       strh r7, [r0, #34]    ; 0x22
    1210:    e01e       b.n 0x1250
    1212:    e05e       b.n 0x12d2
    1214:    fa4a 5b4a       ; <UNDEFINED> instruction: 0xfa4a5b4a
    1218:    6f85       ldr r5, [r0, #120]    ; 0x78
    121a:    e179       b.n 0x1510
    121c:    c62f       stmia r6!, {r0, r1, r2, r3, r5}
    121e:    462c       mov r4, r5
    1220:    1bd1       subs r1, r2, r7
    1222:    082c       lsrs r4, r5, #32
    1224:    19f8       adds r0, r7, r7
    1226:    811f       strh r7, [r3, #8]
    1228:    1ae0       subs r0, r4, r3
    122a:    ec90 81a0  ldfd f0, [r0], {160}    ; 0xa0
    122e:    1af8       subs r0, r7, r3
    1230:    7e5f       ldrb r7, [r3, #25]
    1232:    e607       b.n 0xe44
    1234:    0f49       lsrs r1, r1, #29
    1236:    2f2b       cmp r7, #43    ; 0x2b
    1238:    f607 0f69  addw r15, r7, #2153    ; 0x869
    123c:    a5ec       add r5, pc, #944    ; (adr r5, 0x15f0)
    123e:    8a52       ldrh r2, [r2, #18]
    1240:    53a5       strh r5, [r4, r6]
    1242:    56cc       ldrsb r4, [r1, r3]
    1244:    4b28       ldr r3, [pc, #160]    ; (0x12e8)
    1246:    01ff       lsls r7, r7, #7
    1248:    854a       strh r2, [r1, #42]    ; 0x2a
    124a:    629d       str r5, [r3, #40]    ; 0x28
    124c:    8ab5       ldrh r5, [r6, #20]
    124e:    aa57       add r2, sp, #348    ; 0x15c
    1250:    2089       movs r0, #137    ; 0x89
    1252:    8803       ldrh r3, [r0, #0]
    1254:    07a0       lsls r0, r4, #30
    1256:    1981       adds r1, r0, r6
    1258:    e77e       b.n 0x1158
    125a:    0813       lsrs r3, r2, #32
    125c:    b1f8       cbz r0, 0x129e
    125e:    6e10       ldr r0, [r2, #96]    ; 0x60
    1260:    00b1       lsls r1, r6, #2
    1262:    7020       strb r0, [r4, #0]
    1264:    07ff       lsls r7, r7, #31
    1266:    df6e       svc 110    ; 0x6e
    1268:    27de       movs r7, #222    ; 0xde
    126a:    ec0e 0850  stc 8, cr0, [r14], {80}    ; 0x50
    126e:    d43b       bmi.n 0x12e8
    1270:    5bab       ldrh r3, [r5, r6]
    1272:    8eab       ldrh r3, [r5, #52]    ; 0x34
    1274:    1dad       adds r5, r5, #6
    1276:    d410       bmi.n 0x129a
    1278:    a0f8       add r0, pc, #992    ; (adr r0, 0x165c)
    127a:    b001       add sp, #4
    127c:    5d2e       ldrb r6, [r5, r4]
    127e:    dfaa       svc 170    ; 0xaa
    1280:    2bad       cmp r3, #173    ; 0xad
    1282:    72b2       strb r2, [r6, #10]
    1284:    c107       stmia r1!, {r0, r1, r2}
    1286:    16a0       asrs r0, r4, #26
    1288:    7ef8       ldrb r0, [r7, #27]
    128a:    5ca0       ldrb r0, [r4, r2]
    128c:    3c4b       subs r4, #75    ; 0x4b
    128e:    005f       lsls r7, r3, #1
    1290:    c3f8       stmia r3!, {r3, r4, r5, r6, r7}
    1292:    0733       lsls r3, r6, #28
    1294:    c3f8       stmia r3!, {r3, r4, r5, r6, r7}
    1296:    0090       lsls r0, r2, #2
    1298:    7e07       ldrb r7, [r0, #24]
    129a:    fb6f c4f7       ; <UNDEFINED> instruction: 0xfb6fc4f7
    129e:    149f       asrs r7, r3, #18
    12a0:    7108       strb r0, [r1, #4]
    12a2:    d450       bmi.n 0x1346
    12a4:    6f4d       ldr r5, [r1, #116]    ; 0x74
    12a6:    983a       ldr r0, [sp, #232]    ; 0xe8
    12a8:    a3a8       add r3, pc, #672    ; (adr r3, 0x154c)
    12aa:    56a5       ldrsb r5, [r4, r2]
    12ac:    03f0       lsls r0, r6, #15
    12ae:    c2e7       stmia r2!, {r0, r1, r2, r5, r6, r7}
    12b0:    a815       add r0, sp, #84    ; 0x54
    12b2:    9a4d       ldr r2, [sp, #308]    ; 0x134
    12b4:    5a53       ldrh r3, [r2, r1]
    12b6:    a9ab       add r1, sp, #684    ; 0x2ac
    12b8:    e7ff       b.n 0x12ba
    12ba:    bc24       pop {r2, r5}
    12bc:    b9ff       cbnz r7, 0x12fe
    12be:    20f7       movs r0, #247    ; 0xf7
    12c0:    fc01 8fd7  stc2 15, cr8, [r1], {215}    ; 0xd7
    12c4:    d000       beq.n 0x12c8
    12c6:    fd20 9054  stc2 0, cr9, [r0, #-336]!    ; 0xfffffeb0
    12ca:    03e0       lsls r0, r4, #15
    12cc:    07ef       lsls r7, r5, #31
    12ce:    345f       adds r4, #95    ; 0x5f
    12d0:    ef0e 5e27  vceq.f32 d5, d14, d23
    12d4:    20c2       movs r0, #194    ; 0xc2
    12d6:    bfb6       itet lt
    12d8:    ecea 83ec  stcllt 3, cr8, [r10], #944    ; 0x3b0
    12dc:    a549       addge r5, pc, #292    ; (adr r5, 0x1404)
    12de:    51a9       strlt r1, [r5, r6]
    12e0:    46e8       mov r8, r13
    12e2:    0428       lsls r0, r5, #16
    12e4:    5783       ldrsb r3, [r0, r6]
    12e6:    797a       ldrb r2, [r7, #5]
    12e8:    a741       add r7, pc, #260    ; (adr r7, 0x13f0)
    12ea:    4a85       ldr r2, [pc, #532]    ; (0x1500)
    12ec:    247e       movs r4, #126    ; 0x7e
    12ee:    f849 fd81  str.w r15, [r9, #-129]!
    12f2:    f890 04c1  ldrb.w r0, [r0, #1217]    ; 0x4c1
    12f6:    f86f 68c1  str??.w r6, [r15, #-2241]    ; 0xa37
    12fa:    0790       lsls r0, r2, #30
    12fc:    6ccb       ldr r3, [r1, #76]    ; 0x4c
    12fe:    f890 fbff  pld [r0, #3071]    ; 0xbff
    1302:    db6f       blt.n 0x13e4
    1304:    0811       lsrs r1, r2, #32
    1306:    47ef            ; <UNDEFINED> instruction: 0x47ef
    1308:    60d2       str r2, [r2, #12]
    130a:    e008       b.n 0x131e
    130c:    aba8       add r3, sp, #672    ; 0x2a0
    130e:    7b83       ldrb r3, [r0, #14]
    1310:    d577       bpl.n 0x1402
    1312:    c5ad       stmia r5!, {r0, r2, r3, r5, r7}
    1314:    3501       adds r5, #1
    1316:    9824       ldr r0, [sp, #144]    ; 0x90
    1318:    4ee3       ldr r6, [pc, #908]    ; (0x16a8)
    131a:    ec5a 0017  mrrc 0, 1, r0, r10, cr7
    131e:    f66f 0aa3       ; <UNDEFINED> instruction: 0xf66f0aa3
    1322:    d102       bne.n 0x132a
    1324:    fbd0 42b2       ; <UNDEFINED> instruction: 0xfbd042b2
    1328:    c0b2       stmia r0!, {r1, r4, r5, r7}
    132a:    1cbf       adds r7, r7, #2
    132c:    f5d3 d72c  bl 0xff1d5188
    1330:    2c28       cmp r4, #40    ; 0x28
    1332:    e012       b.n 0x135a
    1334:    edb2 2def  ldc 13, cr2, [r2, #956]!    ; 0x3bc
    1338:    f73a 064c       ; <UNDEFINED> instruction: 0xf73a064c
    133c:    eff6 00f0  vshr.s64 q8, q8, #10
    1340:    898a       ldrh r2, [r1, #12]
    1342:    52ff       strh r7, [r7, r3]
    1344:    53a4       strh r4, [r4, r6]
    1346:    af5f       add r7, sp, #380    ; 0x17c
    1348:    05d0       lsls r0, r2, #23
    134a:    420a       tst r2, r1
    134c:    0da4       lsrs r4, r4, #22
    134e:    61e6       str r6, [r4, #28]
    1350:    8edf       ldrh r7, [r3, #54]    ; 0x36
    1352:    f616 23ba       ; <UNDEFINED> instruction: 0xf61623ba
    1356:    20f8       movs r0, #248    ; 0xf8
    1358:    f920 9946  vld2.16 {d9,d11}, [r0], r6
    135c:    7efe       ldrb r6, [r7, #27]
    135e:    ff08 0620  vmax.u8 d0, d8, d16
    1362:    6646       str r6, [r0, #100]    ; 0x64
    1364:    ba03       rev r3, r0
    1366:    fef0 fffe  mrc2 15, 7, r15, cr0, cr14, {7}
    136a:    2ed7       cmp r6, #215    ; 0xd7
    136c:    2f0f       cmp r7, #15
    136e:    492b       ldr r1, [pc, #172]    ; (0x141c)
    1370:    d4f0       bmi.n 0x1354
    1372:    0c00       lsrs r0, r0, #16
    1374:    a900       add r1, sp, #0
    1376:    324d       adds r2, #77    ; 0x4d
    1378:    e852 bde5       ; <UNDEFINED> instruction: 0xe852bde5
    137c:    00f0       lsls r0, r6, #3
    137e:    008f       lsls r7, r1, #2
    1380:    55f2       strb r2, [r6, r7]
    1382:    75aa       strb r2, [r5, #22]
    1384:    aa69       add r2, sp, #420    ; 0x1a4
    1386:    8a55       ldrh r5, [r2, #18]
    1388:    8b4d       ldrh r5, [r1, #26]
    138a:    0000       movs r0, r0
    138c:    d12c       bne.n 0x13e8
    138e:    2000       movs r0, #0
    1390:    e92d 5f0f  stmdb r13!, {r0, r1, r2, r3, r8, r9, r10, r11, r12, r14}
    1394:    4dad       ldr r5, [pc, #692]    ; (0x164c)
    1396:    de64       udf #100    ; 0x64
    1398:    f8df b2a8  ldr.w r11, [r15, #680]    ; 0x1644
    139c:    dbff       blt.n 0x139e
    139e:    b455       push {r0, r2, r4, r6}
    13a0:    4909       ldr r1, [pc, #36]    ; (0x13c8)
    13a2:    ff40 f8f2  vceq.i8 <illegal reg q15.5>, q8, q9
    13a6:    04bf       lsls r7, r7, #18
    13a8:    d3d0       bcc.n 0x134c
    13aa:    5ce5       ldrb r5, [r4, r3]
    13ac:    2faa       cmp r7, #170    ; 0xaa
    13ae:    a450       add r4, pc, #320    ; (adr r4, 0x14f0)
    13b0:    0790       lsls r0, r2, #30
    13b2:    280c       cmp r0, #12
    13b4:    4742       bx r8
    13b6:    8a78       ldrh r0, [r7, #18]
    13b8:    aa02       add r2, sp, #8
    13ba:    aca5       add r4, sp, #660    ; 0x294
    13bc:    0602       lsls r2, r0, #24
    13be:    e406       b.n 0xbce
    13c0:    0381       lsls r1, r0, #14
    13c2:    1111       asrs r1, r2, #4
    13c4:    06f0       lsls r0, r6, #27
    13c6:    01e8       lsls r0, r5, #7
    13c8:    a121       add r1, pc, #132    ; (adr r1, 0x1450)
    13ca:    f5f9 cb10  blx 0xff5fa9ec
    13ce:    28f8       cmp r0, #248    ; 0xf8
    13d0:    f52f fbd1  bl 0xffd30b76
    13d4:    0cdf       lsrs r7, r3, #19
    13d6:    0e21       lsrs r1, r4, #24
    13d8:    f220 f2de  bl 0x621998
    13dc:    878b       strh r3, [r1, #60]    ; 0x3c
    13de:    ae4b       add r6, sp, #300    ; 0x12c
    13e0:    6aad       ldr r5, [r5, #40]    ; 0x28
    13e2:    9eb5       ldr r6, [sp, #724]    ; 0x2d4
    13e4:    28e1       cmp r0, #225    ; 0xe1
    13e6:    2880       cmp r0, #128    ; 0x80
    13e8:    73e2       strb r2, [r4, #15]
    13ea:    c2aa       stmia r2!, {r1, r3, r5, r7}
    13ec:    8fbe       ldrh r6, [r7, #60]    ; 0x3c
    13ee:    aa55       add r2, sp, #340    ; 0x154
    13f0:    18b7       adds r7, r6, r2
    13f2:    9606       str r6, [sp, #24]
    13f4:    0d37       lsrs r7, r6, #20
    13f6:    e940 eb19  strd r14, r11, [r0, #-100]    ; 0x64
    13fa:    06ff       lsls r7, r7, #27
    13fc:    30eb       adds r0, #235    ; 0xeb
    13fe:    ff90 1af7       ; <UNDEFINED> instruction: 0xff901af7
    1402:    fe06 0104  cdp2 1, 0, cr0, cr6, cr4, {0}
    1406:    6f38       ldr r0, [r7, #112]    ; 0x70
    1408:    fef4 08f8  mrc2 8, 7, r0, cr4, cr8, {7}
    140c:    f042 70e1  orr.w r0, r2, #29491200    ; 0x1c20000
    1410:    41e8       rors r0, r5
    1412:    aa6a       add r2, sp, #424    ; 0x1a8
    1414:    a124       add r1, pc, #144    ; (adr r1, 0x14a8)
    1416:    2f1a       cmp r7, #26
    1418:    fbf1 f1b2       ; <UNDEFINED> instruction: 0xfbf1f1b2
    141c:    b4d8       push {r3, r4, r6, r7}
    141e:    1a5e       subs r6, r3, r1
    1420:    e5a3       b.n 0xf6a
    1422:    fb16 b104  smlabb r1, r6, r4, r11
    1426:    ff72 d7f8  vaba.u<illegal width 64> <illegal reg q14.5>, q9, q12
    142a:    f2f1 29f8       ; <UNDEFINED> instruction: 0xf2f129f8
    142e:    15ef       asrs r7, r5, #23
    1430:    fef7 ea00  cdp2 10, 15, cr14, cr7, cr0, {0}
    1434:    90fb       str r0, [sp, #1004]    ; 0x3ec
    1436:    affe       add r7, sp, #1016    ; 0x3f8
    1438:    f804 080e  strb.w r0, [r4, <undefined>]
    143c:    25f7       movs r5, #247    ; 0xf7
    143e:    1e0f       subs r7, r1, #0
    1440:    9dec       ldr r5, [sp, #944]    ; 0x3b0
    1442:    e5f0       b.n 0x1026
    1444:    a287       add r2, pc, #540    ; (adr r2, 0x1664)
    1446:    4718       bx r3
    1448:    2349       movs r3, #73    ; 0x49
    144a:    8e86       ldrh r6, [r0, #52]    ; 0x34
    144c:    092e       lsrs r6, r5, #4
    144e:    f6b2 86d6  bge.w 0xfff341fe
    1452:    9ee3       ldr r6, [sp, #908]    ; 0x38c
    1454:    5279       strh r1, [r7, r1]
    1456:    6115       str r5, [r2, #16]
    1458:    397e       subs r1, #126    ; 0x7e
    145a:    80f8       strh r0, [r7, #6]
    145c:    bf4f       iteee mi
    145e:    38f4       submi r0, #244    ; 0xf4
    1460:    61cb       strpl r3, [r1, #28]
    1462:    fa07 10e8       ; <UNDEFINED> instruction: 0xfa0710e8
    1466:    d7e0       bvc.n 0x142a    ; unpredictable <IT:pl>
    1468:    48cb       ldr r0, [pc, #812]    ; (0x1798)
    146a:    76e9       strb r1, [r5, #27]
    146c:    7b7f       ldrb r7, [r7, #13]
    146e:    f5c7 2e8f  rsb r14, r7, #292864    ; 0x47800
    1472:    0ff7       lsrs r7, r6, #31
    1474:    b040       add sp, #256    ; 0x100
    1476:    c808       ldmia r0!, {r3}
    1478:    aae5       add r2, sp, #916    ; 0x394
    147a:    e25e       b.n 0x193a
    147c:    2795       movs r7, #149    ; 0x95
    147e:    b4be       push {r1, r2, r3, r4, r5, r7}
    1480:    40b0       lsls r0, r6
    1482:    00fb       lsls r3, r7, #3
    1484:    f0f9 4350       ; <UNDEFINED> instruction: 0xf0f94350
    1488:    fbb0 f0fa  udiv r0, r0, r10
    148c:    fa1f f880  uxth.w r8, r0
    1490:    2000       movs r0, #0
    1492:    eb03 1601  add.w r6, r3, r1, lsl #4
    1496:    eb05 1201  add.w r2, r5, r1, lsl #4
    149a:    eb07 1c01  add.w r12, r7, r1, lsl #4
    149e:    f826 8010  strh.w r8, [r6, r0, lsl #1]
    14a2:    f822 4010  strh.w r4, [r2, r0, lsl #1]
    14a6:    f82c 4010  strh.w r4, [r12, r0, lsl #1]
    14aa:    1c40       adds r0, r0, #1
    14ac:    b2c0       uxtb r0, r0
    14ae:    2808       cmp r0, #8
    14b0:    d3f5       bcc.n 0x149e
    14b2:    1c49       adds r1, r1, #1
    14b4:    b2c9       uxtb r1, r1
    14b6:    2909       cmp r1, #9
    14b8:    d3ea       bcc.n 0x1490
    14ba:    e0be       b.n 0x163a
    14bc:    4e63       ldr r6, [pc, #396]    ; (0x164c)
    14be:    f44f 73fa  mov.w r3, #500    ; 0x1f4
    14c2:    3e3c       subs r6, #60    ; 0x3c
    14c4:    f44f 7796  mov.w r7, #300    ; 0x12c
    14c8:    8033       strh r3, [r6, #0]
    14ca:    8071       strh r1, [r6, #2]
    14cc:    80b7       strh r7, [r6, #4]
    14ce:    f44f 782f  mov.w r8, #700    ; 0x2bc
    14d2:    f8a6 8006  strh.w r8, [r6, #6]
    14d6:    f44f 7c61  mov.w r12, #900    ; 0x384
    14da:    f106 0428  add.w r4, r6, #40    ; 0x28
    14de:    f8a6 c008  strh.w r12, [r6, #8]
    14e2:    2000       movs r0, #0
    14e4:    7020       strb r0, [r4, #0]
    14e6:    7060       strb r0, [r4, #1]
    14e8:    2201       movs r2, #1
    14ea:    70a2       strb r2, [r4, #2]
    14ec:    70e2       strb r2, [r4, #3]
    14ee:    f1a4 0514  sub.w r5, r4, #20
    14f2:    7120       strb r0, [r4, #4]
    14f4:    802b       strh r3, [r5, #0]
    14f6:    f8a5 c002  strh.w r12, [r5, #2]
    14fa:    f8a5 8004  strh.w r8, [r5, #4]
    14fe:    80ef       strh r7, [r5, #6]
    1500:    8129       strh r1, [r5, #8]
    1502:    f104 010a  add.w r1, r4, #10
    1506:    2300       movs r3, #0
    1508:    700a       strb r2, [r1, #0]
    150a:    704a       strb r2, [r1, #1]
    150c:    7088       strb r0, [r1, #2]
    150e:    70c8       strb r0, [r1, #3]
    1510:    710a       strb r2, [r1, #4]
    1512:    494d       ldr r1, [pc, #308]    ; (0x1648)
    1514:    4a4e       ldr r2, [pc, #312]    ; (0x1650)
    1516:    46ce       mov r14, r9
    1518:    4656       mov r6, r10
    151a:    4c4a       ldr r4, [pc, #296]    ; (0x1644)
    151c:    2000       movs r0, #0
    151e:    f8df a12c  ldr.w r10, [r15, #300]    ; 0x164c
    1522:    34ad       adds r4, #173    ; 0xad
    1524:    f1aa 0a3c  sub.w r10, r10, #60    ; 0x3c
    1528:    eb04 09c3  add.w r9, r4, r3, lsl #3
    152c:    f44f 78e1  mov.w r8, #450    ; 0x1c2
    1530:    f819 4000  ldrb.w r4, [r9, r0]
    1534:    1c40       adds r0, r0, #1
    1536:    2808       cmp r0, #8
    1538:    f83a 7014  ldrh.w r7, [r10, r4, lsl #1]
    153c:    ebc7 4c07  rsb r12, r7, r7, lsl #16
    1540:    fbbc fcfe  udiv r12, r12, r14
    1544:    fb0c fc08  mul.w r12, r12, r8
    1548:    fbbc fcf6  udiv r12, r12, r6
    154c:    f821 cb02  strh.w r12, [r1], #2
    1550:    f835 4014  ldrh.w r4, [r5, r4, lsl #1]
    1554:    ebc4 4404  rsb r4, r4, r4, lsl #16
    1558:    fbb4 f4fe  udiv r4, r4, r14
    155c:    fb04 f408  mul.w r4, r4, r8
    1560:    fbb4 f4f6  udiv r4, r4, r6
    1564:    f822 4b02  strh.w r4, [r2], #2
    1568:    d3e0       bcc.n 0x152c
    156a:    1c5b       adds r3, r3, #1
    156c:    2b09       cmp r3, #9
    156e:    d3d4       bcc.n 0x151a
    1570:    2000       movs r0, #0
    1572:    2201       movs r2, #1
    1574:    4933       ldr r1, [pc, #204]    ; (0x1644)
    1576:    e9cb 200a  strd r2, r0, [r11, #40]    ; 0x28
    157a:    3980       subs r1, #128    ; 0x80
    157c:    f881 0038  strb.w r0, [r1, #56]    ; 0x38
    1580:    e05b       b.n 0x163a
    1582:    f8df 80c0  ldr.w r8, [r15, #192]    ; 0x1644
    1586:    2100       movs r1, #0
    1588:    f1a8 0880  sub.w r8, r8, #128    ; 0x80
    158c:    f898 2006  ldrb.w r2, [r8, #6]
    1590:    2000       movs r0, #0
    1592:    f898 6009  ldrb.w r6, [r8, #9]
    1596:    46c4       mov r12, r8
    1598:    b16e       cbz r6, 0x15b6
    159a:    b162       cbz r2, 0x15b6
    159c:    f89c 6009  ldrb.w r6, [r12, #9]
    15a0:    2e01       cmp r6, #1
    15a2:    d00a       beq.n 0x15ba
    15a4:    2a01       cmp r2, #1
    15a6:    d008       beq.n 0x15ba
    15a8:    f89c 6009  ldrb.w r6, [r12, #9]
    15ac:    2e02       cmp r6, #2
    15ae:    d018       beq.n 0x15e2
    15b0:    e028       b.n 0x1604
    15b2:    e03a       b.n 0x162a
    15b4:    e02f       b.n 0x1616
    15b6:    4e27       ldr r6, [pc, #156]    ; (0x1654)
    15b8:    e000       b.n 0x15bc
    15ba:    4e27       ldr r6, [pc, #156]    ; (0x1658)
    15bc:    eb06 1641  add.w r6, r6, r1, lsl #5
    15c0:    f836 6020  ldrh.w r6, [r6, r0, lsl #2]
    15c4:    ebc6 4c06  rsb r12, r6, r6, lsl #16
    15c8:    fbbc f6f9  udiv r6, r12, r9
    15cc:    f44f 7ce1  mov.w r12, #450    ; 0x1c2
    15d0:    fb06 f60c  mul.w r6, r6, r12
    15d4:    fbb6 f6fa  udiv r6, r6, r10
    15d8:    eb03 1c01  add.w r12, r3, r1, lsl #4
    15dc:    f82c 6010  strh.w r6, [r12, r0, lsl #1]
    15e0:    e008       b.n 0x15f4
    15e2:    eb03 1601  add.w r6, r3, r1, lsl #4
    15e6:    f826 4010  strh.w r4, [r6, r0, lsl #1]
    15ea:    4e19       ldr r6, [pc, #100]    ; (0x1650)
    15ec:    eb06 1601  add.w r6, r6, r1, lsl #4
    15f0:    f826 4010  strh.w r4, [r6, r0, lsl #1]
    15f4:    eb05 1601  add.w r6, r5, r1, lsl #4
    15f8:    f826 4010  strh.w r4, [r6, r0, lsl #1]
    15fc:    eb07 1601  add.w r6, r7, r1, lsl #4
    1600:    f826 4010  strh.w r4, [r6, r0, lsl #1]
    1604:    1c40       adds r0, r0, #1
    1606:    b2c0       uxtb r0, r0
    1608:    2808       cmp r0, #8
    160a:    d3c2       bcc.n 0x1592
    160c:    1c49       adds r1, r1, #1
    160e:    b2c9       uxtb r1, r1
    1610:    2909       cmp r1, #9
    1612:    d3bd       bcc.n 0x1590
    1614:    e011       b.n 0x163a
    1616:    4d0b       ldr r5, [pc, #44]    ; (0x1644)
    1618:    e9cb 140a  strd r1, r4, [r11, #40]    ; 0x28
    161c:    3d4f       subs r5, #79    ; 0x4f
    161e:    71ec       strb r4, [r5, #7]
    1620:    f001 f874  bl 0x270c
    1624:    2001       movs r0, #1
    1626:    7028       strb r0, [r5, #0]
    1628:    e007       b.n 0x163a
    162a:    4806       ldr r0, [pc, #24]    ; (0x1644)
    162c:    e9cb 140a  strd r1, r4, [r11, #40]    ; 0x28
    1630:    3880       subs r0, #128    ; 0x80
    1632:    f880 4038  strb.w r4, [r0, #56]    ; 0x38
    1636:    f001 f869  bl 0x270c
    163a:    e8bd 5ff0  ldmia.w r13!, {r4, r5, r6, r7, r8, r9, r10, r11, r12, r14}
    163e:    f004 b99f  b.w 0x5980
    1642:    0000       movs r0, r0
    1644:    00d8       lsls r0, r3, #3
    1646:    2000       movs r0, #0
    1648:    2e2c       cmp r6, #44    ; 0x2c
    164a:    2000       movs r0, #0
    164c:    0b9a       lsrs r2, r3, #14
    164e:    2000       movs r0, #0
    1650:    2ebc       cmp r6, #188    ; 0xbc
    1652:    2000       movs r0, #0
    1654:    091e       lsrs r6, r3, #4
    1656:    2000       movs r0, #0
    1658:    0a3e       lsrs r6, r7, #8
    165a:    2000       movs r0, #0
    165c:    e92d 5ffc  stmdb r13!, {r2, r3, r4, r5, r6, r7, r8, r9, r10, r11, r12, r14}
    1660:    f8df b378  ldr.w r11, [r15, #888]    ; 0x19dc
    1664:    2401       movs r4, #1
    1666:    f10b 011c  add.w r1, r11, #28
    166a:    f89b 2039  ldrb.w r2, [r11, #57]    ; 0x39
    166e:    8e4e       ldrh r6, [r1, #50]    ; 0x32
    1670:    8e8d       ldrh r5, [r1, #52]    ; 0x34
    1672:    1c70       adds r0, r6, #1
    1674:    fa1f fa80  uxth.w r10, r0
    1678:    1e70       subs r0, r6, #1
    167a:    b287       uxth r7, r0
    167c:    1c68       adds r0, r5, #1
    167e:    b280       uxth r0, r0
    1680:    9000       str r0, [sp, #0]
    1682:    1e68       subs r0, r5, #1
    1684:    b280       uxth r0, r0
    1686:    9001       str r0, [sp, #4]
    1688:    7f88       ldrb r0, [r1, #30]
    168a:    f811 3c15  ldrb.w r3, [r1, #-21]
    168e:    1e92       subs r2, r2, #2
    1690:    2100       movs r1, #0
    1692:    f8df 934c  ldr.w r9, [r15, #844]    ; 0x19e0
    1696:    f44f 787a  mov.w r8, #1000    ; 0x3e8
    169a:    f64f 7eff  movw r14, #65535    ; 0xffff
    169e:    2a0a       cmp r2, #10
    16a0:    d25e       bcs.n 0x1760
    16a2:    e8df f002  tbb [r15, r2]
    16a6:    5ec6       ldrsh r6, [r0, r3]
    16a8:    fe5d 5dfd  mrc2 13, 2, r5, cr13, cr13, {7}
    16ac:    5d5d       ldrb r5, [r3, r5]
    16ae:    fc05 465a  stc2 6, cr4, [r5], {90}    ; 0x5a
    16b2:    b113       cbz r3, 0x16ba
    16b4:    2b01       cmp r3, #1
    16b6:    d009       beq.n 0x16cc
    16b8:    e012       b.n 0x16e0
    16ba:    b108       cbz r0, 0x16c0
    16bc:    2802       cmp r0, #2
    16be:    d10f       bne.n 0x16e0
    16c0:    f8a2 a04e  strh.w r10, [r2, #78]    ; 0x4e
    16c4:    45c2       cmp r10, r8
    16c6:    d30b       bcc.n 0x16e0
    16c8:    71d4       strb r4, [r2, #7]
    16ca:    e009       b.n 0x16e0
    16cc:    b108       cbz r0, 0x16d2
    16ce:    2802       cmp r0, #2
    16d0:    d106       bne.n 0x16e0
    16d2:    f8a2 704e  strh.w r7, [r2, #78]    ; 0x4e
    16d6:    b91f       cbnz r7, 0x16e0
    16d8:    71d1       strb r1, [r2, #7]
    16da:    b908       cbnz r0, 0x16e0
    16dc:    f882 403a  strb.w r4, [r2, #58]    ; 0x3a
    16e0:    7a10       ldrb r0, [r2, #8]
    16e2:    b110       cbz r0, 0x16ea
    16e4:    2801       cmp r0, #1
    16e6:    d00d       beq.n 0x1704
    16e8:    e01f       b.n 0x172a
    16ea:    f892 003a  ldrb.w r0, [r2, #58]    ; 0x3a
    16ee:    2801       cmp r0, #1
    16f0:    d001       beq.n 0x16f6
    16f2:    2802       cmp r0, #2
    16f4:    d119       bne.n 0x172a
    16f6:    9800       ldr r0, [sp, #0]
    16f8:    f8a2 0050  strh.w r0, [r2, #80]    ; 0x50
    16fc:    4540       cmp r0, r8
    16fe:    d314       bcc.n 0x172a
    1700:    7214       strb r4, [r2, #8]
    1702:    e012       b.n 0x172a
    1704:    f892 003a  ldrb.w r0, [r2, #58]    ; 0x3a
    1708:    2801       cmp r0, #1
    170a:    d001       beq.n 0x1710
    170c:    2802       cmp r0, #2
    170e:    d10c       bne.n 0x172a
    1710:    9b01       ldr r3, [sp, #4]
    1712:    f8a2 3050  strh.w r3, [r2, #80]    ; 0x50
    1716:    b943       cbnz r3, 0x172a
    1718:    7211       strb r1, [r2, #8]
    171a:    1c40       adds r0, r0, #1
    171c:    2103       movs r1, #3
    171e:    fbb0 f3f1  udiv r3, r0, r1
    1722:    fb01 0013  mls r0, r1, r3, r0
    1726:    f882 003a  strb.w r0, [r2, #58]    ; 0x3a
    172a:    f8bb 004e  ldrh.w r0, [r11, #78]    ; 0x4e
    172e:    2100       movs r1, #0
    1730:    ebc0 4000  rsb r0, r0, r0, lsl #16
    1734:    fbb0 f0f8  udiv r0, r0, r8
    1738:    f44f 72e1  mov.w r2, #450    ; 0x1c2
    173c:    4350       muls r0, r2
    173e:    fbb0 f0fe  udiv r0, r0, r14
    1742:    b282       uxth r2, r0
    1744:    464c       mov r4, r9
    1746:    2000       movs r0, #0
    1748:    eb04 1301  add.w r3, r4, r1, lsl #4
    174c:    f823 2010  strh.w r2, [r3, r0, lsl #1]
    1750:    1c40       adds r0, r0, #1
    1752:    b2c0       uxtb r0, r0
    1754:    2808       cmp r0, #8
    1756:    d3f9       bcc.n 0x174c
    1758:    1c49       adds r1, r1, #1
    175a:    b2c9       uxtb r1, r1
    175c:    2909       cmp r1, #9
    175e:    d3f2       bcc.n 0x1746
    1760:    e124       b.n 0x19ac
    1762:    465a       mov r2, r11
    1764:    f04f 0c02  mov.w r12, #2
    1768:    f44f 7bfa  mov.w r11, #500    ; 0x1f4
    176c:    2806       cmp r0, #6
    176e:    d222       bcs.n 0x17b6
    1770:    e8df f000  tbb [r15, r0]
    1774:    0903       lsrs r3, r0, #4
    1776:    0f21       lsrs r1, r4, #28
    1778:    1f18       subs r0, r3, #4
    177a:    71d1       strb r1, [r2, #7]
    177c:    f882 c008  strb.w r12, [r2, #8]
    1780:    f882 403a  strb.w r4, [r2, #58]    ; 0x3a
    1784:    e01e       b.n 0x17c4
    1786:    455e       cmp r6, r11
    1788:    d115       bne.n 0x17b6
    178a:    7211       strb r1, [r2, #8]
    178c:    f882 c03a  strb.w r12, [r2, #58]    ; 0x3a
    1790:    e011       b.n 0x17b6
    1792:    2d01       cmp r5, #1
    1794:    d10f       bne.n 0x17b6
    1796:    f882 c007  strb.w r12, [r2, #7]
    179a:    7211       strb r1, [r2, #8]
    179c:    2004       movs r0, #4
    179e:    f882 003a  strb.w r0, [r2, #58]    ; 0x3a
    17a2:    e01e       b.n 0x17e2
    17a4:    455d       cmp r5, r11
    17a6:    d106       bne.n 0x17b6
    17a8:    71d1       strb r1, [r2, #7]
    17aa:    2005       movs r0, #5
    17ac:    f882 003a  strb.w r0, [r2, #58]    ; 0x3a
    17b0:    e008       b.n 0x17c4
    17b2:    2e01       cmp r6, #1
    17b4:    d003       beq.n 0x17be
    17b6:    b12b       cbz r3, 0x17c4
    17b8:    2b01       cmp r3, #1
    17ba:    d009       beq.n 0x17d0
    17bc:    e00c       b.n 0x17d8
    17be:    71d1       strb r1, [r2, #7]
    17c0:    f882 103a  strb.w r1, [r2, #58]    ; 0x3a
    17c4:    f8a2 a04e  strh.w r10, [r2, #78]    ; 0x4e
    17c8:    45c2       cmp r10, r8
    17ca:    d305       bcc.n 0x17d8
    17cc:    71d4       strb r4, [r2, #7]
    17ce:    e003       b.n 0x17d8
    17d0:    f8a2 704e  strh.w r7, [r2, #78]    ; 0x4e
    17d4:    b907       cbnz r7, 0x17d8
    17d6:    71d1       strb r1, [r2, #7]
    17d8:    7a10       ldrb r0, [r2, #8]
    17da:    b110       cbz r0, 0x17e2
    17dc:    2801       cmp r0, #1
    17de:    d007       beq.n 0x17f0
    17e0:    e00b       b.n 0x17fa
    17e2:    9800       ldr r0, [sp, #0]
    17e4:    f8a2 0050  strh.w r0, [r2, #80]    ; 0x50
    17e8:    4540       cmp r0, r8
    17ea:    d306       bcc.n 0x17fa
    17ec:    7214       strb r4, [r2, #8]
    17ee:    e004       b.n 0x17fa
    17f0:    9801       ldr r0, [sp, #4]
    17f2:    f8a2 0050  strh.w r0, [r2, #80]    ; 0x50
    17f6:    b900       cbnz r0, 0x17fa
    17f8:    7211       strb r1, [r2, #8]
    17fa:    f8b2 004e  ldrh.w r0, [r2, #78]    ; 0x4e
    17fe:    2100       movs r1, #0
    1800:    ebc0 4000  rsb r0, r0, r0, lsl #16
    1804:    fbb0 f0f8  udiv r0, r0, r8
    1808:    f44f 72e1  mov.w r2, #450    ; 0x1c2
    180c:    4350       muls r0, r2
    180e:    fbb0 f0fe  udiv r0, r0, r14
    1812:    b282       uxth r2, r0
    1814:    464c       mov r4, r9
    1816:    2000       movs r0, #0
    1818:    eb04 1301  add.w r3, r4, r1, lsl #4
    181c:    f823 2010  strh.w r2, [r3, r0, lsl #1]
    1820:    1c40       adds r0, r0, #1
    1822:    b2c0       uxtb r0, r0
    1824:    2808       cmp r0, #8
    1826:    d3f9       bcc.n 0x181c
    1828:    1c49       adds r1, r1, #1
    182a:    b2c9       uxtb r1, r1
    182c:    2909       cmp r1, #9
    182e:    d3f2       bcc.n 0x1816
    1830:    e0bc       b.n 0x19ac
    1832:    2100       movs r1, #0
    1834:    486b       ldr r0, [pc, #428]    ; (0x19e4)
    1836:    4a6c       ldr r2, [pc, #432]    ; (0x19e8)
    1838:    4408       add r0, r1
    183a:    2301       movs r3, #1
    183c:    f890 a014  ldrb.w r10, [r0, #20]
    1840:    2000       movs r0, #0
    1842:    eb02 1401  add.w r4, r2, r1, lsl #4
    1846:    3290       adds r2, #144    ; 0x90
    1848:    eb02 1501  add.w r5, r2, r1, lsl #4
    184c:    ea1a 0f03  tst.w r10, r3
    1850:    d033       beq.n 0x18ba
    1852:    f934 2010  ldrsh.w r2, [r4, r0, lsl #1]
    1856:    f935 c010  ldrsh.w r12, [r5, r0, lsl #1]
    185a:    2a00       cmp r2, #0
    185c:    dd13       ble.n 0x1886
    185e:    1e52       subs r2, r2, #1
    1860:    b212       sxth r2, r2
    1862:    2a00       cmp r2, #0
    1864:    da00       bge.n 0x1868
    1866:    2200       movs r2, #0
    1868:    ebc2 4602  rsb r6, r2, r2, lsl #16
    186c:    fbb6 f6f8  udiv r6, r6, r8
    1870:    f44f 77e1  mov.w r7, #450    ; 0x1c2
    1874:    437e       muls r6, r7
    1876:    fbb6 f6fe  udiv r6, r6, r14
    187a:    eb09 1701  add.w r7, r9, r1, lsl #4
    187e:    f827 6010  strh.w r6, [r7, r0, lsl #1]
    1882:    f824 2010  strh.w r2, [r4, r0, lsl #1]
    1886:    f1bc 0f00  cmp.w r12, #0
    188a:    dd07       ble.n 0x189c
    188c:    f1ac 0201  sub.w r2, r12, #1
    1890:    b212       sxth r2, r2
    1892:    2a00       cmp r2, #0
    1894:    da00       bge.n 0x1898
    1896:    2200       movs r2, #0
    1898:    f825 2010  strh.w r2, [r5, r0, lsl #1]
    189c:    e002       b.n 0x18a4
    189e:    e017       b.n 0x18d0
    18a0:    e06d       b.n 0x197e
    18a2:    e03b       b.n 0x191c
    18a4:    065a       lsls r2, r3, #25
    18a6:    1c40       adds r0, r0, #1
    18a8:    0e13       lsrs r3, r2, #24
    18aa:    b2c0       uxtb r0, r0
    18ac:    2808       cmp r0, #8
    18ae:    d3cd       bcc.n 0x184c
    18b0:    1c49       adds r1, r1, #1
    18b2:    b2c9       uxtb r1, r1
    18b4:    2909       cmp r1, #9
    18b6:    d3bd       bcc.n 0x1834
    18b8:    e078       b.n 0x19ac
    18ba:    eb09 1601  add.w r6, r9, r1, lsl #4
    18be:    f44f 72e1  mov.w r2, #450    ; 0x1c2
    18c2:    f826 2010  strh.w r2, [r6, r0, lsl #1]
    18c6:    f824 8010  strh.w r8, [r4, r0, lsl #1]
    18ca:    f8bb 204a  ldrh.w r2, [r11, #74]    ; 0x4a
    18ce:    e7e3       b.n 0x1898
    18d0:    2500       movs r5, #0
    18d2:    4677       mov r7, r14
    18d4:    f240 3be9  movw r11, #1001    ; 0x3e9
    18d8:    46ca       mov r10, r9
    18da:    2400       movs r4, #0
    18dc:    46d9       mov r9, r11
    18de:    eb0a 1605  add.w r6, r10, r5, lsl #4
    18e2:    f7fe fc57  bl 0x194
    18e6:    fb90 f2f9  sdiv r2, r0, r9
    18ea:    fb09 0012  mls r0, r9, r2, r0
    18ee:    b280       uxth r0, r0
    18f0:    ebc0 4000  rsb r0, r0, r0, lsl #16
    18f4:    fbb0 f0f8  udiv r0, r0, r8
    18f8:    f44f 71e1  mov.w r1, #450    ; 0x1c2
    18fc:    4348       muls r0, r1
    18fe:    fbb0 f0f7  udiv r0, r0, r7
    1902:    f826 0014  strh.w r0, [r6, r4, lsl #1]
    1906:    f7fe fc45  bl 0x194
    190a:    1c64       adds r4, r4, #1
    190c:    b2e4       uxtb r4, r4
    190e:    2c08       cmp r4, #8
    1910:    d3e7       bcc.n 0x18e2
    1912:    1c6d       adds r5, r5, #1
    1914:    b2ed       uxtb r5, r5
    1916:    2d09       cmp r5, #9
    1918:    d3df       bcc.n 0x18da
    191a:    e047       b.n 0x19ac
    191c:    f000 fef6  bl 0x270c
    1920:    f8df a0c8  ldr.w r10, [r15, #200]    ; 0x19ec
    1924:    f89b 2031  ldrb.w r2, [r11, #49]    ; 0x31
    1928:    2100       movs r1, #0
    192a:    46d8       mov r8, r11
    192c:    f44f 73e1  mov.w r3, #450    ; 0x1c2
    1930:    46cc       mov r12, r9
    1932:    2000       movs r0, #0
    1934:    eb0a 06c1  add.w r6, r10, r1, lsl #3
    1938:    eb0c 1501  add.w r5, r12, r1, lsl #4
    193c:    5c37       ldrb r7, [r6, r0]
    193e:    4297       cmp r7, r2
    1940:    d101       bne.n 0x1946
    1942:    f825 3010  strh.w r3, [r5, r0, lsl #1]
    1946:    1c40       adds r0, r0, #1
    1948:    b2c0       uxtb r0, r0
    194a:    2808       cmp r0, #8
    194c:    d3f6       bcc.n 0x193c
    194e:    1c49       adds r1, r1, #1
    1950:    b2c9       uxtb r1, r1
    1952:    2909       cmp r1, #9
    1954:    d3ed       bcc.n 0x1932
    1956:    4826       ldr r0, [pc, #152]    ; (0x19f0)
    1958:    2a3a       cmp r2, #58    ; 0x3a
    195a:    d002       beq.n 0x1962
    195c:    2a3d       cmp r2, #61    ; 0x3d
    195e:    d003       beq.n 0x1968
    1960:    e004       b.n 0x196c
    1962:    f8a0 3072  strh.w r3, [r0, #114]    ; 0x72
    1966:    e001       b.n 0x196c
    1968:    f8a0 3084  strh.w r3, [r0, #132]    ; 0x84
    196c:    1c52       adds r2, r2, #1
    196e:    b2d0       uxtb r0, r2
    1970:    f888 0031  strb.w r0, [r8, #49]    ; 0x31
    1974:    2841       cmp r0, #65    ; 0x41
    1976:    d919       bls.n 0x19ac
    1978:    f88b 4031  strb.w r4, [r11, #49]    ; 0x31
    197c:    e016       b.n 0x19ac
    197e:    f89b 201d  ldrb.w r2, [r11, #29]
    1982:    4658       mov r0, r11
    1984:    2a01       cmp r2, #1
    1986:    d015       beq.n 0x19b4
    1988:    f8a9 1002  strh.w r1, [r9, #2]
    198c:    7f82       ldrb r2, [r0, #30]
    198e:    2a01       cmp r2, #1
    1990:    d015       beq.n 0x19be
    1992:    f8a9 1004  strh.w r1, [r9, #4]
    1996:    7fc2       ldrb r2, [r0, #31]
    1998:    2a01       cmp r2, #1
    199a:    d015       beq.n 0x19c8
    199c:    f8a9 1006  strh.w r1, [r9, #6]
    19a0:    f89b 0020  ldrb.w r0, [r11, #32]
    19a4:    2801       cmp r0, #1
    19a6:    d014       beq.n 0x19d2
    19a8:    f8a9 1008  strh.w r1, [r9, #8]
    19ac:    e8bd 5ffc  ldmia.w r13!, {r2, r3, r4, r5, r6, r7, r8, r9, r10, r11, r12, r14}
    19b0:    f003 bfe6  b.w 0x5980
    19b4:    f44f 72e1  mov.w r2, #450    ; 0x1c2
    19b8:    f8a9 2002  strh.w r2, [r9, #2]
    19bc:    e7e6       b.n 0x198c
    19be:    f44f 73e1  mov.w r3, #450    ; 0x1c2
    19c2:    f8a9 3004  strh.w r3, [r9, #4]
    19c6:    e7e6       b.n 0x1996
    19c8:    f44f 72e1  mov.w r2, #450    ; 0x1c2
    19cc:    f8a9 2006  strh.w r2, [r9, #6]
    19d0:    e7e6       b.n 0x19a0
    19d2:    f44f 70e1  mov.w r0, #450    ; 0x1c2
    19d6:    f8a9 0008  strh.w r0, [r9, #8]
    19da:    e7e7       b.n 0x19ac
    19dc:    0058       lsls r0, r3, #1
    19de:    2000       movs r0, #0
    19e0:    2e2c       cmp r6, #44    ; 0x2c
    19e2:    2000       movs r0, #0
    19e4:    2de4       cmp r5, #228    ; 0xe4
    19e6:    2000       movs r0, #0
    19e8:    0b9a       lsrs r2, r3, #14
    19ea:    2000       movs r0, #0
    19ec:    8e80       ldrh r0, [r0, #52]    ; 0x34
    19ee:    0000       movs r0, r0
    19f0:    2ebc       cmp r6, #188    ; 0xbc
    19f2:    2000       movs r0, #0
    19f4:    b510       push {r4, r14}
    19f6:    4907       ldr r1, [pc, #28]    ; (0x1a14)
    19f8:    b128       cbz r0, 0x1a06
    19fa:    2001       movs r0, #1
    19fc:    7148       strb r0, [r1, #5]
    19fe:    f003 ffbf  bl 0x5980
    1a02:    2001       movs r0, #1
    1a04:    bd10       pop {r4, r15}
    1a06:    2000       movs r0, #0
    1a08:    7148       strb r0, [r1, #5]
    1a0a:    f003 ffb9  bl 0x5980
    1a0e:    2000       movs r0, #0
    1a10:    bd10       pop {r4, r15}
    1a12:    0000       movs r0, r0
    1a14:    0058       lsls r0, r3, #1
    1a16:    2000       movs r0, #0
    1a18:    4770       bx r14
    1a1a:    4770       bx r14

function_8:
  0x1a1c:    e92d 41f0  stmdb r13!, {r4, r5, r6, r7, r8, r14}
    1a20:    4604       mov r4, r0
    1a22:    f7ff f8db  bl 0xbdc
    1a26:    4620       mov r0, r4
    1a28:    f000 fe6e  bl 0x2708
    1a2c:    4620       mov r0, r4
    1a2e:    f001 fe8f  bl 0x3750
    1a32:    f44f 7180  mov.w r1, #256    ; 0x100
    1a36:    4821       ldr r0, [pc, #132]    ; (0x1abc)
    1a38:    010d       lsls r5, r1, #4
    1a3a:    4e21       ldr r6, [pc, #132]    ; (0x1ac0)
    1a3c:    014f       lsls r7, r1, #5
    1a3e:    b324       cbz r4, 0x1a8a
    1a40:    2200       movs r2, #0
    1a42:    4688       mov r8, r1
    1a44:    4604       mov r4, r0
    1a46:    f7fe ff81  bl 0x94c
    1a4a:    2201       movs r2, #1
    1a4c:    4641       mov r1, r8
    1a4e:    4620       mov r0, r4
    1a50:    f7fe ff6c  bl 0x92c
    1a54:    2201       movs r2, #1
    1a56:    4641       mov r1, r8
    1a58:    4620       mov r0, r4
    1a5a:    f7fe ff5f  bl 0x91c
    1a5e:    2201       movs r2, #1
    1a60:    4641       mov r1, r8
    1a62:    4620       mov r0, r4
    1a64:    f7fe ff90  bl 0x988
    1a68:    2200       movs r2, #0
    1a6a:    4629       mov r1, r5
    1a6c:    4630       mov r0, r6
    1a6e:    f7fe ff65  bl 0x93c
    1a72:    2200       movs r2, #0
    1a74:    4639       mov r1, r7
    1a76:    4630       mov r0, r6
    1a78:    f7fe ff60  bl 0x93c
    1a7c:    2202       movs r2, #2
    1a7e:    4629       mov r1, r5
    1a80:    4630       mov r0, r6
    1a82:    f7fe ff6b  bl 0x95c
    1a86:    2202       movs r2, #2
    1a88:    e012       b.n 0x1ab0
    1a8a:    2201       movs r2, #1
    1a8c:    f7fe ff5e  bl 0x94c
    1a90:    2201       movs r2, #1
    1a92:    4629       mov r1, r5
    1a94:    4630       mov r0, r6
    1a96:    f7fe ff51  bl 0x93c
    1a9a:    2201       movs r2, #1
    1a9c:    4639       mov r1, r7
    1a9e:    4630       mov r0, r6
    1aa0:    f7fe ff4c  bl 0x93c
    1aa4:    2200       movs r2, #0
    1aa6:    4629       mov r1, r5
    1aa8:    4630       mov r0, r6
    1aaa:    f7fe ff57  bl 0x95c
    1aae:    2200       movs r2, #0
    1ab0:    4639       mov r1, r7
    1ab2:    4630       mov r0, r6
    1ab4:    e8bd 41f0  ldmia.w r13!, {r4, r5, r6, r7, r8, r14}
    1ab8:    f7fe bf50  b.w 0x95c
    1abc:    4000       ands r0, r0
    1abe:    400b       ands r3, r1
    1ac0:    0000       movs r0, r0
    1ac2:    400b       ands r3, r1
    1ac4:    b570       push {r4, r5, r6, r14}
    1ac6:    4c33       ldr r4, [pc, #204]    ; (0x1b94)
    1ac8:    2500       movs r5, #0
    1aca:    f894 0030  ldrb.w r0, [r4, #48]    ; 0x30
    1ace:    b1d8       cbz r0, 0x1b08
    1ad0:    f894 0038  ldrb.w r0, [r4, #56]    ; 0x38
    1ad4:    b118       cbz r0, 0x1ade
    1ad6:    f7ff fdc1  bl 0x165c
    1ada:    f884 5038  strb.w r5, [r4, #56]    ; 0x38
    1ade:    482d       ldr r0, [pc, #180]    ; (0x1b94)
    1ae0:    3080       adds r0, #128    ; 0x80
    1ae2:    6881       ldr r1, [r0, #8]
    1ae4:    f241 7270  movw r2, #6000    ; 0x1770
    1ae8:    4291       cmp r1, r2
    1aea:    d909       bls.n 0x1b00
    1aec:    f894 1030  ldrb.w r1, [r4, #48]    ; 0x30
    1af0:    2901       cmp r1, #1
    1af2:    d105       bne.n 0x1b00
    1af4:    2102       movs r1, #2
    1af6:    f884 1030  strb.w r1, [r4, #48]    ; 0x30
    1afa:    6085       str r5, [r0, #8]
    1afc:    f004 f87e  bl 0x5bfc
    1b00:    e8bd 4070  ldmia.w r13!, {r4, r5, r6, r14}
    1b04:    f001 bc08  b.w 0x3318
    1b08:    7aa0       ldrb r0, [r4, #10]
    1b0a:    2863       cmp r0, #99    ; 0x63
    1b0c:    d001       beq.n 0x1b12
    1b0e:    f000 f923  bl 0x1d58
    1b12:    7aa0       ldrb r0, [r4, #10]
    1b14:    2863       cmp r0, #99    ; 0x63
    1b16:    d10b       bne.n 0x1b30
    1b18:    7c60       ldrb r0, [r4, #17]
    1b1a:    2863       cmp r0, #99    ; 0x63
    1b1c:    d108       bne.n 0x1b30
    1b1e:    7b20       ldrb r0, [r4, #12]
    1b20:    b940       cbnz r0, 0x1b34
    1b22:    7da0       ldrb r0, [r4, #22]
    1b24:    b950       cbnz r0, 0x1b3c
    1b26:    f894 0029  ldrb.w r0, [r4, #41]    ; 0x29
    1b2a:    b938       cbnz r0, 0x1b3c
    1b2c:    f001 fbf4  bl 0x3318
    1b30:    7b20       ldrb r0, [r4, #12]
    1b32:    b118       cbz r0, 0x1b3c
    1b34:    7da0       ldrb r0, [r4, #22]
    1b36:    b908       cbnz r0, 0x1b3c
    1b38:    f003 fcb4  bl 0x54a4
    1b3c:    f003 f94a  bl 0x4dd4
    1b40:    7da0       ldrb r0, [r4, #22]
    1b42:    2801       cmp r0, #1
    1b44:    d101       bne.n 0x1b4a
    1b46:    f000 fe4d  bl 0x27e4
    1b4a:    7ee0       ldrb r0, [r4, #27]
    1b4c:    2801       cmp r0, #1
    1b4e:    d002       beq.n 0x1b56
    1b50:    7f20       ldrb r0, [r4, #28]
    1b52:    2803       cmp r0, #3
    1b54:    d101       bne.n 0x1b5a
    1b56:    f003 f8df  bl 0x4d18
    1b5a:    f894 0020  ldrb.w r0, [r4, #32]
    1b5e:    2801       cmp r0, #1
    1b60:    d104       bne.n 0x1b6c
    1b62:    7e20       ldrb r0, [r4, #24]
    1b64:    b110       cbz r0, 0x1b6c
    1b66:    f003 fe29  bl 0x57bc
    1b6a:    e009       b.n 0x1b80
    1b6c:    f894 0029  ldrb.w r0, [r4, #41]    ; 0x29
    1b70:    2814       cmp r0, #20
    1b72:    d105       bne.n 0x1b80
    1b74:    f884 5029  strb.w r5, [r4, #41]    ; 0x29
    1b78:    f894 0039  ldrb.w r0, [r4, #57]    ; 0x39
    1b7c:    f7ff fc08  bl 0x1390
    1b80:    f894 0038  ldrb.w r0, [r4, #56]    ; 0x38
    1b84:    2800       cmp r0, #0
    1b86:    d003       beq.n 0x1b90
    1b88:    f7ff fd68  bl 0x165c
    1b8c:    f884 5038  strb.w r5, [r4, #56]    ; 0x38
    1b90:    bd70       pop {r4, r5, r6, r15}
    1b92:    0000       movs r0, r0
    1b94:    0058       lsls r0, r3, #1
    1b96:    2000       movs r0, #0
    1b98:    4907       ldr r1, [pc, #28]    ; (0x1bb8)
    1b9a:    f64e 0278  movw r2, #59512    ; 0xe878
    1b9e:    b130       cbz r0, 0x1bae
    1ba0:    6d48       ldr r0, [r1, #84]    ; 0x54
    1ba2:    4310       orrs r0, r2
    1ba4:    6548       str r0, [r1, #84]    ; 0x54
    1ba6:    658a       str r2, [r1, #88]    ; 0x58
    1ba8:    6d08       ldr r0, [r1, #80]    ; 0x50
    1baa:    4310       orrs r0, r2
    1bac:    e001       b.n 0x1bb2
    1bae:    6d08       ldr r0, [r1, #80]    ; 0x50
    1bb0:    4390       bics r0, r2
    1bb2:    6508       str r0, [r1, #80]    ; 0x50
    1bb4:    4770       bx r14
    1bb6:    0000       movs r0, r0
    1bb8:    4000       ands r0, r0
    1bba:    4002       ands r2, r0
    1bbc:    b510       push {r4, r14}
    1bbe:    210e       movs r1, #14
    1bc0:    2301       movs r3, #1
    1bc2:    4a15       ldr r2, [pc, #84]    ; (0x1c18)
    1bc4:    ebb1 1f10  cmp.w r1, r0, lsr #4
    1bc8:    d108       bne.n 0x1bdc
    1bca:    f000 000f  and.w r0, r0, #15
    1bce:    2808       cmp r0, #8
    1bd0:    d203       bcs.n 0x1bda
    1bd2:    7811       ldrb r1, [r2, #0]
    1bd4:    4083       lsls r3, r0
    1bd6:    4399       bics r1, r3
    1bd8:    7011       strb r1, [r2, #0]
    1bda:    bd10       pop {r4, r15}
    1bdc:    2891       cmp r0, #145    ; 0x91
    1bde:    d8fc       bhi.n 0x1bda
    1be0:    2100       movs r1, #0
    1be2:    1854       adds r4, r2, r1
    1be4:    78a4       ldrb r4, [r4, #2]
    1be6:    4284       cmp r4, r0
    1be8:    d103       bne.n 0x1bf2
    1bea:    440a       add r2, r1
    1bec:    2400       movs r4, #0
    1bee:    7094       strb r4, [r2, #2]
    1bf0:    e003       b.n 0x1bfa
    1bf2:    1c49       adds r1, r1, #1
    1bf4:    b2c9       uxtb r1, r1
    1bf6:    2906       cmp r1, #6
    1bf8:    d3f3       bcc.n 0x1be2
    1bfa:    2906       cmp r1, #6
    1bfc:    d1ed       bne.n 0x1bda
    1bfe:    08c2       lsrs r2, r0, #3
    1c00:    f000 0107  and.w r1, r0, #7
    1c04:    4805       ldr r0, [pc, #20]    ; (0x1c1c)
    1c06:    461c       mov r4, r3
    1c08:    4410       add r0, r2
    1c0a:    408b       lsls r3, r1
    1c0c:    7882       ldrb r2, [r0, #2]
    1c0e:    439a       bics r2, r3
    1c10:    7082       strb r2, [r0, #2]
    1c12:    4803       ldr r0, [pc, #12]    ; (0x1c20)
    1c14:    6144       str r4, [r0, #20]
    1c16:    bd10       pop {r4, r15}
    1c18:    003c       movs r4, r7
    1c1a:    2000       movs r0, #0
    1c1c:    032c       lsls r4, r5, #12
    1c1e:    2000       movs r0, #0
    1c20:    00d8       lsls r0, r3, #3
    1c22:    2000       movs r0, #0
    1c24:    b510       push {r4, r14}
    1c26:    2101       movs r1, #1
    1c28:    0408       lsls r0, r1, #16
    1c2a:    f7fe fe13  bl 0x854
    1c2e:    4c0a       ldr r4, [pc, #40]    ; (0x1c58)
    1c30:    f648 419f  movw r1, #35999    ; 0x8c9f
    1c34:    4620       mov r0, r4
    1c36:    f7fe fd30  bl 0x69a
    1c3a:    2101       movs r1, #1
    1c3c:    4620       mov r0, r4
    1c3e:    f7fe fd22  bl 0x686
    1c42:    4a06       ldr r2, [pc, #24]    ; (0x1c5c)
    1c44:    1561       asrs r1, r4, #21
    1c46:    6011       str r1, [r2, #0]
    1c48:    4620       mov r0, r4
    1c4a:    e8bd 4010  ldmia.w r13!, {r4, r14}
    1c4e:    f04f 0101  mov.w r1, #1
    1c52:    f7fe bd0e  b.w 0x672
    1c56:    0000       movs r0, r0
    1c58:    6000       str r0, [r0, #0]
    1c5a:    4007       ands r7, r0
    1c5c:    e104       b.n 0x1e68
    1c5e:    e000       b.n 0x1c62
    1c60:    e92d 41f0  stmdb r13!, {r4, r5, r6, r7, r8, r14}
    1c64:    4d39       ldr r5, [pc, #228]    ; (0x1d4c)
    1c66:    4e38       ldr r6, [pc, #224]    ; (0x1d48)
    1c68:    4c39       ldr r4, [pc, #228]    ; (0x1d50)
    1c6a:    f815 1c08  ldrb.w r1, [r5, #-8]
    1c6e:    f856 2021  ldr.w r2, [r6, r1, lsl #2]
    1c72:    f1a6 019c  sub.w r1, r6, #156    ; 0x9c
    1c76:    f851 0020  ldr.w r0, [r1, r0, lsl #2]
    1c7a:    1811       adds r1, r2, r0
    1c7c:    1910       adds r0, r2, r4
    1c7e:    f44f 727c  mov.w r2, #1008    ; 0x3f0
    1c82:    f000 fba1  bl 0x23c8                   ; call function_13
    1c86:    f815 0c08  ldrb.w r0, [r5, #-8]
    1c8a:    f8df c0c8  ldr.w r12, [r15, #200]    ; 0x1d54
    1c8e:    f856 0020  ldr.w r0, [r6, r0, lsl #2]
    1c92:    f50c 7e90  add.w r14, r12, #288    ; 0x120
    1c96:    5c21       ldrb r1, [r4, r0]
    1c98:    7669       strb r1, [r5, #25]
    1c9a:    1c61       adds r1, r4, #1
    1c9c:    5c42       ldrb r2, [r0, r1]
    1c9e:    1c49       adds r1, r1, #1
    1ca0:    5c41       ldrb r1, [r0, r1]
    1ca2:    eb02 2101  add.w r1, r2, r1, lsl #8
    1ca6:    84e9       strh r1, [r5, #38]    ; 0x26
    1ca8:    1ce1       adds r1, r4, #3
    1caa:    5c42       ldrb r2, [r0, r1]
    1cac:    1c49       adds r1, r1, #1
    1cae:    5c41       ldrb r1, [r0, r1]
    1cb0:    eb02 2101  add.w r1, r2, r1, lsl #8
    1cb4:    8529       strh r1, [r5, #40]    ; 0x28
    1cb6:    1d61       adds r1, r4, #5
    1cb8:    5c42       ldrb r2, [r0, r1]
    1cba:    1c49       adds r1, r1, #1
    1cbc:    5c41       ldrb r1, [r0, r1]
    1cbe:    eb02 2101  add.w r1, r2, r1, lsl #8
    1cc2:    8569       strh r1, [r5, #42]    ; 0x2a
    1cc4:    1de1       adds r1, r4, #7
    1cc6:    5c42       ldrb r2, [r0, r1]
    1cc8:    1c49       adds r1, r1, #1
    1cca:    5c41       ldrb r1, [r0, r1]
    1ccc:    eb02 2101  add.w r1, r2, r1, lsl #8
    1cd0:    85a9       strh r1, [r5, #44]    ; 0x2c
    1cd2:    f104 0109  add.w r1, r4, #9
    1cd6:    2200       movs r2, #0
    1cd8:    5c41       ldrb r1, [r0, r1]
    1cda:    f805 1c1a  strb.w r1, [r5, #-26]
    1cde:    f104 010a  add.w r1, r4, #10
    1ce2:    1903       adds r3, r0, r4
    1ce4:    5c41       ldrb r1, [r0, r1]
    1ce6:    7769       strb r1, [r5, #29]
    1ce8:    f104 010b  add.w r1, r4, #11
    1cec:    5c41       ldrb r1, [r0, r1]
    1cee:    77a9       strb r1, [r5, #30]
    1cf0:    2000       movs r0, #0
    1cf2:    eb0e 1442  add.w r4, r14, r2, lsl #5
    1cf6:    eb0c 1542  add.w r5, r12, r2, lsl #5
    1cfa:    eb00 01c2  add.w r1, r0, r2, lsl #3
    1cfe:    0089       lsls r1, r1, #2
    1d00:    f101 060c  add.w r6, r1, #12
    1d04:    441e       add r6, r3
    1d06:    eb05 0780  add.w r7, r5, r0, lsl #2
    1d0a:    8836       ldrh r6, [r6, #0]
    1d0c:    f825 6020  strh.w r6, [r5, r0, lsl #2]
    1d10:    f101 060e  add.w r6, r1, #14
    1d14:    441e       add r6, r3
    1d16:    8836       ldrh r6, [r6, #0]
    1d18:    807e       strh r6, [r7, #2]
    1d1a:    f201 162d  addw r6, r1, #301    ; 0x12d
    1d1e:    441e       add r6, r3
    1d20:    f201 112f  addw r1, r1, #303    ; 0x12f
    1d24:    8836       ldrh r6, [r6, #0]
    1d26:    f824 6020  strh.w r6, [r4, r0, lsl #2]
    1d2a:    eb04 0680  add.w r6, r4, r0, lsl #2
    1d2e:    4419       add r1, r3
    1d30:    1c40       adds r0, r0, #1
    1d32:    8809       ldrh r1, [r1, #0]
    1d34:    b2c0       uxtb r0, r0
    1d36:    8071       strh r1, [r6, #2]
    1d38:    2808       cmp r0, #8
    1d3a:    d3de       bcc.n 0x1cfa
    1d3c:    1c52       adds r2, r2, #1
    1d3e:    b2d2       uxtb r2, r2
    1d40:    2a09       cmp r2, #9
    1d42:    d3d5       bcc.n 0x1cf0
    1d44:    e8bd 81f0  ldmia.w r13!, {r4, r5, r6, r7, r8, r15}
    1d48:    8de0       ldrh r0, [r4, #46]    ; 0x2e
    1d4a:    0000       movs r0, r0
    1d4c:    0078       lsls r0, r7, #1
    1d4e:    2000       movs r0, #0
    1d50:    1cba       adds r2, r7, #2
    1d52:    2000       movs r0, #0
    1d54:    091e       lsrs r6, r3, #4
    1d56:    2000       movs r0, #0
    1d58:    e92d 5ff0  stmdb r13!, {r4, r5, r6, r7, r8, r9, r10, r11, r12, r14}
    1d5c:    4fb1       ldr r7, [pc, #708]    ; (0x2024)
    1d5e:    7ab8       ldrb r0, [r7, #10]
    1d60:    2805       cmp r0, #5
    1d62:    d27c       bcs.n 0x1e5e
    1d64:    e8df f000  tbb [r15, r0]
    1d68:    0303       lsls r3, r0, #12
    1d6a:    0303       lsls r3, r0, #12
    1d6c:    00fe       lsls r6, r7, #3
    1d6e:    48ae       ldr r0, [pc, #696]    ; (0x2028)
    1d70:    2500       movs r5, #0
    1d72:    7a01       ldrb r1, [r0, #8]
    1d74:    f001 01bf  and.w r1, r1, #191    ; 0xbf
    1d78:    7201       strb r1, [r0, #8]
    1d7a:    48ac       ldr r0, [pc, #688]    ; (0x202c)
    1d7c:    7f01       ldrb r1, [r0, #28]
    1d7e:    f001 01bf  and.w r1, r1, #191    ; 0xbf
    1d82:    7701       strb r1, [r0, #28]
    1d84:    e001       b.n 0x1d8a
    1d86:    2d08       cmp r5, #8
    1d88:    d02a       beq.n 0x1de0
    1d8a:    48a8       ldr r0, [pc, #672]    ; (0x202c)
    1d8c:    1941       adds r1, r0, r5
    1d8e:    788e       ldrb r6, [r1, #2]
    1d90:    48a6       ldr r0, [pc, #664]    ; (0x202c)
    1d92:    2400       movs r4, #0
    1d94:    eb00 0b05  add.w r11, r0, r5
    1d98:    f89b 0014  ldrb.w r0, [r11, #20]
    1d9c:    ea80 0906  eor.w r9, r0, r6
    1da0:    ea5f 70c9  movs.w r0, r9, lsl #31
    1da4:    d07e       beq.n 0x1ea4
    1da6:    2001       movs r0, #1
    1da8:    67f8       str r0, [r7, #124]    ; 0x7c
    1daa:    48a1       ldr r0, [pc, #644]    ; (0x2030)
    1dac:    eb00 00c5  add.w r0, r0, r5, lsl #3
    1db0:    f810 a004  ldrb.w r10, [r0, r4]
    1db4:    07f0       lsls r0, r6, #31
    1db6:    d018       beq.n 0x1dea
    1db8:    f897 103d  ldrb.w r1, [r7, #61]    ; 0x3d
    1dbc:    eb04 00c5  add.w r0, r4, r5, lsl #3
    1dc0:    4288       cmp r0, r1
    1dc2:    d103       bne.n 0x1dcc
    1dc4:    2000       movs r0, #0
    1dc6:    70b8       strb r0, [r7, #2]
    1dc8:    66b8       str r0, [r7, #104]    ; 0x68
    1dca:    66f8       str r0, [r7, #108]    ; 0x6c
    1dcc:    f89b 1014  ldrb.w r1, [r11, #20]
    1dd0:    2001       movs r0, #1
    1dd2:    40a0       lsls r0, r4
    1dd4:    4041       eors r1, r0
    1dd6:    f88b 1014  strb.w r1, [r11, #20]
    1dda:    7ab8       ldrb r0, [r7, #10]
    1ddc:    b3f0       cbz r0, 0x1e5c
    1dde:    e0e2       b.n 0x1fa6
    1de0:    4892       ldr r0, [pc, #584]    ; (0x202c)
    1de2:    7a80       ldrb r0, [r0, #10]
    1de4:    f000 06bf  and.w r6, r0, #191    ; 0xbf
    1de8:    e7d2       b.n 0x1d90
    1dea:    7ab9       ldrb r1, [r7, #10]
    1dec:    2000       movs r0, #0
    1dee:    2902       cmp r1, #2
    1df0:    d177       bne.n 0x1ee2
    1df2:    f897 203d  ldrb.w r2, [r7, #61]    ; 0x3d
    1df6:    eb04 01c5  add.w r1, r4, r5, lsl #3
    1dfa:    4291       cmp r1, r2
    1dfc:    d102       bne.n 0x1e04
    1dfe:    2001       movs r0, #1
    1e00:    70b8       strb r0, [r7, #2]
    1e02:    e002       b.n 0x1e0a
    1e04:    78b9       ldrb r1, [r7, #2]
    1e06:    2901       cmp r1, #1
    1e08:    d115       bne.n 0x1e36
    1e0a:    2d01       cmp r5, #1
    1e0c:    d113       bne.n 0x1e36
    1e0e:    2c01       cmp r4, #1
    1e10:    d004       beq.n 0x1e1c
    1e12:    2c02       cmp r4, #2
    1e14:    d007       beq.n 0x1e26
    1e16:    2c03       cmp r4, #3
    1e18:    d008       beq.n 0x1e2c
    1e1a:    e00c       b.n 0x1e36
    1e1c:    f001 fd80  bl 0x3920
    1e20:    2001       movs r0, #1
    1e22:    2103       movs r1, #3
    1e24:    e006       b.n 0x1e34
    1e26:    7a79       ldrb r1, [r7, #9]
    1e28:    b119       cbz r1, 0x1e32
    1e2a:    e004       b.n 0x1e36
    1e2c:    7a79       ldrb r1, [r7, #9]
    1e2e:    2901       cmp r1, #1
    1e30:    d101       bne.n 0x1e36
    1e32:    2104       movs r1, #4
    1e34:    72b9       strb r1, [r7, #10]
    1e36:    7a79       ldrb r1, [r7, #9]
    1e38:    bb29       cbnz r1, 0x1e86
    1e3a:    7ab9       ldrb r1, [r7, #10]
    1e3c:    2904       cmp r1, #4
    1e3e:    d022       beq.n 0x1e86
    1e40:    bb08       cbnz r0, 0x1e86
    1e42:    4979       ldr r1, [pc, #484]    ; (0x2028)
    1e44:    f8b7 2052  ldrh.w r2, [r7, #82]    ; 0x52
    1e48:    3112       adds r1, #18
    1e4a:    eb01 1145  add.w r1, r1, r5, lsl #5
    1e4e:    f831 3024  ldrh.w r3, [r1, r4, lsl #2]
    1e52:    4293       cmp r3, r2
    1e54:    d110       bne.n 0x1e78
    1e56:    eb01 0884  add.w r8, r1, r4, lsl #2
    1e5a:    e001       b.n 0x1e60
    1e5c:    e089       b.n 0x1f72
    1e5e:    e0d5       b.n 0x200c
    1e60:    f8b8 3002  ldrh.w r3, [r8, #2]
    1e64:    f8b7 c054  ldrh.w r12, [r7, #84]    ; 0x54
    1e68:    4563       cmp r3, r12
    1e6a:    d105       bne.n 0x1e78
    1e6c:    2200       movs r2, #0
    1e6e:    f821 2024  strh.w r2, [r1, r4, lsl #2]
    1e72:    f8a8 2002  strh.w r2, [r8, #2]
    1e76:    e006       b.n 0x1e86
    1e78:    f821 2024  strh.w r2, [r1, r4, lsl #2]
    1e7c:    eb01 0184  add.w r1, r1, r4, lsl #2
    1e80:    f8b7 2054  ldrh.w r2, [r7, #84]    ; 0x54
    1e84:    804a       strh r2, [r1, #2]
    1e86:    7a79       ldrb r1, [r7, #9]
    1e88:    2901       cmp r1, #1
    1e8a:    d125       bne.n 0x1ed8
    1e8c:    7ab9       ldrb r1, [r7, #10]
    1e8e:    2904       cmp r1, #4
    1e90:    d022       beq.n 0x1ed8
    1e92:    bb00       cbnz r0, 0x1ed6
    1e94:    4867       ldr r0, [pc, #412]    ; (0x2034)
    1e96:    f8b7 1052  ldrh.w r1, [r7, #82]    ; 0x52
    1e9a:    eb00 1045  add.w r0, r0, r5, lsl #5
    1e9e:    f830 2024  ldrh.w r2, [r0, r4, lsl #2]
    1ea2:    e000       b.n 0x1ea6
    1ea4:    e090       b.n 0x1fc8
    1ea6:    428a       cmp r2, r1
    1ea8:    d10d       bne.n 0x1ec6
    1eaa:    eb00 0c84  add.w r12, r0, r4, lsl #2
    1eae:    f8b7 3054  ldrh.w r3, [r7, #84]    ; 0x54
    1eb2:    f8bc 2002  ldrh.w r2, [r12, #2]
    1eb6:    429a       cmp r2, r3
    1eb8:    d105       bne.n 0x1ec6
    1eba:    2100       movs r1, #0
    1ebc:    f820 1024  strh.w r1, [r0, r4, lsl #2]
    1ec0:    f8ac 1002  strh.w r1, [r12, #2]
    1ec4:    e009       b.n 0x1eda
    1ec6:    f820 1024  strh.w r1, [r0, r4, lsl #2]
    1eca:    eb00 0084  add.w r0, r0, r4, lsl #2
    1ece:    f8b7 1054  ldrh.w r1, [r7, #84]    ; 0x54
    1ed2:    8041       strh r1, [r0, #2]
    1ed4:    e001       b.n 0x1eda
    1ed6:    e004       b.n 0x1ee2
    1ed8:    b918       cbnz r0, 0x1ee2
    1eda:    f897 0039  ldrb.w r0, [r7, #57]    ; 0x39
    1ede:    f7ff fa57  bl 0x1390
    1ee2:    7ab8       ldrb r0, [r7, #10]
    1ee4:    2803       cmp r0, #3
    1ee6:    f47f af71  bne.w 0x1dcc
    1eea:    ea55 0004  orrs.w r0, r5, r4
    1eee:    d020       beq.n 0x1f32
    1ef0:    2d04       cmp r5, #4
    1ef2:    d002       beq.n 0x1efa
    1ef4:    2d05       cmp r5, #5
    1ef6:    d004       beq.n 0x1f02
    1ef8:    e005       b.n 0x1f06
    1efa:    2c06       cmp r4, #6
    1efc:    d103       bne.n 0x1f06
    1efe:    200b       movs r0, #11
    1f00:    e017       b.n 0x1f32
    1f02:    2c02       cmp r4, #2
    1f04:    d00e       beq.n 0x1f24
    1f06:    f1aa 001e  sub.w r0, r10, #30
    1f0a:    280d       cmp r0, #13
    1f0c:    f4bf af5e  bcs.w 0x1dcc
    1f10:    e8df f000  tbb [r15, r0]
    1f14:    0a0a       lsrs r2, r1, #8
    1f16:    0a0a       lsrs r2, r1, #8
    1f18:    0a0a       lsrs r2, r1, #8
    1f1a:    0a0a       lsrs r2, r1, #8
    1f1c:    0a0a       lsrs r2, r1, #8
    1f1e:    0707       lsls r7, r0, #28
    1f20:    000e       movs r6, r1
    1f22:    e753       b.n 0x1dcc
    1f24:    200c       movs r0, #12
    1f26:    e004       b.n 0x1f32
    1f28:    f1aa 001d  sub.w r0, r10, #29
    1f2c:    b2c0       uxtb r0, r0
    1f2e:    e000       b.n 0x1f32
    1f30:    200d       movs r0, #13
    1f32:    4941       ldr r1, [pc, #260]    ; (0x2038)
    1f34:    f831 0010  ldrh.w r0, [r1, r0, lsl #1]
    1f38:    f8a7 0052  strh.w r0, [r7, #82]    ; 0x52
    1f3c:    f897 0039  ldrb.w r0, [r7, #57]    ; 0x39
    1f40:    f7ff fa26  bl 0x1390
    1f44:    f8b7 0052  ldrh.w r0, [r7, #82]    ; 0x52
    1f48:    f44f 717a  mov.w r1, #1000    ; 0x3e8
    1f4c:    ebc0 4000  rsb r0, r0, r0, lsl #16
    1f50:    fbb0 f0f1  udiv r0, r0, r1
    1f54:    f44f 71e1  mov.w r1, #450    ; 0x1c2
    1f58:    4348       muls r0, r1
    1f5a:    f64f 71ff  movw r1, #65535    ; 0xffff
    1f5e:    fbb0 f0f1  udiv r0, r0, r1
    1f62:    e000       b.n 0x1f66
    1f64:    e03e       b.n 0x1fe4
    1f66:    4935       ldr r1, [pc, #212]    ; (0x203c)
    1f68:    f8a1 0052  strh.w r0, [r1, #82]    ; 0x52
    1f6c:    2002       movs r0, #2
    1f6e:    72b8       strb r0, [r7, #10]
    1f70:    e72c       b.n 0x1dcc
    1f72:    f003 fe8f  bl 0x5c94
    1f76:    2801       cmp r0, #1
    1f78:    d115       bne.n 0x1fa6
    1f7a:    7ab8       ldrb r0, [r7, #10]
    1f7c:    1c40       adds r0, r0, #1
    1f7e:    72b8       strb r0, [r7, #10]
    1f80:    2000       movs r0, #0
    1f82:    67f8       str r0, [r7, #124]    ; 0x7c
    1f84:    4927       ldr r1, [pc, #156]    ; (0x2024)
    1f86:    3180       adds r1, #128    ; 0x80
    1f88:    6008       str r0, [r1, #0]
    1f8a:    70b8       strb r0, [r7, #2]
    1f8c:    7138       strb r0, [r7, #4]
    1f8e:    f8b7 0046  ldrh.w r0, [r7, #70]    ; 0x46
    1f92:    f8b7 1048  ldrh.w r1, [r7, #72]    ; 0x48
    1f96:    ea50 0201  orrs.w r2, r0, r1
    1f9a:    d100       bne.n 0x1f9e
    1f9c:    21c8       movs r1, #200    ; 0xc8
    1f9e:    f8a7 1052  strh.w r1, [r7, #82]    ; 0x52
    1fa2:    f8a7 0054  strh.w r0, [r7, #84]    ; 0x54
    1fa6:    7ab8       ldrb r0, [r7, #10]
    1fa8:    2801       cmp r0, #1
    1faa:    d105       bne.n 0x1fb8
    1fac:    7a78       ldrb r0, [r7, #9]
    1fae:    2802       cmp r0, #2
    1fb0:    d002       beq.n 0x1fb8
    1fb2:    7ab8       ldrb r0, [r7, #10]
    1fb4:    1c40       adds r0, r0, #1
    1fb6:    72b8       strb r0, [r7, #10]
    1fb8:    f003 fe6c  bl 0x5c94
    1fbc:    2801       cmp r0, #1
    1fbe:    d103       bne.n 0x1fc8
    1fc0:    7ab8       ldrb r0, [r7, #10]
    1fc2:    2804       cmp r0, #4
    1fc4:    d100       bne.n 0x1fc8
    1fc6:    72b8       strb r0, [r7, #10]
    1fc8:    1c64       adds r4, r4, #1
    1fca:    0876       lsrs r6, r6, #1
    1fcc:    b2e4       uxtb r4, r4
    1fce:    ea4f 0959  mov.w r9, r9, lsr #1
    1fd2:    2c08       cmp r4, #8
    1fd4:    f4ff aee4  bcc.w 0x1da0
    1fd8:    1c6d       adds r5, r5, #1
    1fda:    b2ed       uxtb r5, r5
    1fdc:    2d09       cmp r5, #9
    1fde:    f4ff aed2  bcc.w 0x1d86
    1fe2:    e013       b.n 0x200c
    1fe4:    7a78       ldrb r0, [r7, #9]
    1fe6:    71b8       strb r0, [r7, #6]
    1fe8:    f003 faba  bl 0x5560
    1fec:    2002       movs r0, #2
    1fee:    7278       strb r0, [r7, #9]
    1ff0:    2063       movs r0, #99    ; 0x63
    1ff2:    72b8       strb r0, [r7, #10]
    1ff4:    2000       movs r0, #0
    1ff6:    70b8       strb r0, [r7, #2]
    1ff8:    7138       strb r0, [r7, #4]
    1ffa:    66b8       str r0, [r7, #104]    ; 0x68
    1ffc:    66f8       str r0, [r7, #108]    ; 0x6c
    1ffe:    67f8       str r0, [r7, #124]    ; 0x7c
    2000:    490e       ldr r1, [pc, #56]    ; (0x203c)
    2002:    f8a1 0052  strh.w r0, [r1, #82]    ; 0x52
    2006:    490e       ldr r1, [pc, #56]    ; (0x2040)
    2008:    f8a1 0052  strh.w r0, [r1, #82]    ; 0x52
    200c:    6ff9       ldr r1, [r7, #124]    ; 0x7c
    200e:    f644 6020  movw r0, #20000    ; 0x4e20
    2012:    4281       cmp r1, r0
    2014:    d304       bcc.n 0x2020
    2016:    7ab8       ldrb r0, [r7, #10]
    2018:    2814       cmp r0, #20
    201a:    d801       bhi.n 0x2020
    201c:    2004       movs r0, #4
    201e:    72b8       strb r0, [r7, #10]
    2020:    e8bd 9ff0  ldmia.w r13!, {r4, r5, r6, r7, r8, r9, r10, r11, r12, r15}
    2024:    0058       lsls r0, r3, #1
    2026:    2000       movs r0, #0
    2028:    090c       lsrs r4, r1, #4
    202a:    2000       movs r0, #0
    202c:    2de4       cmp r5, #228    ; 0xe4
    202e:    2000       movs r0, #0
    2030:    8ec8       ldrh r0, [r1, #54]    ; 0x36
    2032:    0000       movs r0, r0
    2034:    0a3e       lsrs r6, r7, #8
    2036:    2000       movs r0, #0
    2038:    0160       lsls r0, r4, #5
    203a:    2000       movs r0, #0
    203c:    2e2c       cmp r6, #44    ; 0x2c
    203e:    2000       movs r0, #0
    2040:    2ebc       cmp r6, #188    ; 0xbc
    2042:    2000       movs r0, #0
    2044:    2900       cmp r1, #0
    2046:    6f01       ldr r1, [r0, #112]    ; 0x70
    2048:    d002       beq.n 0x2050
    204a:    f041 0110  orr.w r1, r1, #16
    204e:    e001       b.n 0x2054
    2050:    f021 0110  bic.w r1, r1, #16
    2054:    6701       str r1, [r0, #112]    ; 0x70
    2056:    4770       bx r14
    2058:    2900       cmp r1, #0
    205a:    6901       ldr r1, [r0, #16]
    205c:    d002       beq.n 0x2064
    205e:    f041 0101  orr.w r1, r1, #1
    2062:    e001       b.n 0x2068
    2064:    f021 0101  bic.w r1, r1, #1
    2068:    6101       str r1, [r0, #16]
    206a:    4770       bx r14
    206c:    b5f0       push {r4, r5, r6, r7, r14}
    206e:    780b       ldrb r3, [r1, #0]
    2070:    2403       movs r4, #3
    2072:    eb00 0e83  add.w r14, r0, r3, lsl #2
    2076:    005b       lsls r3, r3, #1
    2078:    409c       lsls r4, r3
    207a:    6d05       ldr r5, [r0, #80]    ; 0x50
    207c:    f10e 0240  add.w r2, r14, #64    ; 0x40
    2080:    f10e 0c90  add.w r12, r14, #144    ; 0x90
    2084:    43e4       mvns r4, r4
    2086:    4025       ands r5, r4
    2088:    6505       str r5, [r0, #80]    ; 0x50
    208a:    6d45       ldr r5, [r0, #84]    ; 0x54
    208c:    7a8e       ldrb r6, [r1, #10]
    208e:    7acf       ldrb r7, [r1, #11]
    2090:    4025       ands r5, r4
    2092:    ea46 0647  orr.w r6, r6, r7, lsl #1
    2096:    409e       lsls r6, r3
    2098:    432e       orrs r6, r5
    209a:    6546       str r6, [r0, #84]    ; 0x54
    209c:    6ec5       ldr r5, [r0, #108]    ; 0x6c
    209e:    7b4e       ldrb r6, [r1, #13]
    20a0:    4025       ands r5, r4
    20a2:    7b0c       ldrb r4, [r1, #12]
    20a4:    ea44 0446  orr.w r4, r4, r6, lsl #1
    20a8:    409c       lsls r4, r3
    20aa:    432c       orrs r4, r5
    20ac:    66c4       str r4, [r0, #108]    ; 0x6c
    20ae:    6814       ldr r4, [r2, #0]
    20b0:    f240 1507  movw r5, #263    ; 0x107
    20b4:    43ac       bics r4, r5
    20b6:    6014       str r4, [r2, #0]
    20b8:    6814       ldr r4, [r2, #0]
    20ba:    684d       ldr r5, [r1, #4]
    20bc:    432c       orrs r4, r5
    20be:    6014       str r4, [r2, #0]
    20c0:    89ca       ldrh r2, [r1, #14]
    20c2:    f8cc 2000  str.w r2, [r12]
    20c6:    8a0a       ldrh r2, [r1, #16]
    20c8:    f8ce 20a0  str.w r2, [r14, #160]    ; 0xa0
    20cc:    7a0a       ldrb r2, [r1, #8]
    20ce:    7a49       ldrb r1, [r1, #9]
    20d0:    ea42 0141  orr.w r1, r2, r1, lsl #1
    20d4:    6d02       ldr r2, [r0, #80]    ; 0x50
    20d6:    4099       lsls r1, r3
    20d8:    4311       orrs r1, r2
    20da:    6501       str r1, [r0, #80]    ; 0x50
    20dc:    bdf0       pop {r4, r5, r6, r7, r15}
    20de:    2100       movs r1, #0
    20e0:    7001       strb r1, [r0, #0]
    20e2:    6041       str r1, [r0, #4]
    20e4:    7201       strb r1, [r0, #8]
    20e6:    7241       strb r1, [r0, #9]
    20e8:    7281       strb r1, [r0, #10]
    20ea:    72c1       strb r1, [r0, #11]
    20ec:    7301       strb r1, [r0, #12]
    20ee:    7341       strb r1, [r0, #13]
    20f0:    81c1       strh r1, [r0, #14]
    20f2:    8201       strh r1, [r0, #16]
    20f4:    4770       bx r14
    20f6:    880a       ldrh r2, [r1, #0]
    20f8:    f8c0 2088  str.w r2, [r0, #136]    ; 0x88
    20fc:    884a       ldrh r2, [r1, #2]
    20fe:    f8c0 2084  str.w r2, [r0, #132]    ; 0x84
    2102:    6802       ldr r2, [r0, #0]
    2104:    f422 3240  bic.w r2, r2, #196608    ; 0x30000
    2108:    6002       str r2, [r0, #0]
    210a:    6802       ldr r2, [r0, #0]
    210c:    f022 7280  bic.w r2, r2, #16777216    ; 0x1000000
    2110:    6002       str r2, [r0, #0]
    2112:    6802       ldr r2, [r0, #0]
    2114:    688b       ldr r3, [r1, #8]
    2116:    431a       orrs r2, r3
    2118:    6002       str r2, [r0, #0]
    211a:    790a       ldrb r2, [r1, #4]
    211c:    f8c0 208c  str.w r2, [r0, #140]    ; 0x8c
    2120:    8989       ldrh r1, [r1, #12]
    2122:    6781       str r1, [r0, #120]    ; 0x78
    2124:    4770       bx r14
    2126:    2100       movs r1, #0
    2128:    f64f 72ff  movw r2, #65535    ; 0xffff
    212c:    6081       str r1, [r0, #8]
    212e:    8002       strh r2, [r0, #0]
    2130:    8041       strh r1, [r0, #2]
    2132:    f44f 7280  mov.w r2, #256    ; 0x100
    2136:    8182       strh r2, [r0, #12]
    2138:    7101       strb r1, [r0, #4]
    213a:    4770       bx r14
    213c:    b57c       push {r2, r3, r4, r5, r6, r14}
    213e:    4c08       ldr r4, [pc, #32]    ; (0x2160)
    2140:    2005       movs r0, #5
    2142:    f8ad 0000  strh.w r0, [r13]
    2146:    f44f 6580  mov.w r5, #1024    ; 0x400
    214a:    62a5       str r5, [r4, #40]    ; 0x28
    214c:    2202       movs r2, #2
    214e:    a901       add r1, sp, #4
    2150:    4668       mov r0, r13
    2152:    f000 f959  bl 0x2408
    2156:    6265       str r5, [r4, #36]    ; 0x24
    2158:    f89d 0005  ldrb.w r0, [r13, #5]
    215c:    bd7c       pop {r2, r3, r4, r5, r6, r15}
    215e:    0000       movs r0, r0
    2160:    2000       movs r0, #0
    2162:    400b       ands r3, r1
    2164:    b570       push {r4, r5, r6, r14}
    2166:    b08c       sub sp, #48    ; 0x30
    2168:    f000 f83c  bl 0x21e4
    216c:    4c17       ldr r4, [pc, #92]    ; (0x21cc)
    216e:    7820       ldrb r0, [r4, #0]
    2170:    2801       cmp r0, #1
    2172:    d127       bne.n 0x21c4
    2174:    2101       movs r1, #1
    2176:    2020       movs r0, #32
    2178:    f7fe fb60  bl 0x83c
    217c:    f44f 4080  mov.w r0, #16384    ; 0x4000
    2180:    1105       asrs r5, r0, #4
    2182:    e9cd 0500  strd r0, r5, [r13]
    2186:    2008       movs r0, #8
    2188:    9002       str r0, [sp, #8]
    218a:    2000       movs r0, #0
    218c:    9003       str r0, [sp, #12]
    218e:    9004       str r0, [sp, #16]
    2190:    9005       str r0, [sp, #20]
    2192:    9006       str r0, [sp, #24]
    2194:    9007       str r0, [sp, #28]
    2196:    2004       movs r0, #4
    2198:    4e0d       ldr r6, [pc, #52]    ; (0x21d0)
    219a:    9008       str r0, [sp, #32]
    219c:    9009       str r0, [sp, #36]    ; 0x24
    219e:    900a       str r0, [sp, #40]    ; 0x28
    21a0:    4669       mov r1, r13
    21a2:    4630       mov r0, r6
    21a4:    f001 fbf2  bl 0x398c
    21a8:    2101       movs r1, #1
    21aa:    4630       mov r0, r6
    21ac:    f001 fc20  bl 0x39f0
    21b0:    4808       ldr r0, [pc, #32]    ; (0x21d4)
    21b2:    6245       str r5, [r0, #36]    ; 0x24
    21b4:    2101       movs r1, #1
    21b6:    4630       mov r0, r6
    21b8:    f001 fbde  bl 0x3978
    21bc:    f000 f840  bl 0x2240
    21c0:    2002       movs r0, #2
    21c2:    7020       strb r0, [r4, #0]
    21c4:    b00c       add sp, #48    ; 0x30
    21c6:    2001       movs r0, #1
    21c8:    bd70       pop {r4, r5, r6, r15}
    21ca:    0000       movs r0, r0
    21cc:    0220       lsls r0, r4, #8
    21ce:    2000       movs r0, #0
    21d0:    4000       ands r0, r0
    21d2:    4004       ands r4, r0
    21d4:    2000       movs r0, #0
    21d6:    400b       ands r3, r1
    21d8:    b510       push {r4, r14}
    21da:    f7ff ffaf  bl 0x213c
    21de:    f3c0 0000  ubfx r0, r0, #0, #1
    21e2:    bd10       pop {r4, r15}
    21e4:    b570       push {r4, r5, r6, r14}
    21e6:    4c11       ldr r4, [pc, #68]    ; (0x222c)
    21e8:    7820       ldrb r0, [r4, #0]
    21ea:    b9e0       cbnz r0, 0x2226
    21ec:    2101       movs r1, #1
    21ee:    0448       lsls r0, r1, #17
    21f0:    f7fe fb18  bl 0x824
    21f4:    4e0e       ldr r6, [pc, #56]    ; (0x2230)
    21f6:    f44f 6580  mov.w r5, #1024    ; 0x400
    21fa:    2200       movs r2, #0
    21fc:    4629       mov r1, r5
    21fe:    4630       mov r0, r6
    2200:    f7fe fbac  bl 0x95c
    2204:    2201       movs r2, #1
    2206:    4629       mov r1, r5
    2208:    4630       mov r0, r6
    220a:    f7fe fb8f  bl 0x92c
    220e:    2201       movs r2, #1
    2210:    2180       movs r1, #128    ; 0x80
    2212:    4630       mov r0, r6
    2214:    f7fe fb8a  bl 0x92c
    2218:    2201       movs r2, #1
    221a:    0211       lsls r1, r2, #8
    221c:    4630       mov r0, r6
    221e:    f7fe fb85  bl 0x92c
    2222:    2001       movs r0, #1
    2224:    7020       strb r0, [r4, #0]
    2226:    2001       movs r0, #1
    2228:    bd70       pop {r4, r5, r6, r15}
    222a:    0000       movs r0, r0
    222c:    0220       lsls r0, r4, #8
    222e:    2000       movs r0, #0
    2230:    2000       movs r0, #0
    2232:    400b       ands r3, r1
    2234:    b108       cbz r0, 0x223a
    2236:    f000 b825  b.w 0x2284
    223a:    f000 b801  b.w 0x2240
    223e:    0000       movs r0, r0
    2240:    b570       push {r4, r5, r6, r14}
    2242:    2201       movs r2, #1
    2244:    4d0e       ldr r5, [pc, #56]    ; (0x2280)
    2246:    0294       lsls r4, r2, #10
    2248:    4621       mov r1, r4
    224a:    4628       mov r0, r5
    224c:    f7fe fb66  bl 0x91c
    2250:    2202       movs r2, #2
    2252:    4621       mov r1, r4
    2254:    4628       mov r0, r5
    2256:    f7fe fb81  bl 0x95c
    225a:    2205       movs r2, #5
    225c:    2107       movs r1, #7
    225e:    2001       movs r0, #1
    2260:    f7fe fa20  bl 0x6a4
    2264:    2205       movs r2, #5
    2266:    2108       movs r1, #8
    2268:    2001       movs r0, #1
    226a:    f7fe fa1b  bl 0x6a4
    226e:    2205       movs r2, #5
    2270:    2109       movs r1, #9
    2272:    2001       movs r0, #1
    2274:    f7fe fa16  bl 0x6a4
    2278:    e8bd 4070  ldmia.w r13!, {r4, r5, r6, r14}
    227c:    f000 b924  b.w 0x24c8
    2280:    2000       movs r0, #0
    2282:    400b       ands r3, r1
    2284:    b570       push {r4, r5, r6, r14}
    2286:    f000 f88b  bl 0x23a0
    228a:    4d0f       ldr r5, [pc, #60]    ; (0x22c8)
    228c:    f44f 6480  mov.w r4, #1024    ; 0x400
    2290:    2200       movs r2, #0
    2292:    4621       mov r1, r4
    2294:    4628       mov r0, r5
    2296:    f7fe fb61  bl 0x95c
    229a:    2200       movs r2, #0
    229c:    4621       mov r1, r4
    229e:    4628       mov r0, r5
    22a0:    f7fe fb3c  bl 0x91c
    22a4:    2200       movs r2, #0
    22a6:    2107       movs r1, #7
    22a8:    2001       movs r0, #1
    22aa:    f7fe f9fb  bl 0x6a4
    22ae:    2200       movs r2, #0
    22b0:    2108       movs r1, #8
    22b2:    2001       movs r0, #1
    22b4:    f7fe f9f6  bl 0x6a4
    22b8:    e8bd 4070  ldmia.w r13!, {r4, r5, r6, r14}
    22bc:    2200       movs r2, #0
    22be:    2109       movs r1, #9
    22c0:    2001       movs r0, #1
    22c2:    f7fe b9ef  b.w 0x6a4
    22c6:    0000       movs r0, r0
    22c8:    2000       movs r0, #0
    22ca:    400b       ands r3, r1
    22cc:    e92d 43f8  stmdb r13!, {r3, r4, r5, r6, r7, r8, r9, r14}
    22d0:    4607       mov r7, r0
    22d2:    460c       mov r4, r1
    22d4:    4690       mov r8, r2
    22d6:    f000 f947  bl 0x2568
    22da:    4e0e       ldr r6, [pc, #56]    ; (0x2314)
    22dc:    f44f 6580  mov.w r5, #1024    ; 0x400
    22e0:    62b5       str r5, [r6, #40]    ; 0x28
    22e2:    2002       movs r0, #2
    22e4:    f88d 0000  strb.w r0, [r13]
    22e8:    0c20       lsrs r0, r4, #16
    22ea:    f88d 0001  strb.w r0, [r13, #1]
    22ee:    0a20       lsrs r0, r4, #8
    22f0:    f88d 0002  strb.w r0, [r13, #2]
    22f4:    f88d 4003  strb.w r4, [r13, #3]
    22f8:    2204       movs r2, #4
    22fa:    2100       movs r1, #0
    22fc:    4668       mov r0, r13
    22fe:    f000 f883  bl 0x2408
    2302:    4642       mov r2, r8
    2304:    2100       movs r1, #0
    2306:    4638       mov r0, r7
    2308:    f000 f87e  bl 0x2408
    230c:    6275       str r5, [r6, #36]    ; 0x24
    230e:    e8bd 83f8  ldmia.w r13!, {r3, r4, r5, r6, r7, r8, r9, r15}
    2312:    0000       movs r0, r0
    2314:    2000       movs r0, #0
    2316:    400b       ands r3, r1
    2318:    b5f8       push {r3, r4, r5, r6, r7, r14}
    231a:    4604       mov r4, r0
    231c:    f000 f924  bl 0x2568
    2320:    4e0a       ldr r6, [pc, #40]    ; (0x234c)
    2322:    f44f 6580  mov.w r5, #1024    ; 0x400
    2326:    62b5       str r5, [r6, #40]    ; 0x28
    2328:    2020       movs r0, #32
    232a:    f88d 0000  strb.w r0, [r13]
    232e:    0c20       lsrs r0, r4, #16
    2330:    f88d 0001  strb.w r0, [r13, #1]
    2334:    0a20       lsrs r0, r4, #8
    2336:    f88d 0002  strb.w r0, [r13, #2]
    233a:    f88d 4003  strb.w r4, [r13, #3]
    233e:    2204       movs r2, #4
    2340:    2100       movs r1, #0
    2342:    4668       mov r0, r13
    2344:    f000 f860  bl 0x2408
    2348:    6275       str r5, [r6, #36]    ; 0x24
    234a:    bdf8       pop {r3, r4, r5, r6, r7, r15}
    234c:    2000       movs r0, #0
    234e:    400b       ands r3, r1
    2350:    b5f8       push {r3, r4, r5, r6, r7, r14}
    2352:    4606       mov r6, r0
    2354:    f000 f908  bl 0x2568
    2358:    4c07       ldr r4, [pc, #28]    ; (0x2378)
    235a:    f44f 6580  mov.w r5, #1024    ; 0x400
    235e:    62a5       str r5, [r4, #40]    ; 0x28
    2360:    2001       movs r0, #1
    2362:    f88d 0000  strb.w r0, [r13]
    2366:    f88d 6001  strb.w r6, [r13, #1]
    236a:    2202       movs r2, #2
    236c:    2100       movs r1, #0
    236e:    4668       mov r0, r13
    2370:    f000 f84a  bl 0x2408
    2374:    6265       str r5, [r4, #36]    ; 0x24
    2376:    bdf8       pop {r3, r4, r5, r6, r7, r15}
    2378:    2000       movs r0, #0
    237a:    400b       ands r3, r1
    237c:    b510       push {r4, r14}
    237e:    243c       movs r4, #60    ; 0x3c
    2380:    f7ff ffa4  bl 0x22cc
    2384:    e005       b.n 0x2392
    2386:    2064       movs r0, #100    ; 0x64
    2388:    f7fe f9a0  bl 0x6cc
    238c:    f7ff ff24  bl 0x21d8
    2390:    b118       cbz r0, 0x239a
    2392:    1e64       subs r4, r4, #1
    2394:    1c60       adds r0, r4, #1
    2396:    d1f6       bne.n 0x2386
    2398:    bd10       pop {r4, r15}
    239a:    2001       movs r0, #1
    239c:    bd10       pop {r4, r15}
    239e:    0000       movs r0, r0
    23a0:    b538       push {r3, r4, r5, r14}
    23a2:    4c08       ldr r4, [pc, #32]    ; (0x23c4)
    23a4:    20b9       movs r0, #185    ; 0xb9
    23a6:    f88d 0000  strb.w r0, [r13]
    23aa:    f44f 6580  mov.w r5, #1024    ; 0x400
    23ae:    62a5       str r5, [r4, #40]    ; 0x28
    23b0:    2201       movs r2, #1
    23b2:    2100       movs r1, #0
    23b4:    4668       mov r0, r13
    23b6:    f000 f827  bl 0x2408
    23ba:    6265       str r5, [r4, #36]    ; 0x24
    23bc:    200a       movs r0, #10
    23be:    f7fe f985  bl 0x6cc
    23c2:    bd38       pop {r3, r4, r5, r15}
    23c4:    2000       movs r0, #0
    23c6:    400b       ands r3, r1

function_13:
  0x23c8:    b5f8       push {r3, r4, r5, r6, r7, r14}
    23ca:    4d0e       ldr r5, [pc, #56]    ; (0x2404)
    23cc:    f44f 6480  mov.w r4, #1024    ; 0x400
    23d0:    4607       mov r7, r0
    23d2:    4616       mov r6, r2
    23d4:    62ac       str r4, [r5, #40]    ; 0x28
    23d6:    2003       movs r0, #3
    23d8:    f88d 0000  strb.w r0, [r13]
    23dc:    0c08       lsrs r0, r1, #16
    23de:    f88d 0001  strb.w r0, [r13, #1]
    23e2:    0a08       lsrs r0, r1, #8
    23e4:    f88d 0002  strb.w r0, [r13, #2]
    23e8:    f88d 1003  strb.w r1, [r13, #3]
    23ec:    2204       movs r2, #4
    23ee:    2100       movs r1, #0
    23f0:    4668       mov r0, r13
    23f2:    f000 f809  bl 0x2408
    23f6:    4632       mov r2, r6
    23f8:    4639       mov r1, r7
    23fa:    2000       movs r0, #0
    23fc:    f000 f804  bl 0x2408
    2400:    626c       str r4, [r5, #36]    ; 0x24
    2402:    bdf8       pop {r3, r4, r5, r6, r7, r15}
    2404:    2000       movs r0, #0
    2406:    400b       ands r3, r1
    2408:    e92d 41f0  stmdb r13!, {r4, r5, r6, r7, r8, r14}
    240c:    460e       mov r6, r1
    240e:    4922       ldr r1, [pc, #136]    ; (0x2498)
    2410:    4605       mov r5, r0
    2412:    2400       movs r4, #0
    2414:    6848       ldr r0, [r1, #4]
    2416:    4617       mov r7, r2
    2418:    2800       cmp r0, #0
    241a:    dd02       ble.n 0x2422
    241c:    1bc0       subs r0, r0, r7
    241e:    6048       str r0, [r1, #4]
    2420:    e004       b.n 0x242c
    2422:    f44f 607a  mov.w r0, #4000    ; 0xfa0
    2426:    6048       str r0, [r1, #4]
    2428:    f002 f88c  bl 0x4544                   ; call function_12
    242c:    2f08       cmp r7, #8
    242e:    d901       bls.n 0x2434
    2430:    2008       movs r0, #8
    2432:    e000       b.n 0x2436
    2434:    4638       mov r0, r7
    2436:    2200       movs r2, #0
    2438:    4613       mov r3, r2
    243a:    4918       ldr r1, [pc, #96]    ; (0x249c)
    243c:    e005       b.n 0x244a
    243e:    b13d       cbz r5, 0x2450
    2440:    f815 c002  ldrb.w r12, [r5, r2]
    2444:    f8c1 c010  str.w r12, [r1, #16]
    2448:    1c52       adds r2, r2, #1
    244a:    4282       cmp r2, r0
    244c:    d3f7       bcc.n 0x243e
    244e:    e010       b.n 0x2472
    2450:    610b       str r3, [r1, #16]
    2452:    e7f9       b.n 0x2448
    2454:    69ca       ldr r2, [r1, #28]
    2456:    f012 0ff0  tst.w r2, #240    ; 0xf0
    245a:    d0fb       beq.n 0x2454
    245c:    690a       ldr r2, [r1, #16]
    245e:    b2d2       uxtb r2, r2
    2460:    b155       cbz r5, 0x2478
    2462:    f815 c000  ldrb.w r12, [r5, r0]
    2466:    f8c1 c010  str.w r12, [r1, #16]
    246a:    1c40       adds r0, r0, #1
    246c:    b106       cbz r6, 0x2470
    246e:    5532       strb r2, [r6, r4]
    2470:    1c64       adds r4, r4, #1
    2472:    42b8       cmp r0, r7
    2474:    d3ee       bcc.n 0x2454
    2476:    e00a       b.n 0x248e
    2478:    610b       str r3, [r1, #16]
    247a:    e7f6       b.n 0x246a
    247c:    69c8       ldr r0, [r1, #28]
    247e:    f010 0ff0  tst.w r0, #240    ; 0xf0
    2482:    d0fb       beq.n 0x247c
    2484:    6908       ldr r0, [r1, #16]
    2486:    b2c0       uxtb r0, r0
    2488:    b106       cbz r6, 0x248c
    248a:    5530       strb r0, [r6, r4]
    248c:    1c64       adds r4, r4, #1
    248e:    42bc       cmp r4, r7
    2490:    d3f4       bcc.n 0x247c
    2492:    e8bd 81f0  ldmia.w r13!, {r4, r5, r6, r7, r8, r15}
    2496:    0000       movs r0, r0
    2498:    0220       lsls r0, r4, #8
    249a:    2000       movs r0, #0
    249c:    4000       ands r0, r0
    249e:    4004       ands r4, r0

function_14:
  0x24a0:    b570       push {r4, r5, r6, r14}
    24a2:    f240 142d  movw r4, #301    ; 0x12d
    24a6:    f7ff ff37  bl 0x2318
    24aa:    f44f 757a  mov.w r5, #1000    ; 0x3e8

; loop
    24ae:    e005       b.n 0x24bc                  ; loop start
  0x24b0:    4628       mov r0, r5
    24b2:    f7fe f90b  bl 0x6cc
    24b6:    f7ff fe8f  bl 0x21d8
    24ba:    b118       cbz r0, 0x24c4
  0x24bc:    1e64       subs r4, r4, #1
    24be:    1c60       adds r0, r4, #1
    24c0:    d1f6       bne.n 0x24b0                ; loop condition
; loop end

    24c2:    bd70       pop {r4, r5, r6, r15}
    24c4:    2001       movs r0, #1
    24c6:    bd70       pop {r4, r5, r6, r15}
    24c8:    b538       push {r3, r4, r5, r14}
    24ca:    4c08       ldr r4, [pc, #32]    ; (0x24ec)
    24cc:    20ab       movs r0, #171    ; 0xab
    24ce:    f88d 0000  strb.w r0, [r13]
    24d2:    f44f 6580  mov.w r5, #1024    ; 0x400
    24d6:    62a5       str r5, [r4, #40]    ; 0x28
    24d8:    2201       movs r2, #1
    24da:    2100       movs r1, #0
    24dc:    4668       mov r0, r13
    24de:    f7ff ff93  bl 0x2408
    24e2:    6265       str r5, [r4, #36]    ; 0x24
    24e4:    200a       movs r0, #10
    24e6:    f7fe f8f1  bl 0x6cc
    24ea:    bd38       pop {r3, r4, r5, r15}
    24ec:    2000       movs r0, #0
    24ee:    400b       ands r3, r1

function_15:
  0x24f0:    e92d 47f0  stmdb r13!, {r4, r5, r6, r7, r8, r9, r10, r14}
    24f4:    4606       mov r6, r0
    24f6:    4248       negs r0, r1
    24f8:    b2c4       uxtb r4, r0
    24fa:    460d       mov r5, r1
    24fc:    4294       cmp r4, r2
    24fe:    d204       bcs.n 0x250a
    2500:    1b10       subs r0, r2, r4
    2502:    f3c0 270f  ubfx r7, r0, #8, #16
    2506:    b2c0       uxtb r0, r0
    2508:    e002       b.n 0x2510
    250a:    2700       movs r7, #0
    250c:    b294       uxth r4, r2
    250e:    4638       mov r0, r7
    2510:    4680       mov r8, r0
    2512:    b144       cbz r4, 0x2526
    2514:    4622       mov r2, r4
    2516:    4629       mov r1, r5
    2518:    4630       mov r0, r6
    251a:    f7ff ff2f  bl 0x237c
    251e:    2801       cmp r0, #1
    2520:    d11d       bne.n 0x255e
    2522:    4425       add r5, r4
    2524:    4426       add r6, r4
    2526:    2400       movs r4, #0
    2528:    f44f 7980  mov.w r9, #256    ; 0x100
    252c:    e00b       b.n 0x2546
    252e:    464a       mov r2, r9
    2530:    4629       mov r1, r5
    2532:    4630       mov r0, r6
    2534:    f7ff ff22  bl 0x237c
    2538:    2801       cmp r0, #1
    253a:    d110       bne.n 0x255e
    253c:    f505 7580  add.w r5, r5, #256    ; 0x100
    2540:    f506 7680  add.w r6, r6, #256    ; 0x100
    2544:    1c64       adds r4, r4, #1
    2546:    42bc       cmp r4, r7
    2548:    dbf1       blt.n 0x252e
    254a:    ea5f 0008  movs.w r0, r8
    254e:    d009       beq.n 0x2564
    2550:    4602       mov r2, r0
    2552:    4629       mov r1, r5
    2554:    4630       mov r0, r6
    2556:    f7ff ff11  bl 0x237c
    255a:    2801       cmp r0, #1
    255c:    d002       beq.n 0x2564
    255e:    2000       movs r0, #0
    2560:    e8bd 87f0  ldmia.w r13!, {r4, r5, r6, r7, r8, r9, r10, r15}
    2564:    2001       movs r0, #1
    2566:    e7fb       b.n 0x2560
    2568:    b538       push {r3, r4, r5, r14}
    256a:    4c07       ldr r4, [pc, #28]    ; (0x2588)
    256c:    2006       movs r0, #6
    256e:    f88d 0000  strb.w r0, [r13]
    2572:    f44f 6580  mov.w r5, #1024    ; 0x400
    2576:    62a5       str r5, [r4, #40]    ; 0x28
    2578:    2201       movs r2, #1
    257a:    2100       movs r1, #0
    257c:    4668       mov r0, r13
    257e:    f7ff ff43  bl 0x2408
    2582:    6265       str r5, [r4, #36]    ; 0x24
    2584:    bd38       pop {r3, r4, r5, r15}
    2586:    0000       movs r0, r0
    2588:    2000       movs r0, #0
    258a:    400b       ands r3, r1
    258c:    b510       push {r4, r14}
    258e:    f44f 74cd  mov.w r4, #410    ; 0x19a
    2592:    f7ff fedd  bl 0x2350
    2596:    e005       b.n 0x25a4
    2598:    2064       movs r0, #100    ; 0x64
    259a:    f7fe f897  bl 0x6cc
    259e:    f7ff fe1b  bl 0x21d8
    25a2:    b118       cbz r0, 0x25ac
    25a4:    1e64       subs r4, r4, #1
    25a6:    1c60       adds r0, r4, #1
    25a8:    d1f6       bne.n 0x2598
    25aa:    bd10       pop {r4, r15}
    25ac:    2001       movs r0, #1
    25ae:    bd10       pop {r4, r15}

function_5:
  0x25b0:    b510       push {r4, r14}
    25b2:    f44f 5130  mov.w r1, #11264    ; 0x2c00
    25b6:    2000       movs r0, #0
    25b8:    f000 f86c  bl 0x2694
    25bc:    491e       ldr r1, [pc, #120]    ; (0x2638)
    25be:    6808       ldr r0, [r1, #0]
    25c0:    f64f 02ff  movw r2, #63743    ; 0xf8ff
    25c4:    ea00 0002  and.w r0, r0, r2
    25c8:    4a1c       ldr r2, [pc, #112]    ; (0x263c)
    25ca:    f440 7040  orr.w r0, r0, #768    ; 0x300
    25ce:    ea40 0002  orr.w r0, r0, r2
    25d2:    6008       str r0, [r1, #0]
    25d4:    f04f 0200  mov.w r2, #0
    25d8:    4611       mov r1, r2
    25da:    f04f 0003  mov.w r0, #3
    25de:    f000 f82f  bl 0x2640
    25e2:    4601       mov r1, r0
    25e4:    202b       movs r0, #43    ; 0x2b
    25e6:    f000 f844  bl 0x2672
    25ea:    2200       movs r2, #0
    25ec:    4611       mov r1, r2
    25ee:    2003       movs r0, #3
    25f0:    f000 f826  bl 0x2640
    25f4:    4601       mov r1, r0
    25f6:    202c       movs r0, #44    ; 0x2c
    25f8:    f000 f83b  bl 0x2672
    25fc:    2200       movs r2, #0
    25fe:    2101       movs r1, #1
    2600:    2003       movs r0, #3
    2602:    f000 f81d  bl 0x2640
    2606:    4601       mov r1, r0
    2608:    202a       movs r0, #42    ; 0x2a
    260a:    f000 f832  bl 0x2672
    260e:    2200       movs r2, #0
    2610:    2102       movs r1, #2
    2612:    2003       movs r0, #3
    2614:    f000 f814  bl 0x2640
    2618:    4601       mov r1, r0
    261a:    2029       movs r0, #41    ; 0x29
    261c:    f000 f829  bl 0x2672
    2620:    2200       movs r2, #0
    2622:    2102       movs r1, #2
    2624:    2003       movs r0, #3
    2626:    f000 f80b  bl 0x2640
    262a:    4601       mov r1, r0
    262c:    e8bd 4010  ldmia.w r13!, {r4, r14}
    2630:    2035       movs r0, #53    ; 0x35
    2632:    f000 b81e  b.w 0x2672
    2636:    0000       movs r0, r0
    2638:    ed0c e000  stc 0, cr14, [r12, #-0]
    263c:    0000       movs r0, r0
    263e:    05fa       lsls r2, r7, #23
    2640:    b530       push {r4, r5, r14}
    2642:    f000 0307  and.w r3, r0, #7
    2646:    2504       movs r5, #4
    2648:    f1c3 0007  rsb r0, r3, #7
    264c:    2804       cmp r0, #4
    264e:    d800       bhi.n 0x2652
    2650:    4605       mov r5, r0
    2652:    2400       movs r4, #0
    2654:    1d18       adds r0, r3, #4
    2656:    2807       cmp r0, #7
    2658:    d300       bcc.n 0x265c
    265a:    1edc       subs r4, r3, #3
    265c:    2301       movs r3, #1
    265e:    fa03 f005  lsl.w r0, r3, r5
    2662:    1e40       subs r0, r0, #1
    2664:    4008       ands r0, r1
    2666:    40a0       lsls r0, r4
    2668:    40a3       lsls r3, r4
    266a:    1e5b       subs r3, r3, #1
    266c:    4013       ands r3, r2
    266e:    4318       orrs r0, r3
    2670:    bd30       pop {r4, r5, r15}
    2672:    0709       lsls r1, r1, #28
    2674:    0e09       lsrs r1, r1, #24
    2676:    f04f 22e0  mov.w r2, #3758153728    ; 0xe000e000
    267a:    2800       cmp r0, #0
    267c:    da05       bge.n 0x268a
    267e:    f000 000f  and.w r0, r0, #15
    2682:    4410       add r0, r2
    2684:    f880 1d14  strb.w r1, [r0, #3348]    ; 0xd14
    2688:    4770       bx r14
    268a:    4410       add r0, r2
    268c:    f880 1400  strb.w r1, [r0, #1024]    ; 0x400
    2690:    4770       bx r14
    2692:    0000       movs r0, r0
    2694:    4a02       ldr r2, [pc, #8]    ; (0x26a0)
    2696:    4011       ands r1, r2
    2698:    4301       orrs r1, r0
    269a:    4802       ldr r0, [pc, #8]    ; (0x26a4)
    269c:    6001       str r1, [r0, #0]
    269e:    4770       bx r14
    26a0:    ff80 1fff       ; <UNDEFINED> instruction: 0xff801fff
    26a4:    ed08 e000  stc 0, cr14, [r8, #-0]
    26a8:    b510       push {r4, r14}
    26aa:    f000 f821  bl 0x26f0
    26ae:    4c0f       ldr r4, [pc, #60]    ; (0x26ec)
    26b0:    7820       ldrb r0, [r4, #0]
    26b2:    2801       cmp r0, #1
    26b4:    d117       bne.n 0x26e6
    26b6:    f7ff fd55  bl 0x2164
    26ba:    2801       cmp r0, #1
    26bc:    d10f       bne.n 0x26de
    26be:    f7ff fd3d  bl 0x213c
    26c2:    b120       cbz r0, 0x26ce
    26c4:    2000       movs r0, #0
    26c6:    f7ff ff61  bl 0x258c
    26ca:    2801       cmp r0, #1
    26cc:    d107       bne.n 0x26de
    26ce:    f7ff fd35  bl 0x213c
    26d2:    b130       cbz r0, 0x26e2
    26d4:    2000       movs r0, #0
    26d6:    f7ff ff59  bl 0x258c
    26da:    2801       cmp r0, #1
    26dc:    d001       beq.n 0x26e2
    26de:    2000       movs r0, #0
    26e0:    bd10       pop {r4, r15}
    26e2:    2002       movs r0, #2
    26e4:    7020       strb r0, [r4, #0]
    26e6:    2001       movs r0, #1
    26e8:    bd10       pop {r4, r15}
    26ea:    0000       movs r0, r0
    26ec:    0228       lsls r0, r5, #8
    26ee:    2000       movs r0, #0
    26f0:    b510       push {r4, r14}
    26f2:    4c04       ldr r4, [pc, #16]    ; (0x2704)
    26f4:    7820       ldrb r0, [r4, #0]
    26f6:    b918       cbnz r0, 0x2700
    26f8:    f7ff fd74  bl 0x21e4
    26fc:    2001       movs r0, #1
    26fe:    7020       strb r0, [r4, #0]
    2700:    2001       movs r0, #1
    2702:    bd10       pop {r4, r15}
    2704:    0228       lsls r0, r5, #8
    2706:    2000       movs r0, #0
    2708:    f7ff bd94  b.w 0x2234
    270c:    e92d 43f0  stmdb r13!, {r4, r5, r6, r7, r8, r9, r14}
    2710:    f8df c064  ldr.w r12, [r15, #100]    ; 0x2778
    2714:    2100       movs r1, #0
    2716:    f8df 8058  ldr.w r8, [r15, #88]    ; 0x2770
    271a:    f8df 9058  ldr.w r9, [r15, #88]    ; 0x2774
    271e:    460a       mov r2, r1
    2720:    f10c 0790  add.w r7, r12, #144    ; 0x90
    2724:    2000       movs r0, #0
    2726:    eb08 1301  add.w r3, r8, r1, lsl #4
    272a:    eb09 1501  add.w r5, r9, r1, lsl #4
    272e:    eb0c 1401  add.w r4, r12, r1, lsl #4
    2732:    eb07 1601  add.w r6, r7, r1, lsl #4
    2736:    f823 2010  strh.w r2, [r3, r0, lsl #1]
    273a:    f825 2010  strh.w r2, [r5, r0, lsl #1]
    273e:    f824 2010  strh.w r2, [r4, r0, lsl #1]
    2742:    f826 2010  strh.w r2, [r6, r0, lsl #1]
    2746:    1c40       adds r0, r0, #1
    2748:    b2c0       uxtb r0, r0
    274a:    2808       cmp r0, #8
    274c:    d3f3       bcc.n 0x2736
    274e:    1c49       adds r1, r1, #1
    2750:    b2c9       uxtb r1, r1
    2752:    2909       cmp r1, #9
    2754:    d3e6       bcc.n 0x2724
    2756:    4809       ldr r0, [pc, #36]    ; (0x277c)
    2758:    62c2       str r2, [r0, #44]    ; 0x2c
    275a:    3848       subs r0, #72    ; 0x48
    275c:    7002       strb r2, [r0, #0]
    275e:    7082       strb r2, [r0, #2]
    2760:    82c2       strh r2, [r0, #22]
    2762:    8302       strh r2, [r0, #24]
    2764:    f800 2c31  strb.w r2, [r0, #-49]
    2768:    f800 2c30  strb.w r2, [r0, #-48]
    276c:    e8bd 83f0  ldmia.w r13!, {r4, r5, r6, r7, r8, r9, r15}
    2770:    2e2c       cmp r6, #44    ; 0x2c
    2772:    2000       movs r0, #0
    2774:    2ebc       cmp r6, #188    ; 0xbc
    2776:    2000       movs r0, #0
    2778:    0b9a       lsrs r2, r3, #14
    277a:    2000       movs r0, #0
    277c:    00d8       lsls r0, r3, #3
    277e:    2000       movs r0, #0
    2780:    b5f0       push {r4, r5, r6, r7, r14}
    2782:    ebc0 4000  rsb r0, r0, r0, lsl #16
    2786:    f44f 757a  mov.w r5, #1000    ; 0x3e8
    278a:    fbb0 f0f5  udiv r0, r0, r5
    278e:    f44f 73e1  mov.w r3, #450    ; 0x1c2
    2792:    4358       muls r0, r3
    2794:    f64f 74ff  movw r4, #65535    ; 0xffff
    2798:    fbb0 f0f4  udiv r0, r0, r4
    279c:    b283       uxth r3, r0
    279e:    ebc1 4001  rsb r0, r1, r1, lsl #16
    27a2:    fbb0 f0f5  udiv r0, r0, r5
    27a6:    2200       movs r2, #0
    27a8:    f44f 71e1  mov.w r1, #450    ; 0x1c2
    27ac:    4348       muls r0, r1
    27ae:    fbb0 f0f4  udiv r0, r0, r4
    27b2:    4f0a       ldr r7, [pc, #40]    ; (0x27dc)
    27b4:    4e0a       ldr r6, [pc, #40]    ; (0x27e0)
    27b6:    b285       uxth r5, r0
    27b8:    2000       movs r0, #0
    27ba:    eb07 1102  add.w r1, r7, r2, lsl #4
    27be:    eb06 1402  add.w r4, r6, r2, lsl #4
    27c2:    f821 3010  strh.w r3, [r1, r0, lsl #1]
    27c6:    f824 5010  strh.w r5, [r4, r0, lsl #1]
    27ca:    1c40       adds r0, r0, #1
    27cc:    b2c0       uxtb r0, r0
    27ce:    2808       cmp r0, #8
    27d0:    d3f7       bcc.n 0x27c2
    27d2:    1c52       adds r2, r2, #1
    27d4:    b2d2       uxtb r2, r2
    27d6:    2a09       cmp r2, #9
    27d8:    d3ee       bcc.n 0x27b8
    27da:    bdf0       pop {r4, r5, r6, r7, r15}
    27dc:    2e2c       cmp r6, #44    ; 0x2c
    27de:    2000       movs r0, #0
    27e0:    2ebc       cmp r6, #188    ; 0xbc
    27e2:    2000       movs r0, #0
    27e4:    e92d 5ffc  stmdb r13!, {r2, r3, r4, r5, r6, r7, r8, r9, r10, r11, r12, r14}
    27e8:    f8df 842c  ldr.w r8, [r15, #1068]    ; 0x2c18
    27ec:    2000       movs r0, #0
    27ee:    9000       str r0, [sp, #0]
    27f0:    f8d8 005c  ldr.w r0, [r8, #92]    ; 0x5c
    27f4:    f247 5130  movw r1, #30000    ; 0x7530
    27f8:    4288       cmp r0, r1
    27fa:    d808       bhi.n 0x280e
    27fc:    f898 1000  ldrb.w r1, [r8]
    2800:    4640       mov r0, r8
    2802:    290a       cmp r1, #10
    2804:    d110       bne.n 0x2828
    2806:    6dc0       ldr r0, [r0, #92]    ; 0x5c
    2808:    f5b0 6f7a  cmp.w r0, #4000    ; 0xfa0
    280c:    d90c       bls.n 0x2828
    280e:    2114       movs r1, #20
    2810:    f888 1000  strb.w r1, [r8]
    2814:    2100       movs r1, #0
    2816:    f888 1002  strb.w r1, [r8, #2]
    281a:    f888 1003  strb.w r1, [r8, #3]
    281e:    48ff       ldr r0, [pc, #1020]    ; (0x2c1c)
    2820:    f8a0 1084  strh.w r1, [r0, #132]    ; 0x84
    2824:    f002 f9ac  bl 0x4b80                   ; call function_16
    2828:    4cfd       ldr r4, [pc, #1012]    ; (0x2c20)
    282a:    8820       ldrh r0, [r4, #0]
    282c:    f04f 0901  mov.w r9, #1
    2830:    bbf0       cbnz r0, 0x28b0
    2832:    f005 0001  and.w r0, r5, #1
    2836:    43c0       mvns r0, r0
    2838:    b2c1       uxtb r1, r0
    283a:    2600       movs r6, #0
    283c:    4638       mov r0, r7
    283e:    f002 fa03  bl 0x4c48
    2842:    49f8       ldr r1, [pc, #992]    ; (0x2c24)
    2844:    2000       movs r0, #0
    2846:    1822       adds r2, r4, r0
    2848:    7892       ldrb r2, [r2, #2]
    284a:    540a       strb r2, [r1, r0]
    284c:    1c40       adds r0, r0, #1
    284e:    b2c0       uxtb r0, r0
    2850:    2809       cmp r0, #9
    2852:    d3f8       bcc.n 0x2846
    2854:    7a08       ldrb r0, [r1, #8]
    2856:    2500       movs r5, #0
    2858:    f000 00bf  and.w r0, r0, #191    ; 0xbf
    285c:    7208       strb r0, [r1, #8]
    285e:    7f20       ldrb r0, [r4, #28]
    2860:    f000 00bf  and.w r0, r0, #191    ; 0xbf
    2864:    7720       strb r0, [r4, #28]
    2866:    48ef       ldr r0, [pc, #956]    ; (0x2c24)
    2868:    2400       movs r4, #0
    286a:    f810 a005  ldrb.w r10, [r0, r5]
    286e:    48ec       ldr r0, [pc, #944]    ; (0x2c20)
    2870:    4428       add r0, r5
    2872:    9001       str r0, [sp, #4]
    2874:    7d01       ldrb r1, [r0, #20]
    2876:    ea81 0b0a  eor.w r11, r1, r10
    287a:    f898 0026  ldrb.w r0, [r8, #38]    ; 0x26
    287e:    4642       mov r2, r8
    2880:    2801       cmp r0, #1
    2882:    d061       beq.n 0x2948
    2884:    2802       cmp r0, #2
    2886:    d061       beq.n 0x294c
    2888:    48e7       ldr r0, [pc, #924]    ; (0x2c28)
    288a:    ea5f 71cb  movs.w r1, r11, lsl #31
    288e:    eb00 00c5  add.w r0, r0, r5, lsl #3
    2892:    5d00       ldrb r0, [r0, r4]
    2894:    d07d       beq.n 0x2992
    2896:    f892 303d  ldrb.w r3, [r2, #61]    ; 0x3d
    289a:    eb04 01c5  add.w r1, r4, r5, lsl #3
    289e:    4299       cmp r1, r3
    28a0:    d102       bne.n 0x28a8
    28a2:    20e8       movs r0, #232    ; 0xe8
    28a4:    2301       movs r3, #1
    28a6:    9300       str r3, [sp, #0]
    28a8:    f892 303e  ldrb.w r3, [r2, #62]    ; 0x3e
    28ac:    4299       cmp r1, r3
    28ae:    e000       b.n 0x28b2
    28b0:    e1df       b.n 0x2c72
    28b2:    d102       bne.n 0x28ba
    28b4:    20ca       movs r0, #202    ; 0xca
    28b6:    2101       movs r1, #1
    28b8:    9100       str r1, [sp, #0]
    28ba:    7811       ldrb r1, [r2, #0]
    28bc:    290a       cmp r1, #10
    28be:    d001       beq.n 0x28c4
    28c0:    f8c2 905c  str.w r9, [r2, #92]    ; 0x5c
    28c4:    2300       movs r3, #0
    28c6:    75d3       strb r3, [r2, #23]
    28c8:    f892 1032  ldrb.w r1, [r2, #50]    ; 0x32
    28cc:    293f       cmp r1, #63    ; 0x3f
    28ce:    d30f       bcc.n 0x28f0
    28d0:    f898 2000  ldrb.w r2, [r8]
    28d4:    4641       mov r1, r8
    28d6:    2a0a       cmp r2, #10
    28d8:    d00a       beq.n 0x28f0
    28da:    220a       movs r2, #10
    28dc:    700a       strb r2, [r1, #0]
    28de:    4bce       ldr r3, [pc, #824]    ; (0x2c18)
    28e0:    3380       adds r3, #128    ; 0x80
    28e2:    f8c3 9024  str.w r9, [r3, #36]    ; 0x24
    28e6:    f8c1 905c  str.w r9, [r1, #92]    ; 0x5c
    28ea:    2200       movs r2, #0
    28ec:    f888 2032  strb.w r2, [r8, #50]    ; 0x32
    28f0:    ea5f 71ca  movs.w r1, r10, lsl #31
    28f4:    d02c       beq.n 0x2950
    28f6:    f898 1032  ldrb.w r1, [r8, #50]    ; 0x32
    28fa:    293f       cmp r1, #63    ; 0x3f
    28fc:    d30c       bcc.n 0x2918
    28fe:    f898 2000  ldrb.w r2, [r8]
    2902:    4641       mov r1, r8
    2904:    2a0a       cmp r2, #10
    2906:    d007       beq.n 0x2918
    2908:    220a       movs r2, #10
    290a:    700a       strb r2, [r1, #0]
    290c:    4bc2       ldr r3, [pc, #776]    ; (0x2c18)
    290e:    3380       adds r3, #128    ; 0x80
    2910:    f8c3 9024  str.w r9, [r3, #36]    ; 0x24
    2914:    f8c1 905c  str.w r9, [r1, #92]    ; 0x5c
    2918:    4622       mov r2, r4
    291a:    4629       mov r1, r5
    291c:    f003 f8fc  bl 0x5b18
    2920:    4607       mov r7, r0
    2922:    28e8       cmp r0, #232    ; 0xe8
    2924:    d079       beq.n 0x2a1a
    2926:    2fca       cmp r7, #202    ; 0xca
    2928:    d00d       beq.n 0x2946
    292a:    49c0       ldr r1, [pc, #768]    ; (0x2c2c)
    292c:    2000       movs r0, #0
    292e:    f101 022a  add.w r2, r1, #42    ; 0x2a
    2932:    5c0b       ldrb r3, [r1, r0]
    2934:    42ab       cmp r3, r5
    2936:    d102       bne.n 0x293e
    2938:    5c13       ldrb r3, [r2, r0]
    293a:    42a3       cmp r3, r4
    293c:    d06e       beq.n 0x2a1c
    293e:    1c40       adds r0, r0, #1
    2940:    b2c0       uxtb r0, r0
    2942:    282a       cmp r0, #42    ; 0x2a
    2944:    d3f5       bcc.n 0x2932
    2946:    e12c       b.n 0x2ba2
    2948:    48b9       ldr r0, [pc, #740]    ; (0x2c30)
    294a:    e79e       b.n 0x288a
    294c:    48b9       ldr r0, [pc, #740]    ; (0x2c34)
    294e:    e79c       b.n 0x288a
    2950:    4622       mov r2, r4
    2952:    4629       mov r1, r5
    2954:    f003 f91a  bl 0x5b8c
    2958:    4607       mov r7, r0
    295a:    28e8       cmp r0, #232    ; 0xe8
    295c:    d004       beq.n 0x2968
    295e:    f898 0002  ldrb.w r0, [r8, #2]
    2962:    2801       cmp r0, #1
    2964:    d002       beq.n 0x296c
    2966:    e008       b.n 0x297a
    2968:    f888 9002  strb.w r9, [r8, #2]
    296c:    2d08       cmp r5, #8
    296e:    d104       bne.n 0x297a
    2970:    2c07       cmp r4, #7
    2972:    d102       bne.n 0x297a
    2974:    2014       movs r0, #20
    2976:    f888 0000  strb.w r0, [r8]
    297a:    f898 1020  ldrb.w r1, [r8, #32]
    297e:    4640       mov r0, r8
    2980:    2901       cmp r1, #1
    2982:    d109       bne.n 0x2998
    2984:    210a       movs r1, #10
    2986:    7001       strb r1, [r0, #0]
    2988:    4aa3       ldr r2, [pc, #652]    ; (0x2c18)
    298a:    3280       adds r2, #128    ; 0x80
    298c:    f8c2 9024  str.w r9, [r2, #36]    ; 0x24
    2990:    e000       b.n 0x2994
    2992:    e160       b.n 0x2c56
    2994:    f8c0 905c  str.w r9, [r0, #92]    ; 0x5c
    2998:    7800       ldrb r0, [r0, #0]
    299a:    2802       cmp r0, #2
    299c:    d002       beq.n 0x29a4
    299e:    2804       cmp r0, #4
    29a0:    d124       bne.n 0x29ec
    29a2:    e024       b.n 0x29ee
    29a4:    2fe8       cmp r7, #232    ; 0xe8
    29a6:    d021       beq.n 0x29ec
    29a8:    2fca       cmp r7, #202    ; 0xca
    29aa:    d01f       beq.n 0x29ec
    29ac:    2f10       cmp r7, #16
    29ae:    d005       beq.n 0x29bc
    29b0:    2f37       cmp r7, #55    ; 0x37
    29b2:    d003       beq.n 0x29bc
    29b4:    2f36       cmp r7, #54    ; 0x36
    29b6:    d001       beq.n 0x29bc
    29b8:    2f38       cmp r7, #56    ; 0x38
    29ba:    d103       bne.n 0x29c4
    29bc:    f898 0002  ldrb.w r0, [r8, #2]
    29c0:    2801       cmp r0, #1
    29c2:    d013       beq.n 0x29ec
    29c4:    f898 1002  ldrb.w r1, [r8, #2]
    29c8:    f888 1035  strb.w r1, [r8, #53]    ; 0x35
    29cc:    f888 5033  strb.w r5, [r8, #51]    ; 0x33
    29d0:    f888 4034  strb.w r4, [r8, #52]    ; 0x34
    29d4:    2103       movs r1, #3
    29d6:    f888 1000  strb.w r1, [r8]
    29da:    2100       movs r1, #0
    29dc:    4a96       ldr r2, [pc, #600]    ; (0x2c38)
    29de:    f888 1032  strb.w r1, [r8, #50]    ; 0x32
    29e2:    4608       mov r0, r1
    29e4:    5411       strb r1, [r2, r0]
    29e6:    1c40       adds r0, r0, #1
    29e8:    28ff       cmp r0, #255    ; 0xff
    29ea:    d9fb       bls.n 0x29e4
    29ec:    e0a1       b.n 0x2b32
    29ee:    2fe8       cmp r7, #232    ; 0xe8
    29f0:    d059       beq.n 0x2aa6
    29f2:    f898 0032  ldrb.w r0, [r8, #50]    ; 0x32
    29f6:    283f       cmp r0, #63    ; 0x3f
    29f8:    d201       bcs.n 0x29fe
    29fa:    2fca       cmp r7, #202    ; 0xca
    29fc:    d119       bne.n 0x2a32
    29fe:    4641       mov r1, r8
    2a00:    b1a8       cbz r0, 0x2a2e
    2a02:    283f       cmp r0, #63    ; 0x3f
    2a04:    d30b       bcc.n 0x2a1e
    2a06:    200a       movs r0, #10
    2a08:    460a       mov r2, r1
    2a0a:    7008       strb r0, [r1, #0]
    2a0c:    4982       ldr r1, [pc, #520]    ; (0x2c18)
    2a0e:    3180       adds r1, #128    ; 0x80
    2a10:    f8c1 9024  str.w r9, [r1, #36]    ; 0x24
    2a14:    f8c2 905c  str.w r9, [r2, #92]    ; 0x5c
    2a18:    e00b       b.n 0x2a32
    2a1a:    e0a8       b.n 0x2b6e
    2a1c:    e0ab       b.n 0x2b76
    2a1e:    f003 f965  bl 0x5cec
    2a22:    2801       cmp r0, #1
    2a24:    d105       bne.n 0x2a32
    2a26:    2105       movs r1, #5
    2a28:    f888 1000  strb.w r1, [r8]
    2a2c:    e001       b.n 0x2a32
    2a2e:    f881 9000  strb.w r9, [r1]
    2a32:    f898 0002  ldrb.w r0, [r8, #2]
    2a36:    2801       cmp r0, #1
    2a38:    d177       bne.n 0x2b2a
    2a3a:    9800       ldr r0, [sp, #0]
    2a3c:    2801       cmp r0, #1
    2a3e:    d074       beq.n 0x2b2a
    2a40:    2fca       cmp r7, #202    ; 0xca
    2a42:    d01f       beq.n 0x2a84
    2a44:    4979       ldr r1, [pc, #484]    ; (0x2c2c)
    2a46:    2000       movs r0, #0
    2a48:    f101 022a  add.w r2, r1, #42    ; 0x2a
    2a4c:    5c0b       ldrb r3, [r1, r0]
    2a4e:    42ab       cmp r3, r5
    2a50:    d102       bne.n 0x2a58
    2a52:    5c13       ldrb r3, [r2, r0]
    2a54:    42a3       cmp r3, r4
    2a56:    d004       beq.n 0x2a62
    2a58:    1c40       adds r0, r0, #1
    2a5a:    b2c0       uxtb r0, r0
    2a5c:    282a       cmp r0, #42    ; 0x2a
    2a5e:    d3f5       bcc.n 0x2a4c
    2a60:    e010       b.n 0x2a84
    2a62:    282a       cmp r0, #42    ; 0x2a
    2a64:    d20e       bcs.n 0x2a84
    2a66:    2201       movs r2, #1
    2a68:    f000 011f  and.w r1, r0, #31
    2a6c:    408a       lsls r2, r1
    2a6e:    4f6a       ldr r7, [pc, #424]    ; (0x2c18)
    2a70:    0941       lsrs r1, r0, #5
    2a72:    37f8       adds r7, #248    ; 0xf8
    2a74:    f857 3021  ldr.w r3, [r7, r1, lsl #2]
    2a78:    4313       orrs r3, r2
    2a7a:    f847 3021  str.w r3, [r7, r1, lsl #2]
    2a7e:    496b       ldr r1, [pc, #428]    ; (0x2c2c)
    2a80:    3154       adds r1, #84    ; 0x54
    2a82:    5c0f       ldrb r7, [r1, r0]
    2a84:    2fc4       cmp r7, #196    ; 0xc4
    2a86:    d00f       beq.n 0x2aa8
    2a88:    dc06       bgt.n 0x2a98
    2a8a:    2f05       cmp r7, #5
    2a8c:    d025       beq.n 0x2ada
    2a8e:    2f0a       cmp r7, #10
    2a90:    d01e       beq.n 0x2ad0
    2a92:    2f17       cmp r7, #23
    2a94:    d104       bne.n 0x2aa0
    2a96:    e016       b.n 0x2ac6
    2a98:    2fc5       cmp r7, #197    ; 0xc5
    2a9a:    d00b       beq.n 0x2ab4
    2a9c:    2fc6       cmp r7, #198    ; 0xc6
    2a9e:    d006       beq.n 0x2aae
    2aa0:    f898 0001  ldrb.w r0, [r8, #1]
    2aa4:    b140       cbz r0, 0x2ab8
    2aa6:    e044       b.n 0x2b32
    2aa8:    f002 f9f6  bl 0x4e98
    2aac:    e004       b.n 0x2ab8
    2aae:    f002 f9cf  bl 0x4e50
    2ab2:    e001       b.n 0x2ab8
    2ab4:    f002 fa06  bl 0x4ec4
    2ab8:    2601       movs r6, #1
    2aba:    2006       movs r0, #6
    2abc:    f8c8 0060  str.w r0, [r8, #96]    ; 0x60
    2ac0:    f8c8 0064  str.w r0, [r8, #100]    ; 0x64
    2ac4:    e03c       b.n 0x2b40
    2ac6:    f8d8 1064  ldr.w r1, [r8, #100]    ; 0x64
    2aca:    4640       mov r0, r8
    2acc:    311e       adds r1, #30
    2ace:    e009       b.n 0x2ae4
    2ad0:    f8d8 1064  ldr.w r1, [r8, #100]    ; 0x64
    2ad4:    4640       mov r0, r8
    2ad6:    31c8       adds r1, #200    ; 0xc8
    2ad8:    e004       b.n 0x2ae4
    2ada:    f8d8 1064  ldr.w r1, [r8, #100]    ; 0x64
    2ade:    4640       mov r0, r8
    2ae0:    f501 717a  add.w r1, r1, #1000    ; 0x3e8
    2ae4:    6641       str r1, [r0, #100]    ; 0x64
    2ae6:    f8d8 0064  ldr.w r0, [r8, #100]    ; 0x64
    2aea:    f64f 0130  movw r1, #63536    ; 0xf830
    2aee:    4288       cmp r0, r1
    2af0:    d21f       bcs.n 0x2b32
    2af2:    f898 0032  ldrb.w r0, [r8, #50]    ; 0x32
    2af6:    b158       cbz r0, 0x2b10
    2af8:    f8d8 1064  ldr.w r1, [r8, #100]    ; 0x64
    2afc:    0a0a       lsrs r2, r1, #8
    2afe:    494e       ldr r1, [pc, #312]    ; (0x2c38)
    2b00:    eb01 0080  add.w r0, r1, r0, lsl #2
    2b04:    f800 2d02  strb.w r2, [r0, #-2]!
    2b08:    f8d8 1064  ldr.w r1, [r8, #100]    ; 0x64
    2b0c:    7041       strb r1, [r0, #1]
    2b0e:    e007       b.n 0x2b20
    2b10:    f8d8 0064  ldr.w r0, [r8, #100]    ; 0x64
    2b14:    f8c8 0060  str.w r0, [r8, #96]    ; 0x60
    2b18:    2100       movs r1, #0
    2b1a:    4608       mov r0, r1
    2b1c:    f002 fdf8  bl 0x5710
    2b20:    2602       movs r6, #2
    2b22:    f888 9001  strb.w r9, [r8, #1]
    2b26:    e08f       b.n 0x2c48
    2b28:    e7ff       b.n 0x2b2a
    2b2a:    f898 1001  ldrb.w r1, [r8, #1]
    2b2e:    4640       mov r0, r8
    2b30:    b111       cbz r1, 0x2b38
    2b32:    2e01       cmp r6, #1
    2b34:    d004       beq.n 0x2b40
    2b36:    e087       b.n 0x2c48
    2b38:    2601       movs r6, #1
    2b3a:    2106       movs r1, #6
    2b3c:    6601       str r1, [r0, #96]    ; 0x60
    2b3e:    6641       str r1, [r0, #100]    ; 0x64
    2b40:    f898 0000  ldrb.w r0, [r8]
    2b44:    2804       cmp r0, #4
    2b46:    d17f       bne.n 0x2c48
    2b48:    2101       movs r1, #1
    2b4a:    4638       mov r0, r7
    2b4c:    f7fd fb86  bl 0x25c
    2b50:    4638       mov r0, r7
    2b52:    f7fe f845  bl 0xbe0
    2b56:    2801       cmp r0, #1
    2b58:    d103       bne.n 0x2b62
    2b5a:    492f       ldr r1, [pc, #188]    ; (0x2c18)
    2b5c:    3180       adds r1, #128    ; 0x80
    2b5e:    f8c1 9010  str.w r9, [r1, #16]
    2b62:    2101       movs r1, #1
    2b64:    4638       mov r0, r7
    2b66:    f002 fdd3  bl 0x5710
    2b6a:    2600       movs r6, #0
    2b6c:    e06c       b.n 0x2c48
    2b6e:    2000       movs r0, #0
    2b70:    f888 0002  strb.w r0, [r8, #2]
    2b74:    e6d9       b.n 0x292a
    2b76:    282a       cmp r0, #42    ; 0x2a
    2b78:    d213       bcs.n 0x2ba2
    2b7a:    f8df c09c  ldr.w r12, [r15, #156]    ; 0x2c18
    2b7e:    ea4f 1e50  mov.w r14, r0, lsr #5
    2b82:    f10c 0cf8  add.w r12, r12, #248    ; 0xf8
    2b86:    f000 031f  and.w r3, r0, #31
    2b8a:    f85c 102e  ldr.w r1, [r12, r14, lsl #2]
    2b8e:    fa09 f203  lsl.w r2, r9, r3
    2b92:    4211       tst r1, r2
    2b94:    d005       beq.n 0x2ba2
    2b96:    4b25       ldr r3, [pc, #148]    ; (0x2c2c)
    2b98:    337e       adds r3, #126    ; 0x7e
    2b9a:    4391       bics r1, r2
    2b9c:    5c1f       ldrb r7, [r3, r0]
    2b9e:    f84c 102e  str.w r1, [r12, r14, lsl #2]
    2ba2:    f898 0001  ldrb.w r0, [r8, #1]
    2ba6:    bb10       cbnz r0, 0x2bee
    2ba8:    4638       mov r0, r7
    2baa:    f7ff f807  bl 0x1bbc
    2bae:    491a       ldr r1, [pc, #104]    ; (0x2c18)
    2bb0:    4638       mov r0, r7
    2bb2:    3180       adds r1, #128    ; 0x80
    2bb4:    f8c1 9010  str.w r9, [r1, #16]
    2bb8:    2100       movs r1, #0
    2bba:    f7fd fb4f  bl 0x25c
    2bbe:    f898 0000  ldrb.w r0, [r8]
    2bc2:    2801       cmp r0, #1
    2bc4:    d004       beq.n 0x2bd0
    2bc6:    2803       cmp r0, #3
    2bc8:    d00a       beq.n 0x2be0
    2bca:    2804       cmp r0, #4
    2bcc:    d11e       bne.n 0x2c0c
    2bce:    e00f       b.n 0x2bf0
    2bd0:    f003 f874  bl 0x5cbc
    2bd4:    2801       cmp r0, #1
    2bd6:    d119       bne.n 0x2c0c
    2bd8:    2002       movs r0, #2
    2bda:    f888 0000  strb.w r0, [r8]
    2bde:    e015       b.n 0x2c0c
    2be0:    f003 f86c  bl 0x5cbc
    2be4:    2801       cmp r0, #1
    2be6:    d111       bne.n 0x2c0c
    2be8:    2104       movs r1, #4
    2bea:    f888 1000  strb.w r1, [r8]
    2bee:    e00d       b.n 0x2c0c
    2bf0:    2fe8       cmp r7, #232    ; 0xe8
    2bf2:    d00b       beq.n 0x2c0c
    2bf4:    2fca       cmp r7, #202    ; 0xca
    2bf6:    d009       beq.n 0x2c0c
    2bf8:    f898 1032  ldrb.w r1, [r8, #50]    ; 0x32
    2bfc:    b131       cbz r1, 0x2c0c
    2bfe:    f898 0001  ldrb.w r0, [r8, #1]
    2c02:    b918       cbnz r0, 0x2c0c
    2c04:    2100       movs r1, #0
    2c06:    4638       mov r0, r7
    2c08:    f002 fd82  bl 0x5710
    2c0c:    f898 0001  ldrb.w r0, [r8, #1]
    2c10:    4647       mov r7, r8
    2c12:    2801       cmp r0, #1
    2c14:    d118       bne.n 0x2c48
    2c16:    e011       b.n 0x2c3c
    2c18:    0058       lsls r0, r3, #1
    2c1a:    2000       movs r0, #0
    2c1c:    2e2c       cmp r6, #44    ; 0x2c
    2c1e:    2000       movs r0, #0
    2c20:    2de4       cmp r5, #228    ; 0xe4
    2c22:    2000       movs r0, #0
    2c24:    090c       lsrs r4, r1, #4
    2c26:    2000       movs r0, #0
    2c28:    8ec8       ldrh r0, [r1, #54]    ; 0x36
    2c2a:    0000       movs r0, r0
    2c2c:    8c36       ldrh r6, [r6, #32]
    2c2e:    0000       movs r0, r0
    2c30:    8f10       ldrh r0, [r2, #56]    ; 0x38
    2c32:    0000       movs r0, r0
    2c34:    8f58       ldrh r0, [r3, #58]    ; 0x3a
    2c36:    0000       movs r0, r0
    2c38:    080c       lsrs r4, r1, #32
    2c3a:    2000       movs r0, #0
    2c3c:    f003 f83e  bl 0x5cbc
    2c40:    2801       cmp r0, #1
    2c42:    d101       bne.n 0x2c48
    2c44:    2000       movs r0, #0
    2c46:    7078       strb r0, [r7, #1]
    2c48:    9801       ldr r0, [sp, #4]
    2c4a:    7d01       ldrb r1, [r0, #20]
    2c4c:    fa09 f004  lsl.w r0, r9, r4
    2c50:    4041       eors r1, r0
    2c52:    9801       ldr r0, [sp, #4]
    2c54:    7501       strb r1, [r0, #20]
    2c56:    1c64       adds r4, r4, #1
    2c58:    b2e4       uxtb r4, r4
    2c5a:    ea4f 0b5b  mov.w r11, r11, lsr #1
    2c5e:    ea4f 0a5a  mov.w r10, r10, lsr #1
    2c62:    2c08       cmp r4, #8
    2c64:    f4ff ae09  bcc.w 0x287a
    2c68:    1c6d       adds r5, r5, #1
    2c6a:    b2ed       uxtb r5, r5
    2c6c:    2d09       cmp r5, #9
    2c6e:    f4ff adfa  bcc.w 0x2866
    2c72:    f898 0000  ldrb.w r0, [r8]
    2c76:    4644       mov r4, r8
    2c78:    2805       cmp r0, #5
    2c7a:    d159       bne.n 0x2d30
    2c7c:    f003 f81e  bl 0x5cbc
    2c80:    2801       cmp r0, #1
    2c82:    d155       bne.n 0x2d30
    2c84:    f894 2035  ldrb.w r2, [r4, #53]        ; 0x35
    2c88:    4935       ldr r1, [pc, #212]          ; (0x2d60)
    2c8a:    b112       cbz r2, 0x2c92
    2c8c:    2a01       cmp r2, #1
    2c8e:    d00e       beq.n 0x2cae
    2c90:    e01b       b.n 0x2cca
    2c92:    2002       movs r0, #2
    2c94:    7008       strb r0, [r1, #0]
    2c96:    f894 0032  ldrb.w r0, [r4, #50]        ; 0x32
    2c9a:    2802       cmp r0, #2
    2c9c:    d115       bne.n 0x2cca
    2c9e:    4831       ldr r0, [pc, #196]            ; (0x2d64)
    2ca0:    7983       ldrb r3, [r0, #6]
    2ca2:    b993       cbnz r3, 0x2cca
    2ca4:    79c0       ldrb r0, [r0, #7]
    2ca6:    2806       cmp r0, #6
    2ca8:    d10f       bne.n 0x2cca
    2caa:    2012       movs r0, #18
    2cac:    e00c       b.n 0x2cc8
    2cae:    2003       movs r0, #3
    2cb0:    7008       strb r0, [r1, #0]
    2cb2:    f894 0032  ldrb.w r0, [r4, #50]        ; 0x32
    2cb6:    2802       cmp r0, #2
    2cb8:    d107       bne.n 0x2cca
    2cba:    482a       ldr r0, [pc, #168]            ; (0x2d64)
    2cbc:    7983       ldrb r3, [r0, #6]
    2cbe:    b923       cbnz r3, 0x2cca
    2cc0:    79c0       ldrb r0, [r0, #7]
    2cc2:    2806       cmp r0, #6
    2cc4:    d101       bne.n 0x2cca
    2cc6:    2013       movs r0, #19
    2cc8:    7008       strb r0, [r1, #0]
    2cca:    4b26       ldr r3, [pc, #152]            ; (0x2d64)
    2ccc:    2000       movs r0, #0
    2cce:    180e       adds r6, r1, r0
    2cd0:    5c1d       ldrb r5, [r3, r0]
    2cd2:    1c40       adds r0, r0, #1
    2cd4:    7075       strb r5, [r6, #1]
    2cd6:    28ff       cmp r0, #255    ; 0xff
    2cd8:    d9f9       bls.n 0x2cce
    2cda:    f104 0418  add.w r4, r4, #24
    2cde:    4922       ldr r1, [pc, #136]            ; (0x2d68)
    2ce0:    7ba0       ldrb r0, [r4, #14]
    2ce2:    eb00 0040  add.w r0, r0, r0, lsl #1
    2ce6:    eb01 1000  add.w r0, r1, r0, lsl #4
    2cea:    7821       ldrb r1, [r4, #0]
    2cec:    eb00 1001  add.w r0, r0, r1, lsl #4
    2cf0:    b392       cbz r2, 0x2d58
    2cf2:    f1a0 000c  sub.w r0, r0, #12

  0x2cf6:    7f22       ldrb r2, [r4, #28]
    2cf8:    7ee3       ldrb r3, [r4, #27]
    2cfa:    6881       ldr r1, [r0, #8]
    2cfc:    eb02 02c3  add.w r2, r2, r3, lsl #3
    2d00:    6800       ldr r0, [r0, #0]
    2d02:    eb01 2502  add.w r5, r1, r2, lsl #8
    2d06:    4410       add r0, r2
    2d08:    f1a4 0418  sub.w r4, r4, #24
    2d0c:    f04f 0200  mov.w r2, #0
    2d10:    4601       mov r1, r0
    2d12:    f003 f80f  bl 0x5d34                   ; call function_11
    2d16:    2201       movs r2, #1
    2d18:    f105 01ff  add.w r1, r5, #255          ; 0xff
    2d1c:    4628       mov r0, r5
    2d1e:    f003 f809  bl 0x5d34                   ; call function_11
    2d22:    f001 ff2d  bl 0x4b80                   ; call function_16
    2d26:    f884 9000  strb.w r9, [r4]
    2d2a:    2000       movs r0, #0
    2d2c:    f884 0032  strb.w r0, [r4, #50]        ; 0x32
    2d30:    f002 ffc4  bl 0x5cbc
    2d34:    2801       cmp r0, #1
    2d36:    d10d       bne.n 0x2d54
    2d38:    7820       ldrb r0, [r4, #0]
    2d3a:    2814       cmp r0, #20
    2d3c:    d10a       bne.n 0x2d54
    2d3e:    2500       movs r5, #0
    2d40:    75a5       strb r5, [r4, #22]
    2d42:    f001 ff1d  bl 0x4b80                   ; call function_16
    2d46:    65e5       str r5, [r4, #92]            ; 0x5c
    2d48:    7025       strb r5, [r4, #0]
    2d4a:    4808       ldr r0, [pc, #32]            ; (0x2d6c)
    2d4c:    6245       str r5, [r0, #36]            ; 0x24
    2d4e:    3078       adds r0, #120                ; 0x78
    2d50:    6005       str r5, [r0, #0]
    2d52:    6045       str r5, [r0, #4]

entry:                                              ; Entry point from reset value
  0x2d54:    e8bd 9ffc  ldmia.w r13!, {r2, r3, r4, r5, r6, r7, r8, r9, r10, r11, r12, r15}  ; load r2-r15 from the stack
    2d58:    e7ff       b.n 0x2d5a                  ; branch to 0x2d5a
  0x2d5a:    f1a0 0010  sub.w r0, r0, #16
    2d5e:    e7ca       b.n 0x2cf6                  ; branch to 0x2cf6

    2d60:    1cba       adds r2, r7, #2
    2d62:    2000       movs r0, #0
    2d64:    080c       lsrs r4, r1, #32
    2d66:    2000       movs r0, #0
    2d68:    8d50       ldrh r0, [r2, #42]        ; 0x2a
    2d6a:    0000       movs r0, r0
  0x2d6c:    00d8       lsls r0, r3, #3
    2d6e:    2000       movs r0, #0
    2d70:    b508       push {r3, r14}

exception:                                          ; Various exception handlers
  0x2d72:    490e       ldr r1, [pc, #56]           ; (0x2dac)
    2d74:    4a0e       ldr r2, [pc, #56]           ; (0x2db0)
    2d76:    2806       cmp r0, #6
    2d78:    d216       bcs.n 0x2da8
    2d7a:    e8df f000  tbb [r15, r0]
    2d7e:    0303       lsls r3, r0, #12
    2d80:    0703       lsls r3, r0, #28
    2d82:    120a       asrs r2, r1, #8
    2d84:    4a0b       ldr r2, [pc, #44]           ; (0x2db4)
    2d86:    7010       strb r0, [r2, #0]
    2d88:    2000       movs r0, #0
    2d8a:    e000       b.n 0x2d8e                  ; branch to 0x2d8e
    2d8c:    2001       movs r0, #1
  0x2d8e:    7008       strb r0, [r1, #0]
    2d90:    e00a       b.n 0x2da8                  ; branch to 0x2da8
    2d92:    7810       ldrb r0, [r2, #0]
    2d94:    9000       str r0, [sp, #0]
    2d96:    2240       movs r2, #64                ; 0x40
    2d98:    4669       mov r1, r13
    2d9a:    2003       movs r0, #3
    2d9c:    f001 fad2  bl 0x4344                   ; call function_1
    2da0:    e002       b.n 0x2da8
    2da2:    4805       ldr r0, [pc, #20]           ; (0x2db8)
    2da4:    7b00       ldrb r0, [r0, #12]
    2da6:    7010       strb r0, [r2, #0]
  0x2da8:    204f       movs r0, #79                ; 0x4f
    2daa:    bd08       pop {r3, r15}
  0x2dac:    01ce       lsls r6, r1, #7
    2dae:    2000       movs r0, #0
  0x2db0:    01d4       lsls r4, r2, #7
    2db2:    2000       movs r0, #0
  0x2db4:    01cd       lsls r5, r1, #7
    2db6:    2000       movs r0, #0
  0x2db8:    07cc       lsls r4, r1, #31
    2dba:    2000       movs r0, #0
    2dbc:    e92d 4ff0  stmdb r13!, {r4, r5, r6, r7, r8, r9, r10, r11, r14} ; store r4-r14 on the stack
    2dc0:    b089       sub sp, #36    ; 0x24
    2dc2:    f000 f8fd  bl 0x2fc0                   ; call function_10
    2dc6:    4879       ldr r0, [pc, #484]          ; (0x2fac)
    2dc8:    7800       ldrb r0, [r0, #0]
    2dca:    2801       cmp r0, #1
    2dcc:    d17d       bne.n 0x2eca
    2dce:    2101       movs r1, #1
    2dd0:    f240 3003  movw r0, #771               ; 0x303
    2dd4:    f7fd fd3e  bl 0x854
    2dd8:    a804       add r0, sp, #16
    2dda:    f7fd fe2c  bl 0xa36
    2dde:    f240 19c1  movw r9, #449               ; 0x1c1
    2de2:    f8ad 9010  strh.w r9, [r13, #16]
    2de6:    a904       add r1, sp, #16
    2de8:    4871       ldr r0, [pc, #452]          ; (0x2fb0)
    2dea:    f7fd fe0f  bl 0xa0c
    2dee:    4668       mov r0, r13
    2df0:    f7fd fe04  bl 0x9fc
    2df4:    2501       movs r5, #1
    2df6:    2400       movs r4, #0
    2df8:    f88d 5008  strb.w r5, [r13, #8]
    2dfc:    2606       movs r6, #6
    2dfe:    f8ad 400a  strh.w r4, [r13, #10]
    2e02:    f88d 4000  strb.w r4, [r13]
    2e06:    4669       mov r1, r13
    2e08:    4869       ldr r0, [pc, #420]          ; (0x2fb0)
    2e0a:    9601       str r6, [sp, #4]
    2e0c:    f7fd fdcb  bl 0x9a6
    2e10:    f88d 5000  strb.w r5, [r13]
    2e14:    4669       mov r1, r13
    2e16:    4866       ldr r0, [pc, #408]          ; (0x2fb0)
    2e18:    9601       str r6, [sp, #4]
    2e1a:    f7fd fdc4  bl 0x9a6
    2e1e:    f04f 0802  mov.w r8, #2
    2e22:    f88d 8000  strb.w r8, [r13]
    2e26:    4669       mov r1, r13
    2e28:    4861       ldr r0, [pc, #388]          ; (0x2fb0)
    2e2a:    9601       str r6, [sp, #4]
    2e2c:    f7fd fdbb  bl 0x9a6
    2e30:    f04f 0a03  mov.w r10, #3
    2e34:    f88d a000  strb.w r10, [r13]
    2e38:    4669       mov r1, r13
    2e3a:    485d       ldr r0, [pc, #372]          ; (0x2fb0)
    2e3c:    9601       str r6, [sp, #4]
    2e3e:    f7fd fdb2  bl 0x9a6
    2e42:    485b       ldr r0, [pc, #364]          ; (0x2fb0)
    2e44:    67c4       str r4, [r0, #124]          ; 0x7c
    2e46:    a804       add r0, sp, #16
    2e48:    f7fd fdf5  bl 0xa36
    2e4c:    f8ad 9010  strh.w r9, [r13, #16]
    2e50:    a904       add r1, sp, #16
    2e52:    4858       ldr r0, [pc, #352]          ; (0x2fb4)
    2e54:    f7fd fdda  bl 0xa0c
    2e58:    4668       mov r0, r13
    2e5a:    f7fd fdcf  bl 0x9fc
    2e5e:    f88d 5008  strb.w r5, [r13, #8]
    2e62:    f8ad 400a  strh.w r4, [r13, #10]
    2e66:    f88d 4000  strb.w r4, [r13]
    2e6a:    4669       mov r1, r13
    2e6c:    4851       ldr r0, [pc, #324]          ; (0x2fb4)
    2e6e:    9601       str r6, [sp, #4]
    2e70:    f7fd fd99  bl 0x9a6
    2e74:    f88d 5000  strb.w r5, [r13]
    2e78:    4669       mov r1, r13
    2e7a:    484e       ldr r0, [pc, #312]          ; (0x2fb4)
    2e7c:    9601       str r6, [sp, #4]
    2e7e:    f7fd fd92  bl 0x9a6
    2e82:    f88d 8000  strb.w r8, [r13]
    2e86:    4669       mov r1, r13
    2e88:    484a       ldr r0, [pc, #296]          ; (0x2fb4)
    2e8a:    9601       str r6, [sp, #4]
    2e8c:    f7fd fd8b  bl 0x9a6
    2e90:    2707       movs r7, #7
    2e92:    f88d a000  strb.w r10, [r13]
    2e96:    4669       mov r1, r13
    2e98:    4846       ldr r0, [pc, #280]          ; (0x2fb4)
    2e9a:    9701       str r7, [sp, #4]
    2e9c:    f7fd fd83  bl 0x9a6
    2ea0:    4844       ldr r0, [pc, #272]          ; (0x2fb4)
    2ea2:    67c4       str r4, [r0, #124]          ; 0x7c
    2ea4:    a805       add r0, sp, #20
    2ea6:    f7ff f93e  bl 0x2126
    2eaa:    f8df b10c  ldr.w r11, [r15, #268]      ; 0x2fb8
    2eae:    f8ad 9014  strh.w r9, [r13, #20]
    2eb2:    a905       add r1, sp, #20
    2eb4:    4658       mov r0, r11
    2eb6:    f7ff f91e  bl 0x20f6
    2eba:    4668       mov r0, r13
    2ebc:    f7ff f90f  bl 0x20de
    2ec0:    f88d 5008  strb.w r5, [r13, #8]
    2ec4:    f8ad 400e  strh.w r4, [r13, #14]
    2ec8:    e000       b.n 0x2ecc
    2eca:    e06a       b.n 0x2fa2
    2ecc:    f88d 4000  strb.w r4, [r13]
    2ed0:    4669       mov r1, r13
    2ed2:    4658       mov r0, r11
    2ed4:    9701       str r7, [sp, #4]
    2ed6:    f7ff f8c9  bl 0x206c
    2eda:    f88d 5000  strb.w r5, [r13]
    2ede:    4669       mov r1, r13
    2ee0:    4658       mov r0, r11
    2ee2:    9701       str r7, [sp, #4]
    2ee4:    f7ff f8c2  bl 0x206c
    2ee8:    f88d 8000  strb.w r8, [r13]
    2eec:    4669       mov r1, r13
    2eee:    4658       mov r0, r11
    2ef0:    9701       str r7, [sp, #4]
    2ef2:    f7ff f8bb  bl 0x206c
    2ef6:    f88d a000  strb.w r10, [r13]
    2efa:    4669       mov r1, r13
    2efc:    4658       mov r0, r11
    2efe:    9701       str r7, [sp, #4]
    2f00:    f7ff f8b4  bl 0x206c
    2f04:    4658       mov r0, r11
    2f06:    f8cb 407c  str.w r4, [r11, #124]       ; 0x7c
    2f0a:    2101       movs r1, #1
    2f0c:    f7ff f89a  bl 0x2044
    2f10:    a805       add r0, sp, #20
    2f12:    f7ff f908  bl 0x2126
    2f16:    f8ad 9014  strh.w r9, [r13, #20]
    2f1a:    f8df 90a0  ldr.w r9, [r15, #160]       ; 0x2fbc
    2f1e:    a905       add r1, sp, #20
    2f20:    4648       mov r0, r9
    2f22:    f7ff f8e8  bl 0x20f6
    2f26:    4668       mov r0, r13
    2f28:    f7ff f8d9  bl 0x20de
    2f2c:    f88d 5008  strb.w r5, [r13, #8]
    2f30:    f8ad 400e  strh.w r4, [r13, #14]
    2f34:    f88d 4000  strb.w r4, [r13]
    2f38:    4669       mov r1, r13
    2f3a:    4648       mov r0, r9
    2f3c:    9601       str r6, [sp, #4]
    2f3e:    f7ff f895  bl 0x206c
    2f42:    f88d 5000  strb.w r5, [r13]
    2f46:    4669       mov r1, r13
    2f48:    4648       mov r0, r9
    2f4a:    9701       str r7, [sp, #4]
    2f4c:    f7ff f88e  bl 0x206c
    2f50:    f88d 8000  strb.w r8, [r13]
    2f54:    4669       mov r1, r13
    2f56:    4648       mov r0, r9
    2f58:    9701       str r7, [sp, #4]
    2f5a:    f7ff f887  bl 0x206c
    2f5e:    f88d a000  strb.w r10, [r13]
    2f62:    4669       mov r1, r13
    2f64:    4648       mov r0, r9
    2f66:    9701       str r7, [sp, #4]
    2f68:    f7ff f880  bl 0x206c
    2f6c:    4648       mov r0, r9
    2f6e:    f8c9 407c  str.w r4, [r9, #124]        ; 0x7c
    2f72:    2101       movs r1, #1
    2f74:    f7ff f866  bl 0x2044
    2f78:    2101       movs r1, #1
    2f7a:    480d       ldr r0, [pc, #52]           ; (0x2fb0)
    2f7c:    f7fd fd09  bl 0x992
    2f80:    2101       movs r1, #1
    2f82:    480c       ldr r0, [pc, #48]           ; (0x2fb4)
    2f84:    f7fd fd05  bl 0x992
    2f88:    2101       movs r1, #1
    2f8a:    4658       mov r0, r11
    2f8c:    f7ff f864  bl 0x2058
    2f90:    2101       movs r1, #1
    2f92:    4648       mov r0, r9
    2f94:    f7ff f860  bl 0x2058
    2f98:    f000 f886  bl 0x30a8
    2f9c:    4903       ldr r1, [pc, #12]           ; (0x2fac)
    2f9e:    f881 8000  strb.w r8, [r1]
    2fa2:    b009       add sp, #36                 ; 0x24
    2fa4:    2001       movs r0, #1
    2fa6:    e8bd 8ff0  ldmia.w r13!, {r4, r5, r6, r7, r8, r9, r10, r11, r15}
    2faa:    0000       movs r0, r0
  0x2fac:    021d       lsls r5, r3, #8
    2fae:    2000       movs r0, #0
  0x2fb0:    e000       b.n 0x2fb4
    2fb2:    4006       ands r6, r0
  0x2fb4:    f000 4006  and.w r0, r0, #2248146944   ; 0x86000000
    2fb8:    c000       stmia r0!, {}
    2fba:    4002       ands r2, r0
    2fbc:    d000       beq.n 0x2fc0
    2fbe:    4002       ands r2, r0

function_10:
  0x2fc0:    e92d 41f0  stmdb r13!, {r4, r5, r6, r7, r8, r14}
    2fc4:    4c31       ldr r4, [pc, #196]          ; (0x308c)
    2fc6:    7820       ldrb r0, [r4, #0]
    2fc8:    bbf0       cbnz r0, 0x3048
    2fca:    2101       movs r1, #1
    2fcc:    f44f 20e0  mov.w r0, #458752           ; 0x70000
    2fd0:    f7fd fc28  bl 0x824
    2fd4:    4d2e       ldr r5, [pc, #184]          ; (0x3090)
    2fd6:    2201       movs r2, #1
    2fd8:    0251       lsls r1, r2, #9
    2fda:    4628       mov r0, r5
    2fdc:    f7fd fca6  bl 0x92c
    2fe0:    2201       movs r2, #1
    2fe2:    0296       lsls r6, r2, #10
    2fe4:    4631       mov r1, r6
    2fe6:    4628       mov r0, r5
    2fe8:    f7fd fca0  bl 0x92c
    2fec:    2201       movs r2, #1
    2fee:    02d1       lsls r1, r2, #11
    2ff0:    4628       mov r0, r5
    2ff2:    f7fd fc9b  bl 0x92c
    2ff6:    4f27       ldr r7, [pc, #156]          ; (0x3094)
    2ff8:    2201       movs r2, #1
    2ffa:    2180       movs r1, #128               ; 0x80
    2ffc:    4638       mov r0, r7
    2ffe:    f7fd fc95  bl 0x92c
    3002:    2201       movs r2, #1
    3004:    4611       mov r1, r2
    3006:    4638       mov r0, r7
    3008:    f7fd fc90  bl 0x92c
    300c:    2201       movs r2, #1
    300e:    2102       movs r1, #2
    3010:    4638       mov r0, r7
    3012:    f7fd fc8b  bl 0x92c
    3016:    2201       movs r2, #1
    3018:    2104       movs r1, #4
    301a:    4638       mov r0, r7
    301c:    f7fd fc86  bl 0x92c
    3020:    2201       movs r2, #1
    3022:    2108       movs r1, #8
    3024:    4628       mov r0, r5
    3026:    f7fd fc91  bl 0x94c
    302a:    2201       movs r2, #1
    302c:    0391       lsls r1, r2, #14
    302e:    4638       mov r0, r7
    3030:    f7fd fc8c  bl 0x94c
    3034:    f8df 8060  ldr.w r8, [r15, #96]        ; 0x3098
    3038:    2201       movs r2, #1
    303a:    4611       mov r1, r2
    303c:    4640       mov r0, r8
    303e:    f7fd fc85  bl 0x94c
    3042:    2201       movs r2, #1
    3044:    2104       movs r1, #4
    3046:    e000       b.n 0x304a
    3048:    e01d       b.n 0x3086
    304a:    4640       mov r0, r8
    304c:    f7fd fc7e  bl 0x94c
    3050:    2201       movs r2, #1
    3052:    2180       movs r1, #128               ; 0x80
    3054:    4628       mov r0, r5
    3056:    f7fd fc79  bl 0x94c
    305a:    2201       movs r2, #1
    305c:    2140       movs r1, #64                ; 0x40
    305e:    4640       mov r0, r8
    3060:    f7fd fc64  bl 0x92c
    3064:    2201       movs r2, #1
    3066:    4631       mov r1, r6
    3068:    4638       mov r0, r7
    306a:    f7fd fc6f  bl 0x94c
    306e:    2201       movs r2, #1
    3070:    2110       movs r1, #16
    3072:    4628       mov r0, r5
    3074:    f7fd fc6a  bl 0x94c
    3078:    2201       movs r2, #1
    307a:    2140       movs r1, #64                ; 0x40
    307c:    4628       mov r0, r5
    307e:    f7fd fc65  bl 0x94c
    3082:    2001       movs r0, #1
    3084:    7020       strb r0, [r4, #0]
    3086:    2001       movs r0, #1
    3088:    e8bd 81f0  ldmia.w r13!, {r4, r5, r6, r7, r8, r15}
    308c:    021d       lsls r5, r3, #8
    308e:    2000       movs r0, #0
  0x3090:    4000       ands r0, r0
    3092:    400b       ands r3, r1
  0x3094:    0000       movs r0, r0
    3096:    400b       ands r3, r1
    3098:    2000       movs r0, #0
    309a:    400b       ands r3, r1
    309c:    b108       cbz r0, 0x30a2
    309e:    f000 b887  b.w 0x31b0
    30a2:    f000 b801  b.w 0x30a8
    30a6:    0000       movs r0, r0
    30a8:    b510       push {r4, r14}
    30aa:    4c3e       ldr r4, [pc, #248]          ; (0x31a4)
    30ac:    2202       movs r2, #2
    30ae:    0211       lsls r1, r2, #8
    30b0:    4620       mov r0, r4
    30b2:    f7fd fc53  bl 0x95c
    30b6:    2204       movs r2, #4
    30b8:    2109       movs r1, #9
    30ba:    2002       movs r0, #2
    30bc:    f7fd faf2  bl 0x6a4
    30c0:    2202       movs r2, #2
    30c2:    0251       lsls r1, r2, #9
    30c4:    4620       mov r0, r4
    30c6:    f7fd fc49  bl 0x95c
    30ca:    2204       movs r2, #4
    30cc:    210a       movs r1, #10
    30ce:    2002       movs r0, #2
    30d0:    f7fd fae8  bl 0x6a4
    30d4:    2202       movs r2, #2
    30d6:    0291       lsls r1, r2, #10
    30d8:    4620       mov r0, r4
    30da:    f7fd fc3f  bl 0x95c
    30de:    2204       movs r2, #4
    30e0:    210b       movs r1, #11
    30e2:    2002       movs r0, #2
    30e4:    f7fd fade  bl 0x6a4
    30e8:    4c2f       ldr r4, [pc, #188]          ; (0x31a8)
    30ea:    2202       movs r2, #2
    30ec:    2180       movs r1, #128               ; 0x80
    30ee:    4620       mov r0, r4
    30f0:    f7fd fc34  bl 0x95c
    30f4:    2204       movs r2, #4
    30f6:    2107       movs r1, #7
    30f8:    2000       movs r0, #0
    30fa:    f7fd fad3  bl 0x6a4
    30fe:    2202       movs r2, #2
    3100:    2101       movs r1, #1
    3102:    4620       mov r0, r4
    3104:    f7fd fc2a  bl 0x95c
    3108:    2100       movs r1, #0
    310a:    2204       movs r2, #4
    310c:    4608       mov r0, r1
    310e:    f7fd fac9  bl 0x6a4
    3112:    2202       movs r2, #2
    3114:    4611       mov r1, r2
    3116:    4620       mov r0, r4
    3118:    f7fd fc20  bl 0x95c
    311c:    2204       movs r2, #4
    311e:    2101       movs r1, #1
    3120:    2000       movs r0, #0
    3122:    f7fd fabf  bl 0x6a4
    3126:    2202       movs r2, #2
    3128:    2104       movs r1, #4
    312a:    4620       mov r0, r4
    312c:    f7fd fc16  bl 0x95c
    3130:    2204       movs r2, #4
    3132:    2102       movs r1, #2
    3134:    2000       movs r0, #0
    3136:    f7fd fab5  bl 0x6a4
    313a:    2204       movs r2, #4
    313c:    2103       movs r1, #3
    313e:    2002       movs r0, #2
    3140:    f7fd fab0  bl 0x6a4
    3144:    2204       movs r2, #4
    3146:    210e       movs r1, #14
    3148:    2000       movs r0, #0
    314a:    f7fd faab  bl 0x6a4
    314e:    2204       movs r2, #4
    3150:    2100       movs r1, #0
    3152:    2001       movs r0, #1
    3154:    f7fd faa6  bl 0x6a4
    3158:    2204       movs r2, #4
    315a:    2102       movs r1, #2
    315c:    2001       movs r0, #1
    315e:    f7fd faa1  bl 0x6a4
    3162:    2204       movs r2, #4
    3164:    2107       movs r1, #7
    3166:    2002       movs r0, #2
    3168:    f7fd fa9c  bl 0x6a4
    316c:    2202       movs r2, #2
    316e:    2140       movs r1, #64                ; 0x40
    3170:    480e       ldr r0, [pc, #56]           ; (0x31ac)
    3172:    f7fd fbf3  bl 0x95c
    3176:    2204       movs r2, #4
    3178:    2106       movs r1, #6
    317a:    2001       movs r0, #1
    317c:    f7fd fa92  bl 0x6a4
    3180:    2204       movs r2, #4
    3182:    210a       movs r1, #10
    3184:    2000       movs r0, #0
    3186:    f7fd fa8d  bl 0x6a4
    318a:    2204       movs r2, #4
    318c:    4611       mov r1, r2
    318e:    2002       movs r0, #2
    3190:    f7fd fa88  bl 0x6a4
    3194:    2204       movs r2, #4
    3196:    2106       movs r1, #6
    3198:    e8bd 4010  ldmia.w r13!, {r4, r14}
    319c:    2002       movs r0, #2
    319e:    f7fd ba81  b.w 0x6a4
    31a2:    0000       movs r0, r0
  0x31a4:    4000       ands r0, r0
    31a6:    400b       ands r3, r1
  0x31a8:    0000       movs r0, r0
    31aa:    400b       ands r3, r1
    31ac:    2000       movs r0, #0
    31ae:    400b       ands r3, r1
    31b0:    b510       push {r4, r14}
    31b2:    4c3e       ldr r4, [pc, #248]          ; (0x32ac)
    31b4:    2201       movs r2, #1
    31b6:    0251       lsls r1, r2, #9
    31b8:    4620       mov r0, r4
    31ba:    f7fd fbcf  bl 0x95c
    31be:    2200       movs r2, #0
    31c0:    2109       movs r1, #9
    31c2:    2002       movs r0, #2
    31c4:    f7fd fa6e  bl 0x6a4
    31c8:    2201       movs r2, #1
    31ca:    0291       lsls r1, r2, #10
    31cc:    4620       mov r0, r4
    31ce:    f7fd fbc5  bl 0x95c
    31d2:    2200       movs r2, #0
    31d4:    210a       movs r1, #10
    31d6:    2002       movs r0, #2
    31d8:    f7fd fa64  bl 0x6a4
    31dc:    2201       movs r2, #1
    31de:    02d1       lsls r1, r2, #11
    31e0:    4620       mov r0, r4
    31e2:    f7fd fbbb  bl 0x95c
    31e6:    2200       movs r2, #0
    31e8:    210b       movs r1, #11
    31ea:    2002       movs r0, #2
    31ec:    f7fd fa5a  bl 0x6a4
    31f0:    4c2f       ldr r4, [pc, #188]          ; (0x32b0)
    31f2:    2201       movs r2, #1
    31f4:    2180       movs r1, #128               ; 0x80
    31f6:    4620       mov r0, r4
    31f8:    f7fd fbb0  bl 0x95c
    31fc:    2200       movs r2, #0
    31fe:    2107       movs r1, #7
    3200:    4610       mov r0, r2
    3202:    f7fd fa4f  bl 0x6a4
    3206:    2201       movs r2, #1
    3208:    4611       mov r1, r2
    320a:    4620       mov r0, r4
    320c:    f7fd fba6  bl 0x95c
    3210:    2200       movs r2, #0
    3212:    4611       mov r1, r2
    3214:    4610       mov r0, r2
    3216:    f7fd fa45  bl 0x6a4
    321a:    2201       movs r2, #1
    321c:    2102       movs r1, #2
    321e:    4620       mov r0, r4
    3220:    f7fd fb9c  bl 0x95c
    3224:    2200       movs r2, #0
    3226:    2101       movs r1, #1
    3228:    4610       mov r0, r2
    322a:    f7fd fa3b  bl 0x6a4
    322e:    2201       movs r2, #1
    3230:    2104       movs r1, #4
    3232:    4620       mov r0, r4
    3234:    f7fd fb92  bl 0x95c
    3238:    2200       movs r2, #0
    323a:    2102       movs r1, #2
    323c:    4610       mov r0, r2
    323e:    f7fd fa31  bl 0x6a4
    3242:    2200       movs r2, #0
    3244:    2103       movs r1, #3
    3246:    2002       movs r0, #2
    3248:    f7fd fa2c  bl 0x6a4
    324c:    2200       movs r2, #0
    324e:    210e       movs r1, #14
    3250:    4610       mov r0, r2
    3252:    f7fd fa27  bl 0x6a4
    3256:    2200       movs r2, #0
    3258:    4611       mov r1, r2
    325a:    2001       movs r0, #1
    325c:    f7fd fa22  bl 0x6a4
    3260:    2200       movs r2, #0
    3262:    2102       movs r1, #2
    3264:    2001       movs r0, #1
    3266:    f7fd fa1d  bl 0x6a4
    326a:    2200       movs r2, #0
    326c:    2107       movs r1, #7
    326e:    2002       movs r0, #2
    3270:    f7fd fa18  bl 0x6a4
    3274:    2201       movs r2, #1
    3276:    2140       movs r1, #64                ; 0x40
    3278:    480e       ldr r0, [pc, #56]           ; (0x32b4)
    327a:    f7fd fb6f  bl 0x95c
    327e:    2200       movs r2, #0
    3280:    2106       movs r1, #6
    3282:    2001       movs r0, #1
    3284:    f7fd fa0e  bl 0x6a4
    3288:    2200       movs r2, #0
    328a:    210a       movs r1, #10
    328c:    4610       mov r0, r2
    328e:    f7fd fa09  bl 0x6a4
    3292:    2200       movs r2, #0
    3294:    2104       movs r1, #4
    3296:    2002       movs r0, #2
    3298:    f7fd fa04  bl 0x6a4
    329c:    2200       movs r2, #0
    329e:    2106       movs r1, #6
    32a0:    e8bd 4010  ldmia.w r13!, {r4, r14}
    32a4:    2002       movs r0, #2
    32a6:    f7fd b9fd  b.w 0x6a4
    32aa:    0000       movs r0, r0
    32ac:    4000       ands r0, r0
    32ae:    400b       ands r3, r1
    32b0:    0000       movs r0, r0
    32b2:    400b       ands r3, r1
    32b4:    2000       movs r0, #0
    32b6:    400b       ands r3, r1
    32b8:    b530       push {r4, r5, r14}
    32ba:    490d       ldr r1, [pc, #52]           ; (0x32f0)
    32bc:    680c       ldr r4, [r1, #0]
    32be:    6c8b       ldr r3, [r1, #72]           ; 0x48
    32c0:    f04f 0201  mov.w r2, #1
    32c4:    600a       str r2, [r1, #0]
    32c6:    f04f 0200  mov.w r2, #0
    32ca:    648a       str r2, [r1, #72]           ; 0x48
    32cc:    4d09       ldr r5, [pc, #36]           ; (0x32f4)
    32ce:    612a       str r2, [r5, #16]
    32d0:    602a       str r2, [r5, #0]
    32d2:    600c       str r4, [r1, #0]
    32d4:    4a08       ldr r2, [pc, #32]           ; (0x32f8)
    32d6:    f5a1 61c3  sub.w r1, r1, #1560         ; 0x618
    32da:    6814       ldr r4, [r2, #0]
    32dc:    f044 0404  orr.w r4, r4, #4
    32e0:    6014       str r4, [r2, #0]
    32e2:    b118       cbz r0, 0x32ec
    32e4:    bf30       wfi
    32e6:    f8c1 3660  str.w r3, [r1, #1632]       ; 0x660
    32ea:    bd30       pop {r4, r5, r15}
    32ec:    bf20       wfe
    32ee:    e7fa       b.n 0x32e6
    32f0:    0618       lsls r0, r3, #24
    32f2:    4310       orrs r0, r2
    32f4:    208c       movs r0, #140               ; 0x8c
    32f6:    42d4       cmn r4, r2
    32f8:    ed10 e000  ldc 0, cr14, [r0, #-0]
    32fc:    4a05       ldr r2, [pc, #20]           ; (0x3314)
    32fe:    2901       cmp r1, #1
    3300:    f8d2 1104  ldr.w r1, [r2, #260]        ; 0x104
    3304:    d003       beq.n 0x330e
    3306:    4381       bics r1, r0
    3308:    f8c2 1104  str.w r1, [r2, #260]        ; 0x104
    330c:    4770       bx r14
    330e:    4301       orrs r1, r0
    3310:    e7fa       b.n 0x3308
    3312:    0000       movs r0, r0
    3314:    8000       strh r0, [r0, #0]
    3316:    4008       ands r0, r1
    3318:    e92d 5ff0  stmdb r13!, {r4, r5, r6, r7, r8, r9, r10, r11, r12, r14}
    331c:    4819       ldr r0, [pc, #100]          ; (0x3384)
    331e:    8800       ldrh r0, [r0, #0]
    3320:    2800       cmp r0, #0
    3322:    d12d       bne.n 0x3380
    3324:    f8df 905c  ldr.w r9, [r15, #92]        ; 0x3384
    3328:    2700       movs r7, #0
    332a:    f109 0928  add.w r9, r9, #40           ; 0x28
    332e:    f899 b01c  ldrb.w r11, [r9, #28]
    3332:    e023       b.n 0x337c
    3334:    4813       ldr r0, [pc, #76]           ; (0x3384)
    3336:    f04f 0a01  mov.w r10, #1
    333a:    4438       add r0, r7
    333c:    4680       mov r8, r0
    333e:    7885       ldrb r5, [r0, #2]
    3340:    7d06       ldrb r6, [r0, #20]
    3342:    406e       eors r6, r5
    3344:    2400       movs r4, #0
    3346:    07f0       lsls r0, r6, #31
    3348:    d010       beq.n 0x336c
    334a:    f345 0200  sbfx r2, r5, #0, #1
    334e:    f8d9 300c  ldr.w r3, [r9, #12]
    3352:    1c52       adds r2, r2, #1
    3354:    4621       mov r1, r4
    3356:    4638       mov r0, r7
    3358:    4798       blx r3
    335a:    2801       cmp r0, #1
    335c:    d106       bne.n 0x336c
    335e:    f898 1014  ldrb.w r1, [r8, #20]
    3362:    fa0a f004  lsl.w r0, r10, r4
    3366:    4041       eors r1, r0
    3368:    f888 1014  strb.w r1, [r8, #20]
    336c:    1c64       adds r4, r4, #1
    336e:    0876       lsrs r6, r6, #1
    3370:    086d       lsrs r5, r5, #1
    3372:    b2e4       uxtb r4, r4
    3374:    2c08       cmp r4, #8
    3376:    d3e6       bcc.n 0x3346
    3378:    1c7f       adds r7, r7, #1
    337a:    b2ff       uxtb r7, r7
    337c:    455f       cmp r7, r11
    337e:    d3d9       bcc.n 0x3334
    3380:    e8bd 9ff0  ldmia.w r13!, {r4, r5, r6, r7, r8, r9, r10, r11, r12, r15}
    3384:    2de4       cmp r5, #228    ; 0xe4
    3386:    2000       movs r0, #0
    3388:    e92d 5ff0  stmdb r13!, {r4, r5, r6, r7, r8, r9, r10, r11, r12, r14}
    338c:    f8df a108  ldr.w r10, [r15, #264]    ; 0x3498
    3390:    4842       ldr r0, [pc, #264]    ; (0x349c)
    3392:    f1aa 0928  sub.w r9, r10, #40    ; 0x28
    3396:    f89a 501b  ldrb.w r5, [r10, #27]
    339a:    086c       lsrs r4, r5, #1
    339c:    eb00 00c4  add.w r0, r0, r4, lsl #3
    33a0:    f8d0 8000  ldr.w r8, [r0]
    33a4:    6847       ldr r7, [r0, #4]
    33a6:    f8b9 0000  ldrh.w r0, [r9]
    33aa:    b120       cbz r0, 0x33b6
    33ac:    f8b9 1000  ldrh.w r1, [r9]
    33b0:    1e49       subs r1, r1, #1
    33b2:    f8a9 1000  strh.w r1, [r9]
    33b6:    07e8       lsls r0, r5, #31
    33b8:    f44f 7b80  mov.w r11, #256    ; 0x100
    33bc:    f04f 0300  mov.w r3, #0
    33c0:    d005       beq.n 0x33ce
    33c2:    f000 fa27  bl 0x3814
    33c6:    4606       mov r6, r0
    33c8:    4835       ldr r0, [pc, #212]    ; (0x34a0)
    33ca:    2108       movs r1, #8
    33cc:    e02b       b.n 0x3426
    33ce:    4834       ldr r0, [pc, #208]    ; (0x34a0)
    33d0:    3020       adds r0, #32
    33d2:    2108       movs r1, #8
    33d4:    e001       b.n 0x33da
    33d6:    c804       ldmia r0!, {r2}
    33d8:    6013       str r3, [r2, #0]
    33da:    1e49       subs r1, r1, #1
    33dc:    d2fb       bcs.n 0x33d6
    33de:    4831       ldr r0, [pc, #196]    ; (0x34a4)
    33e0:    2104       movs r1, #4
    33e2:    6281       str r1, [r0, #40]    ; 0x28
    33e4:    4a30       ldr r2, [pc, #192]    ; (0x34a8)
    33e6:    465e       mov r6, r11
    33e8:    f8c2 b028  str.w r11, [r2, #40]    ; 0x28
    33ec:    6241       str r1, [r0, #36]    ; 0x24
    33ee:    200a       movs r0, #10
    33f0:    f7fd f96c  bl 0x6cc
    33f4:    f8c8 7028  str.w r7, [r8, #40]    ; 0x28
    33f8:    482c       ldr r0, [pc, #176]    ; (0x34ac)
    33fa:    4b2d       ldr r3, [pc, #180]    ; (0x34b0)
    33fc:    eb00 1104  add.w r1, r0, r4, lsl #4
    3400:    4827       ldr r0, [pc, #156]    ; (0x34a0)
    3402:    2208       movs r2, #8
    3404:    679e       str r6, [r3, #120]    ; 0x78
    3406:    4b2b       ldr r3, [pc, #172]    ; (0x34b4)
    3408:    679e       str r6, [r3, #120]    ; 0x78
    340a:    4b2b       ldr r3, [pc, #172]    ; (0x34b8)
    340c:    679e       str r6, [r3, #120]    ; 0x78
    340e:    4b2b       ldr r3, [pc, #172]    ; (0x34bc)
    3410:    679e       str r6, [r3, #120]    ; 0x78
    3412:    e003       b.n 0x341c
    3414:    c810       ldmia r0!, {r4}
    3416:    f831 3b02  ldrh.w r3, [r1], #2
    341a:    6023       str r3, [r4, #0]
    341c:    1e52       subs r2, r2, #1
    341e:    d2f9       bcs.n 0x3414
    3420:    e02f       b.n 0x3482
    3422:    c804       ldmia r0!, {r2}
    3424:    6013       str r3, [r2, #0]
    3426:    1e49       subs r1, r1, #1
    3428:    d2fb       bcs.n 0x3422
    342a:    f8c8 7024  str.w r7, [r8, #36]    ; 0x24
    342e:    200a       movs r0, #10
    3430:    f7fd f94c  bl 0x6cc
    3434:    4620       mov r0, r4
    3436:    f000 fa1f  bl 0x3878
    343a:    481c       ldr r0, [pc, #112]    ; (0x34ac)
    343c:    4f1c       ldr r7, [pc, #112]    ; (0x34b0)
    343e:    3090       adds r0, #144    ; 0x90
    3440:    eb00 1104  add.w r1, r0, r4, lsl #4
    3444:    4816       ldr r0, [pc, #88]    ; (0x34a0)
    3446:    f8c7 b078  str.w r11, [r7, #120]    ; 0x78
    344a:    3020       adds r0, #32
    344c:    2208       movs r2, #8
    344e:    4f19       ldr r7, [pc, #100]    ; (0x34b4)
    3450:    f8c7 b078  str.w r11, [r7, #120]    ; 0x78
    3454:    4f18       ldr r7, [pc, #96]    ; (0x34b8)
    3456:    f8c7 b078  str.w r11, [r7, #120]    ; 0x78
    345a:    4f18       ldr r7, [pc, #96]    ; (0x34bc)
    345c:    f8c7 b078  str.w r11, [r7, #120]    ; 0x78
    3460:    e003       b.n 0x346a
    3462:    c880       ldmia r0!, {r7}
    3464:    f831 3b02  ldrh.w r3, [r1], #2
    3468:    603b       str r3, [r7, #0]
    346a:    1e52       subs r2, r2, #1
    346c:    d2f9       bcs.n 0x3462
    346e:    eb09 0004  add.w r0, r9, r4
    3472:    4649       mov r1, r9
    3474:    7882       ldrb r2, [r0, #2]
    3476:    42b2       cmp r2, r6
    3478:    d003       beq.n 0x3482
    347a:    f8ba 2018  ldrh.w r2, [r10, #24]
    347e:    800a       strh r2, [r1, #0]
    3480:    7086       strb r6, [r0, #2]
    3482:    f89a 001a  ldrb.w r0, [r10, #26]
    3486:    1c6d       adds r5, r5, #1
    3488:    fbb5 f2f0  udiv r2, r5, r0
    348c:    fb00 5012  mls r0, r0, r2, r5
    3490:    f88a 001b  strb.w r0, [r10, #27]
    3494:    e8bd 9ff0  ldmia.w r13!, {r4, r5, r6, r7, r8, r9, r10, r11, r12, r15}
    3498:    2e0c       cmp r6, #12
    349a:    2000       movs r0, #0
    349c:    8fa8       ldrh r0, [r5, #60]    ; 0x3c
    349e:    0000       movs r0, r0
    34a0:    01dc       lsls r4, r3, #7
    34a2:    2000       movs r0, #0
    34a4:    4000       ands r0, r0
    34a6:    400b       ands r3, r1
    34a8:    0000       movs r0, r0
    34aa:    400b       ands r3, r1
    34ac:    2cc4       cmp r4, #196    ; 0xc4
    34ae:    2000       movs r0, #0
    34b0:    e000       b.n 0x34b4
    34b2:    4006       ands r6, r0
    34b4:    f000 4006  and.w r0, r0, #2248146944    ; 0x86000000
    34b8:    c000       stmia r0!, {}
    34ba:    4002       ands r2, r0
    34bc:    d000       beq.n 0x34c0
    34be:    4002       ands r2, r0
    34c0:    e92d 47f0  stmdb r13!, {r4, r5, r6, r7, r8, r9, r10, r14}
    34c4:    4604       mov r4, r0
    34c6:    f000 f853  bl 0x3570
    34ca:    f8df 9098  ldr.w r9, [r15, #152]    ; 0x3564
    34ce:    f899 0000  ldrb.w r0, [r9]
    34d2:    2801       cmp r0, #1
    34d4:    d143       bne.n 0x355e
    34d6:    4f24       ldr r7, [pc, #144]    ; (0x3568)
    34d8:    8a20       ldrh r0, [r4, #16]
    34da:    f04f 08ff  mov.w r8, #255    ; 0xff
    34de:    8338       strh r0, [r7, #24]
    34e0:    68e0       ldr r0, [r4, #12]
    34e2:    6038       str r0, [r7, #0]
    34e4:    7ce0       ldrb r0, [r4, #19]
    34e6:    f1a7 0a28  sub.w r10, r7, #40    ; 0x28
    34ea:    0040       lsls r0, r0, #1
    34ec:    76b8       strb r0, [r7, #26]
    34ee:    2000       movs r0, #0
    34f0:    76f8       strb r0, [r7, #27]
    34f2:    4602       mov r2, r0
    34f4:    f5a7 7ca4  sub.w r12, r7, #328    ; 0x148
    34f8:    f1a7 06b8  sub.w r6, r7, #184    ; 0xb8
    34fc:    e013       b.n 0x3526
    34fe:    eb0a 0102  add.w r1, r10, r2
    3502:    eb0c 1502  add.w r5, r12, r2, lsl #4
    3506:    f881 8002  strb.w r8, [r1, #2]
    350a:    f881 8014  strb.w r8, [r1, #20]
    350e:    2100       movs r1, #0
    3510:    eb06 1302  add.w r3, r6, r2, lsl #4
    3514:    f825 0011  strh.w r0, [r5, r1, lsl #1]
    3518:    f823 0011  strh.w r0, [r3, r1, lsl #1]
    351c:    1c49       adds r1, r1, #1
    351e:    2908       cmp r1, #8
    3520:    dbf8       blt.n 0x3514
    3522:    1c52       adds r2, r2, #1
    3524:    b2d2       uxtb r2, r2
    3526:    7ce1       ldrb r1, [r4, #19]
    3528:    4291       cmp r1, r2
    352a:    d8e8       bhi.n 0x34fe
    352c:    6820       ldr r0, [r4, #0]
    352e:    60f8       str r0, [r7, #12]
    3530:    6860       ldr r0, [r4, #4]
    3532:    6138       str r0, [r7, #16]
    3534:    68a0       ldr r0, [r4, #8]
    3536:    6178       str r0, [r7, #20]
    3538:    7ce0       ldrb r0, [r4, #19]
    353a:    7738       strb r0, [r7, #28]
    353c:    2101       movs r1, #1
    353e:    0448       lsls r0, r1, #17
    3540:    f7fd f988  bl 0x854
    3544:    f44f 61e1  mov.w r1, #1800    ; 0x708
    3548:    4808       ldr r0, [pc, #32]    ; (0x356c)
    354a:    f7fd f8a6  bl 0x69a
    354e:    f7ff fc35  bl 0x2dbc
    3552:    2001       movs r0, #1
    3554:    f000 f8fc  bl 0x3750
    3558:    2102       movs r1, #2
    355a:    f889 1000  strb.w r1, [r9]
    355e:    2001       movs r0, #1
    3560:    e8bd 87f0  ldmia.w r13!, {r4, r5, r6, r7, r8, r9, r10, r15}
    3564:    01d8       lsls r0, r3, #7
    3566:    2000       movs r0, #0
    3568:    2e0c       cmp r6, #12
    356a:    2000       movs r0, #0
    356c:    7000       strb r0, [r0, #0]
    356e:    4007       ands r7, r0
    3570:    e92d 5ff0  stmdb r13!, {r4, r5, r6, r7, r8, r9, r10, r11, r12, r14}
    3574:    f8df 91c4  ldr.w r9, [r15, #452]    ; 0x373c
    3578:    f899 0000  ldrb.w r0, [r9]
    357c:    bbf0       cbnz r0, 0x35fc
    357e:    2101       movs r1, #1
    3580:    03cc       lsls r4, r1, #15
    3582:    4620       mov r0, r4
    3584:    f7fd f95a  bl 0x83c
    3588:    2101       movs r1, #1
    358a:    f44f 2070  mov.w r0, #983040    ; 0xf0000
    358e:    f7fd f949  bl 0x824
    3592:    4f6b       ldr r7, [pc, #428]    ; (0x3740)
    3594:    2200       movs r2, #0
    3596:    2108       movs r1, #8
    3598:    4638       mov r0, r7
    359a:    f7fd f9df  bl 0x95c
    359e:    2200       movs r2, #0
    35a0:    2110       movs r1, #16
    35a2:    4638       mov r0, r7
    35a4:    f7fd f9da  bl 0x95c
    35a8:    2200       movs r2, #0
    35aa:    2120       movs r1, #32
    35ac:    4638       mov r0, r7
    35ae:    f7fd f9d5  bl 0x95c
    35b2:    2200       movs r2, #0
    35b4:    2140       movs r1, #64    ; 0x40
    35b6:    4638       mov r0, r7
    35b8:    f7fd f9d0  bl 0x95c
    35bc:    f8df a184  ldr.w r10, [r15, #388]    ; 0x3744
    35c0:    1126       asrs r6, r4, #4
    35c2:    2200       movs r2, #0
    35c4:    4631       mov r1, r6
    35c6:    4650       mov r0, r10
    35c8:    f7fd f9c8  bl 0x95c
    35cc:    f8df 8178  ldr.w r8, [r15, #376]    ; 0x3748
    35d0:    f44f 5b00  mov.w r11, #8192    ; 0x2000
    35d4:    2200       movs r2, #0
    35d6:    4659       mov r1, r11
    35d8:    4645       mov r5, r8
    35da:    4640       mov r0, r8
    35dc:    f7fd f9be  bl 0x95c
    35e0:    2200       movs r2, #0
    35e2:    1061       asrs r1, r4, #1
    35e4:    4628       mov r0, r5
    35e6:    f7fd f9b9  bl 0x95c
    35ea:    2200       movs r2, #0
    35ec:    4621       mov r1, r4
    35ee:    4628       mov r0, r5
    35f0:    f7fd f9b4  bl 0x95c
    35f4:    2201       movs r2, #1
    35f6:    2108       movs r1, #8
    35f8:    4638       mov r0, r7
    35fa:    e000       b.n 0x35fe
    35fc:    e09b       b.n 0x3736
    35fe:    f7fd f99d  bl 0x93c
    3602:    2201       movs r2, #1
    3604:    2110       movs r1, #16
    3606:    4638       mov r0, r7
    3608:    f7fd f998  bl 0x93c
    360c:    2201       movs r2, #1
    360e:    2120       movs r1, #32
    3610:    4638       mov r0, r7
    3612:    f7fd f993  bl 0x93c
    3616:    2201       movs r2, #1
    3618:    2140       movs r1, #64    ; 0x40
    361a:    4638       mov r0, r7
    361c:    f7fd f98e  bl 0x93c
    3620:    2201       movs r2, #1
    3622:    4631       mov r1, r6
    3624:    4650       mov r0, r10
    3626:    f7fd f989  bl 0x93c
    362a:    2201       movs r2, #1
    362c:    4659       mov r1, r11
    362e:    4628       mov r0, r5
    3630:    f7fd f984  bl 0x93c
    3634:    2201       movs r2, #1
    3636:    0391       lsls r1, r2, #14
    3638:    4628       mov r0, r5
    363a:    f7fd f97f  bl 0x93c
    363e:    2201       movs r2, #1
    3640:    4621       mov r1, r4
    3642:    4628       mov r0, r5
    3644:    f7fd f97a  bl 0x93c
    3648:    2100       movs r1, #0
    364a:    200c       movs r0, #12
    364c:    f7fc fe80  bl 0x350
    3650:    2100       movs r1, #0
    3652:    2010       movs r0, #16
    3654:    f7fc fe7c  bl 0x350
    3658:    2100       movs r1, #0
    365a:    2014       movs r0, #20
    365c:    f7fc fe78  bl 0x350
    3660:    2100       movs r1, #0
    3662:    2018       movs r0, #24
    3664:    f7fc fe74  bl 0x350
    3668:    2101       movs r1, #1
    366a:    202c       movs r0, #44    ; 0x2c
    366c:    f7fc fe70  bl 0x350
    3670:    2102       movs r1, #2
    3672:    2034       movs r0, #52    ; 0x34
    3674:    f7fc fe6c  bl 0x350
    3678:    2102       movs r1, #2
    367a:    2038       movs r0, #56    ; 0x38
    367c:    f7fc fe68  bl 0x350
    3680:    2102       movs r1, #2
    3682:    203c       movs r0, #60    ; 0x3c
    3684:    f7fc fe64  bl 0x350
    3688:    f8df a0c0  ldr.w r10, [r15, #192]    ; 0x374c
    368c:    2400       movs r4, #0
    368e:    eb0a 00c4  add.w r0, r10, r4, lsl #3
    3692:    6805       ldr r5, [r0, #0]
    3694:    6846       ldr r6, [r0, #4]
    3696:    4628       mov r0, r5
    3698:    b2b1       uxth r1, r6
    369a:    f7fd f973  bl 0x984
    369e:    b2b1       uxth r1, r6
    36a0:    2201       movs r2, #1
    36a2:    4628       mov r0, r5
    36a4:    f7fd f952  bl 0x94c
    36a8:    b2b1       uxth r1, r6
    36aa:    2201       movs r2, #1
    36ac:    4628       mov r0, r5
    36ae:    f7fd f935  bl 0x91c
    36b2:    1c64       adds r4, r4, #1
    36b4:    b2e4       uxtb r4, r4
    36b6:    2c09       cmp r4, #9
    36b8:    d3e9       bcc.n 0x368e
    36ba:    2202       movs r2, #2
    36bc:    01d5       lsls r5, r2, #7
    36be:    4629       mov r1, r5
    36c0:    4638       mov r0, r7
    36c2:    f7fd f94b  bl 0x95c
    36c6:    2200       movs r2, #0
    36c8:    4629       mov r1, r5
    36ca:    4638       mov r0, r7
    36cc:    f7fd f936  bl 0x93c
    36d0:    2201       movs r2, #1
    36d2:    4611       mov r1, r2
    36d4:    4644       mov r4, r8
    36d6:    4640       mov r0, r8
    36d8:    f7fd f920  bl 0x91c
    36dc:    2201       movs r2, #1
    36de:    2102       movs r1, #2
    36e0:    4620       mov r0, r4
    36e2:    f7fd f91b  bl 0x91c
    36e6:    2201       movs r2, #1
    36e8:    4629       mov r1, r5
    36ea:    4638       mov r0, r7
    36ec:    f7fd f916  bl 0x91c
    36f0:    f7ff fc66  bl 0x2fc0                   ; call function_10
    36f4:    2201       movs r2, #1
    36f6:    2104       movs r1, #4
    36f8:    4620       mov r0, r4
    36fa:    f7fd f90f  bl 0x91c
    36fe:    2202       movs r2, #2
    3700:    0214       lsls r4, r2, #8
    3702:    4621       mov r1, r4
    3704:    4638       mov r0, r7
    3706:    f7fd f929  bl 0x95c
    370a:    2200       movs r2, #0
    370c:    4621       mov r1, r4
    370e:    4638       mov r0, r7
    3710:    f7fd f914  bl 0x93c
    3714:    4621       mov r1, r4
    3716:    4638       mov r0, r7
    3718:    f7fd f934  bl 0x984
    371c:    2201       movs r2, #1
    371e:    4621       mov r1, r4
    3720:    4638       mov r0, r7
    3722:    f7fd f913  bl 0x94c
    3726:    2201       movs r2, #1
    3728:    4621       mov r1, r4
    372a:    4638       mov r0, r7
    372c:    f7fd f8f6  bl 0x91c
    3730:    2101       movs r1, #1
    3732:    f889 1000  strb.w r1, [r9]
    3736:    2001       movs r0, #1
    3738:    e8bd 9ff0  ldmia.w r13!, {r4, r5, r6, r7, r8, r9, r10, r11, r12, r15}
    373c:    01d8       lsls r0, r3, #7
    373e:    2000       movs r0, #0
    3740:    0000       movs r0, r0
    3742:    400b       ands r3, r1
    3744:    2000       movs r0, #0
    3746:    400b       ands r3, r1
    3748:    4000       ands r0, r0
    374a:    400b       ands r3, r1
    374c:    8fa8       ldrh r0, [r5, #60]    ; 0x3c
    374e:    0000       movs r0, r0
    3750:    e92d 47f0  stmdb r13!, {r4, r5, r6, r7, r8, r9, r10, r14}
    3754:    4c2a       ldr r4, [pc, #168]    ; (0x3800)
    3756:    4e2b       ldr r6, [pc, #172]    ; (0x3804)
    3758:    f8df 80ac  ldr.w r8, [r15, #172]    ; 0x3808
    375c:    ea5f 0900  movs.w r9, r0
    3760:    f44f 7500  mov.w r5, #512    ; 0x200
    3764:    f44f 6780  mov.w r7, #1024    ; 0x400
    3768:    d029       beq.n 0x37be
    376a:    2100       movs r1, #0
    376c:    4630       mov r0, r6
    376e:    f7fc ff8a  bl 0x686
    3772:    2100       movs r1, #0
    3774:    4630       mov r0, r6
    3776:    f7fc ff7c  bl 0x672
    377a:    4630       mov r0, r6
    377c:    f7fc ff72  bl 0x664
    3780:    f8c8 7180  str.w r7, [r8, #384]    ; 0x180
    3784:    2000       movs r0, #0
    3786:    4a21       ldr r2, [pc, #132]    ; (0x380c)
    3788:    4601       mov r1, r0
    378a:    f852 3020  ldr.w r3, [r2, r0, lsl #2]
    378e:    6019       str r1, [r3, #0]
    3790:    1c40       adds r0, r0, #1
    3792:    2807       cmp r0, #7
    3794:    dbf9       blt.n 0x378a
    3796:    4a1d       ldr r2, [pc, #116]    ; (0x380c)
    3798:    2000       movs r0, #0
    379a:    3a20       subs r2, #32
    379c:    f852 3020  ldr.w r3, [r2, r0, lsl #2]
    37a0:    6019       str r1, [r3, #0]
    37a2:    1c40       adds r0, r0, #1
    37a4:    2807       cmp r0, #7
    37a6:    dbf9       blt.n 0x379c
    37a8:    f44f 7080  mov.w r0, #256    ; 0x100
    37ac:    62a0       str r0, [r4, #40]    ; 0x28
    37ae:    4918       ldr r1, [pc, #96]    ; (0x3810)
    37b0:    2004       movs r0, #4
    37b2:    6288       str r0, [r1, #40]    ; 0x28
    37b4:    6265       str r5, [r4, #36]    ; 0x24
    37b6:    2000       movs r0, #0
    37b8:    f000 f888  bl 0x38cc
    37bc:    e01a       b.n 0x37f4
    37be:    2001       movs r0, #1
    37c0:    f000 f884  bl 0x38cc
    37c4:    200a       movs r0, #10
    37c6:    f7fc ff81  bl 0x6cc
    37ca:    62a5       str r5, [r4, #40]    ; 0x28
    37cc:    200a       movs r0, #10
    37ce:    f7fc ff7d  bl 0x6cc
    37d2:    2100       movs r1, #0
    37d4:    4630       mov r0, r6
    37d6:    f7fc ff62  bl 0x69e
    37da:    4630       mov r0, r6
    37dc:    f7fc ff42  bl 0x664
    37e0:    2101       movs r1, #1
    37e2:    4630       mov r0, r6
    37e4:    f7fc ff45  bl 0x672
    37e8:    2101       movs r1, #1
    37ea:    4630       mov r0, r6
    37ec:    f7fc ff4b  bl 0x686
    37f0:    f8c8 7100  str.w r7, [r8, #256]    ; 0x100
    37f4:    4648       mov r0, r9
    37f6:    e8bd 47f0  ldmia.w r13!, {r4, r5, r6, r7, r8, r9, r10, r14}
    37fa:    f7ff bc4f  b.w 0x309c
    37fe:    0000       movs r0, r0
    3800:    0000       movs r0, r0
    3802:    400b       ands r3, r1
    3804:    7000       strb r0, [r0, #0]
    3806:    4007       ands r7, r0
    3808:    e004       b.n 0x3814
    380a:    e000       b.n 0x380e
    380c:    01fc       lsls r4, r7, #7
    380e:    2000       movs r0, #0
    3810:    4000       ands r0, r0
    3812:    400b       ands r3, r1
    3814:    4915       ldr r1, [pc, #84]    ; (0x386c)
    3816:    2000       movs r0, #0
    3818:    69ca       ldr r2, [r1, #28]
    381a:    0712       lsls r2, r2, #28
    381c:    d500       bpl.n 0x3820
    381e:    2001       movs r0, #1
    3820:    69ca       ldr r2, [r1, #28]
    3822:    06d2       lsls r2, r2, #27
    3824:    d501       bpl.n 0x382a
    3826:    f040 0002  orr.w r0, r0, #2
    382a:    69ca       ldr r2, [r1, #28]
    382c:    0692       lsls r2, r2, #26
    382e:    d501       bpl.n 0x3834
    3830:    f040 0004  orr.w r0, r0, #4
    3834:    69c9       ldr r1, [r1, #28]
    3836:    0649       lsls r1, r1, #25
    3838:    d501       bpl.n 0x383e
    383a:    f040 0008  orr.w r0, r0, #8
    383e:    490c       ldr r1, [pc, #48]    ; (0x3870)
    3840:    69c9       ldr r1, [r1, #28]
    3842:    0509       lsls r1, r1, #20
    3844:    d501       bpl.n 0x384a
    3846:    f040 0010  orr.w r0, r0, #16
    384a:    490a       ldr r1, [pc, #40]    ; (0x3874)
    384c:    69ca       ldr r2, [r1, #28]
    384e:    0492       lsls r2, r2, #18
    3850:    d501       bpl.n 0x3856
    3852:    f040 0020  orr.w r0, r0, #32
    3856:    69ca       ldr r2, [r1, #28]
    3858:    0452       lsls r2, r2, #17
    385a:    d501       bpl.n 0x3860
    385c:    f040 0040  orr.w r0, r0, #64    ; 0x40
    3860:    69c9       ldr r1, [r1, #28]
    3862:    0409       lsls r1, r1, #16
    3864:    d501       bpl.n 0x386a
    3866:    f040 0080  orr.w r0, r0, #128    ; 0x80
    386a:    4770       bx r14
    386c:    0000       movs r0, r0
    386e:    400b       ands r3, r1
    3870:    2000       movs r0, #0
    3872:    400b       ands r3, r1
    3874:    4000       ands r0, r0
    3876:    400b       ands r3, r1
    3878:    b530       push {r4, r5, r14}
    387a:    4a11       ldr r2, [pc, #68]    ; (0x38c0)
    387c:    2104       movs r1, #4
    387e:    6291       str r1, [r2, #40]    ; 0x28
    3880:    4b10       ldr r3, [pc, #64]    ; (0x38c4)
    3882:    018c       lsls r4, r1, #6
    3884:    629c       str r4, [r3, #40]    ; 0x28
    3886:    6251       str r1, [r2, #36]    ; 0x24
    3888:    2808       cmp r0, #8
    388a:    d009       beq.n 0x38a0
    388c:    d209       bcs.n 0x38a2
    388e:    4b0e       ldr r3, [pc, #56]    ; (0x38c8)
    3890:    f04f 0108  mov.w r1, #8
    3894:    f04f 0401  mov.w r4, #1
    3898:    5c18       ldrb r0, [r3, r0]
    389a:    f04f 0302  mov.w r3, #2
    389e:    e00a       b.n 0x38b6
    38a0:    625c       str r4, [r3, #36]    ; 0x24
    38a2:    bd30       pop {r4, r5, r15}
    38a4:    0605       lsls r5, r0, #24
    38a6:    d501       bpl.n 0x38ac
    38a8:    6254       str r4, [r2, #36]    ; 0x24
    38aa:    e000       b.n 0x38ae
    38ac:    6294       str r4, [r2, #40]    ; 0x28
    38ae:    6253       str r3, [r2, #36]    ; 0x24
    38b0:    0640       lsls r0, r0, #25
    38b2:    0e00       lsrs r0, r0, #24
    38b4:    6293       str r3, [r2, #40]    ; 0x28
    38b6:    1e49       subs r1, r1, #1
    38b8:    d2f4       bcs.n 0x38a4
    38ba:    6294       str r4, [r2, #40]    ; 0x28
    38bc:    bd30       pop {r4, r5, r15}
    38be:    0000       movs r0, r0
    38c0:    4000       ands r0, r0
    38c2:    400b       ands r3, r1
    38c4:    0000       movs r0, r0
    38c6:    400b       ands r3, r1
    38c8:    8fa0       ldrh r0, [r4, #60]    ; 0x3c
    38ca:    0000       movs r0, r0

function_9:
  0x38cc:    b510       push {r4, r14}
    38ce:    2209       movs r2, #9
    38d0:    4c12       ldr r4, [pc, #72]    ; (0x391c)
    38d2:    2100       movs r1, #0
    38d4:    b938       cbnz r0, 0x38e6
    38d6:    e01b       b.n 0x3910
    38d8:    eb04 00c1  add.w r0, r4, r1, lsl #3
    38dc:    1c49       adds r1, r1, #1
    38de:    6803       ldr r3, [r0, #0]
    38e0:    6840       ldr r0, [r0, #4]
    38e2:    b2c9       uxtb r1, r1
    38e4:    6258       str r0, [r3, #36]    ; 0x24
    38e6:    0010       movs r0, r2
    38e8:    f1a2 0201  sub.w r2, r2, #1
    38ec:    b2d2       uxtb r2, r2
    38ee:    d1f3       bne.n 0x38d8
    38f0:    bd10       pop {r4, r15}
    38f2:    2908       cmp r1, #8
    38f4:    d007       beq.n 0x3906
    38f6:    eb04 00c1  add.w r0, r4, r1, lsl #3
    38fa:    1c49       adds r1, r1, #1
    38fc:    6803       ldr r3, [r0, #0]
    38fe:    6840       ldr r0, [r0, #4]
    3900:    b2c9       uxtb r1, r1
    3902:    6298       str r0, [r3, #40]    ; 0x28
    3904:    e004       b.n 0x3910
    3906:    4805       ldr r0, [pc, #20]    ; (0x391c)
    3908:    2109       movs r1, #9
    390a:    6c03       ldr r3, [r0, #64]    ; 0x40
    390c:    6c40       ldr r0, [r0, #68]    ; 0x44
    390e:    6258       str r0, [r3, #36]    ; 0x24
    3910:    0010       movs r0, r2
    3912:    f1a2 0201  sub.w r2, r2, #1
    3916:    b2d2       uxtb r2, r2
    3918:    d1eb       bne.n 0x38f2
    391a:    bd10       pop {r4, r15}
    391c:    8fa8       ldrh r0, [r5, #60]    ; 0x3c
    391e:    0000       movs r0, r0
    3920:    e92d 41f0  stmdb r13!, {r4, r5, r6, r7, r8, r14}
    3924:    4e12       ldr r6, [pc, #72]    ; (0x3970)
    3926:    4c11       ldr r4, [pc, #68]    ; (0x396c)
    3928:    4f12       ldr r7, [pc, #72]    ; (0x3974)
    392a:    2000       movs r0, #0
    392c:    f44f 757a  mov.w r5, #1000    ; 0x3e8
    3930:    f64f 7eff  movw r14, #65535    ; 0xffff
    3934:    f1a6 020e  sub.w r2, r6, #14
    3938:    f834 1010  ldrh.w r1, [r4, r0, lsl #1]
    393c:    f44f 73e1  mov.w r3, #450    ; 0x1c2
    3940:    ebc1 4101  rsb r1, r1, r1, lsl #16
    3944:    fbb1 f1f5  udiv r1, r1, r5
    3948:    4359       muls r1, r3
    394a:    fbb1 f1fe  udiv r1, r1, r14
    394e:    5c33       ldrb r3, [r6, r0]
    3950:    f812 c000  ldrb.w r12, [r2, r0]
    3954:    eb07 1303  add.w r3, r7, r3, lsl #4
    3958:    1c40       adds r0, r0, #1
    395a:    b2c0       uxtb r0, r0
    395c:    f823 101c  strh.w r1, [r3, r12, lsl #1]
    3960:    280e       cmp r0, #14
    3962:    d3e9       bcc.n 0x3938
    3964:    e8bd 41f0  ldmia.w r13!, {r4, r5, r6, r7, r8, r14}
    3968:    f002 b80a  b.w 0x5980
    396c:    0160       lsls r0, r4, #5
    396e:    2000       movs r0, #0
    3970:    8d34       ldrh r4, [r6, #40]    ; 0x28
    3972:    0000       movs r0, r0
    3974:    2e2c       cmp r6, #44    ; 0x2c
    3976:    2000       movs r0, #0
    3978:    2900       cmp r1, #0
    397a:    6801       ldr r1, [r0, #0]
    397c:    d002       beq.n 0x3984
    397e:    f041 0101  orr.w r1, r1, #1
    3982:    e001       b.n 0x3988
    3984:    f021 0101  bic.w r1, r1, #1
    3988:    6001       str r1, [r0, #0]
    398a:    4770       bx r14
    398c:    b530       push {r4, r5, r14}
    398e:    694a       ldr r2, [r1, #20]
    3990:    f5b2 6f80  cmp.w r2, #1024    ; 0x400
    3994:    d001       beq.n 0x399a
    3996:    b15a       cbz r2, 0x39b0
    3998:    e00c       b.n 0x39b4
    399a:    698a       ldr r2, [r1, #24]
    399c:    b112       cbz r2, 0x39a4
    399e:    2a01       cmp r2, #1
    39a0:    d003       beq.n 0x39aa
    39a2:    e007       b.n 0x39b4
    39a4:    f44f 62c0  mov.w r2, #1536    ; 0x600
    39a8:    e006       b.n 0x39b8
    39aa:    f44f 62a0  mov.w r2, #1280    ; 0x500
    39ae:    e003       b.n 0x39b8
    39b0:    698a       ldr r2, [r1, #24]
    39b2:    b1d2       cbz r2, 0x39ea
    39b4:    f44f 7200  mov.w r2, #512    ; 0x200
    39b8:    688c       ldr r4, [r1, #8]
    39ba:    680b       ldr r3, [r1, #0]
    39bc:    4323       orrs r3, r4
    39be:    e9d1 4503  ldrd r4, r5, [r1, #12]
    39c2:    432c       orrs r4, r5
    39c4:    4323       orrs r3, r4
    39c6:    69cc       ldr r4, [r1, #28]
    39c8:    4323       orrs r3, r4
    39ca:    4313       orrs r3, r2
    39cc:    6043       str r3, [r0, #4]
    39ce:    6a4b       ldr r3, [r1, #36]    ; 0x24
    39d0:    684a       ldr r2, [r1, #4]
    39d2:    431a       orrs r2, r3
    39d4:    6a0b       ldr r3, [r1, #32]
    39d6:    ea42 1203  orr.w r2, r2, r3, lsl #4
    39da:    6182       str r2, [r0, #24]
    39dc:    6a89       ldr r1, [r1, #40]    ; 0x28
    39de:    f04f 32ff  mov.w r2, #4294967295    ; 0xffffffff
    39e2:    eb02 0151  add.w r1, r2, r1, lsr #1
    39e6:    60c1       str r1, [r0, #12]
    39e8:    bd30       pop {r4, r5, r15}
    39ea:    f44f 7280  mov.w r2, #256    ; 0x100
    39ee:    e7e3       b.n 0x39b8
    39f0:    2900       cmp r1, #0
    39f2:    6801       ldr r1, [r0, #0]
    39f4:    d002       beq.n 0x39fc
    39f6:    f041 0108  orr.w r1, r1, #8
    39fa:    e001       b.n 0x3a00
    39fc:    f021 0108  bic.w r1, r1, #8
    3a00:    6001       str r1, [r0, #0]
    3a02:    4770       bx r14
    3a04:    f04f 21e0  mov.w r1, #3758153728    ; 0xe000e000
    3a08:    b130       cbz r0, 0x3a18
    3a0a:    2801       cmp r0, #1
    3a0c:    6908       ldr r0, [r1, #16]
    3a0e:    d006       beq.n 0x3a1e
    3a10:    f020 0001  bic.w r0, r0, #1
    3a14:    6108       str r0, [r1, #16]
    3a16:    4770       bx r14
    3a18:    2000       movs r0, #0
    3a1a:    6188       str r0, [r1, #24]
    3a1c:    4770       bx r14
    3a1e:    f040 0001  orr.w r0, r0, #1
    3a22:    e7f7       b.n 0x3a14
    3a24:    e92d 41f0  stmdb r13!, {r4, r5, r6, r7, r8, r14}
    3a28:    4d20       ldr r5, [pc, #128]    ; (0x3aac)
    3a2a:    6868       ldr r0, [r5, #4]
    3a2c:    2800       cmp r0, #0
    3a2e:    d03a       beq.n 0x3aa6
    3a30:    481f       ldr r0, [pc, #124]    ; (0x3ab0)
    3a32:    f000 fa59  bl 0x3ee8
    3a36:    4604       mov r4, r0
    3a38:    2801       cmp r0, #1
    3a3a:    d101       bne.n 0x3a40
    3a3c:    f7fe f8ac  bl 0x1b98
    3a40:    4f1b       ldr r7, [pc, #108]    ; (0x3ab0)
    3a42:    f897 0032  ldrb.w r0, [r7, #50]    ; 0x32
    3a46:    2803       cmp r0, #3
    3a48:    d116       bne.n 0x3a78
    3a4a:    4e1a       ldr r6, [pc, #104]    ; (0x3ab4)
    3a4c:    6830       ldr r0, [r6, #0]
    3a4e:    f010 0fc0  tst.w r0, #192    ; 0xc0
    3a52:    d011       beq.n 0x3a78
    3a54:    2001       movs r0, #1
    3a56:    f7fd ffe1  bl 0x1a1c                   ; call function_8
    3a5a:    2000       movs r0, #0
    3a5c:    60e8       str r0, [r5, #12]
    3a5e:    f897 0032  ldrb.w r0, [r7, #50]    ; 0x32
    3a62:    2803       cmp r0, #3
    3a64:    d108       bne.n 0x3a78
    3a66:    6830       ldr r0, [r6, #0]
    3a68:    f010 0fc0  tst.w r0, #192    ; 0xc0
    3a6c:    d004       beq.n 0x3a78
    3a6e:    f000 fd69  bl 0x4544                   ; call function_12
    3a72:    2000       movs r0, #0
    3a74:    f7ff fc20  bl 0x32b8
    3a78:    f7fd f8fa  bl 0xc70
    3a7c:    2801       cmp r0, #1
    3a7e:    d008       beq.n 0x3a92
    3a80:    2c01       cmp r4, #1
    3a82:    d110       bne.n 0x3aa6
    3a84:    2000       movs r0, #0
    3a86:    f7fe f887  bl 0x1b98
    3a8a:    e8bd 41f0  ldmia.w r13!, {r4, r5, r6, r7, r8, r14}
    3a8e:    f7fd b8e7  b.w 0xc60
    3a92:    2c01       cmp r4, #1
    3a94:    d107       bne.n 0x3aa6
    3a96:    4806       ldr r0, [pc, #24]    ; (0x3ab0)
    3a98:    f000 fb0d  bl 0x40b6
    3a9c:    2801       cmp r0, #1
    3a9e:    d1f1       bne.n 0x3a84
    3aa0:    f000 fb31  bl 0x4106
    3aa4:    e7ee       b.n 0x3a84
    3aa6:    e8bd 81f0  ldmia.w r13!, {r4, r5, r6, r7, r8, r15}
    3aaa:    0000       movs r0, r0
    3aac:    0000       movs r0, r0
    3aae:    2000       movs r0, #0
    3ab0:    0234       lsls r4, r6, #8
    3ab2:    2000       movs r0, #0
    3ab4:    8000       strh r0, [r0, #0]
    3ab6:    400a       ands r2, r1
    3ab8:    4814       ldr r0, [pc, #80]    ; (0x3b0c)
    3aba:    2101       movs r1, #1
    3abc:    f8c0 1300  str.w r1, [r0, #768]    ; 0x300
    3ac0:    4a13       ldr r2, [pc, #76]    ; (0x3b10)
    3ac2:    f8c2 10a8  str.w r1, [r2, #168]    ; 0xa8
    3ac6:    f8d2 3108  ldr.w r3, [r2, #264]    ; 0x108
    3aca:    2b00       cmp r3, #0
    3acc:    d0fb       beq.n 0x3ac6
    3ace:    2300       movs r3, #0
    3ad0:    6213       str r3, [r2, #32]
    3ad2:    f04f 6310  mov.w r3, #150994944    ; 0x9000000
    3ad6:    6183       str r3, [r0, #24]
    3ad8:    f8c2 10a4  str.w r1, [r2, #164]    ; 0xa4
    3adc:    f8d2 3104  ldr.w r3, [r2, #260]    ; 0x104
    3ae0:    2b00       cmp r3, #0
    3ae2:    d0fb       beq.n 0x3adc
    3ae4:    4a0b       ldr r2, [pc, #44]    ; (0x3b14)
    3ae6:    6813       ldr r3, [r2, #0]
    3ae8:    f023 0307  bic.w r3, r3, #7
    3aec:    f103 0303  add.w r3, r3, #3
    3af0:    6013       str r3, [r2, #0]
    3af2:    6201       str r1, [r0, #32]
    3af4:    6842       ldr r2, [r0, #4]
    3af6:    f022 0203  bic.w r2, r2, #3
    3afa:    f102 0201  add.w r2, r2, #1
    3afe:    6042       str r2, [r0, #4]
    3b00:    6b42       ldr r2, [r0, #52]    ; 0x34
    3b02:    ebb1 7f92  cmp.w r1, r2, lsr #30
    3b06:    d1fb       bne.n 0x3b00
    3b08:    4770       bx r14
    3b0a:    0000       movs r0, r0
    3b0c:    8000       strh r0, [r0, #0]
    3b0e:    4008       ands r0, r1
    3b10:    0000       movs r0, r0
    3b12:    4310       orrs r0, r2
    3b14:    0200       lsls r0, r0, #8
    3b16:    4008       ands r0, r1
    3b18:    b570       push {r4, r5, r6, r14}
    3b1a:    4d16       ldr r5, [pc, #88]    ; (0x3b74)
    3b1c:    4816       ldr r0, [pc, #88]    ; (0x3b78)
    3b1e:    2400       movs r4, #0
    3b20:    6829       ldr r1, [r5, #0]
    3b22:    b159       cbz r1, 0x3b3c
    3b24:    68c1       ldr r1, [r0, #12]
    3b26:    2901       cmp r1, #1
    3b28:    d107       bne.n 0x3b3a
    3b2a:    60c4       str r4, [r0, #12]
    3b2c:    f100 0128  add.w r1, r0, #40    ; 0x28
    3b30:    2208       movs r2, #8
    3b32:    2001       movs r0, #1
    3b34:    f000 fc06  bl 0x4344
    3b38:    602c       str r4, [r5, #0]
    3b3a:    bd70       pop {r4, r5, r6, r15}
    3b3c:    4d0f       ldr r5, [pc, #60]    ; (0x3b7c)
    3b3e:    6829       ldr r1, [r5, #0]
    3b40:    2900       cmp r1, #0
    3b42:    d1fa       bne.n 0x3b3a
    3b44:    f105 060c  add.w r6, r5, #12
    3b48:    6831       ldr r1, [r6, #0]
    3b4a:    2900       cmp r1, #0
    3b4c:    d0f5       beq.n 0x3b3a
    3b4e:    68c1       ldr r1, [r0, #12]
    3b50:    2901       cmp r1, #1
    3b52:    d1f2       bne.n 0x3b3a
    3b54:    60c4       str r4, [r0, #12]
    3b56:    4908       ldr r1, [pc, #32]    ; (0x3b78)
    3b58:    2208       movs r2, #8
    3b5a:    3128       adds r1, #40    ; 0x28
    3b5c:    2001       movs r0, #1
    3b5e:    f000 fbf1  bl 0x4344
    3b62:    6830       ldr r0, [r6, #0]
    3b64:    f44f 617a  mov.w r1, #4000    ; 0xfa0
    3b68:    4348       muls r0, r1
    3b6a:    10c9       asrs r1, r1, #3
    3b6c:    fbb0 f0f1  udiv r0, r0, r1
    3b70:    6028       str r0, [r5, #0]
    3b72:    bd70       pop {r4, r5, r6, r15}
    3b74:    00e8       lsls r0, r5, #3
    3b76:    2000       movs r0, #0
    3b78:    0014       movs r4, r2
    3b7a:    2000       movs r0, #0
    3b7c:    0308       lsls r0, r1, #12
    3b7e:    2000       movs r0, #0
    3b80:    b570       push {r4, r5, r6, r14}
    3b82:    4d1b       ldr r5, [pc, #108]    ; (0x3bf0)
    3b84:    481b       ldr r0, [pc, #108]    ; (0x3bf4)
    3b86:    2400       movs r4, #0
    3b88:    6829       ldr r1, [r5, #0]
    3b8a:    b139       cbz r1, 0x3b9c
    3b8c:    6901       ldr r1, [r0, #16]
    3b8e:    2901       cmp r1, #1
    3b90:    d112       bne.n 0x3bb8
    3b92:    6104       str r4, [r0, #16]
    3b94:    2205       movs r2, #5
    3b96:    f100 0118  add.w r1, r0, #24
    3b9a:    e009       b.n 0x3bb0
    3b9c:    4d16       ldr r5, [pc, #88]    ; (0x3bf8)
    3b9e:    6829       ldr r1, [r5, #0]
    3ba0:    b159       cbz r1, 0x3bba
    3ba2:    6901       ldr r1, [r0, #16]
    3ba4:    2901       cmp r1, #1
    3ba6:    d107       bne.n 0x3bb8
    3ba8:    6104       str r4, [r0, #16]
    3baa:    4912       ldr r1, [pc, #72]    ; (0x3bf4)
    3bac:    2202       movs r2, #2
    3bae:    1d09       adds r1, r1, #4
    3bb0:    2002       movs r0, #2
    3bb2:    f000 fbc7  bl 0x4344
    3bb6:    602c       str r4, [r5, #0]
    3bb8:    bd70       pop {r4, r5, r6, r15}
    3bba:    4d10       ldr r5, [pc, #64]    ; (0x3bfc)
    3bbc:    6829       ldr r1, [r5, #0]
    3bbe:    b139       cbz r1, 0x3bd0
    3bc0:    6901       ldr r1, [r0, #16]
    3bc2:    2901       cmp r1, #1
    3bc4:    d1f8       bne.n 0x3bb8
    3bc6:    6104       str r4, [r0, #16]
    3bc8:    490a       ldr r1, [pc, #40]    ; (0x3bf4)
    3bca:    2205       movs r2, #5
    3bcc:    3120       adds r1, #32
    3bce:    e7ef       b.n 0x3bb0
    3bd0:    4d0b       ldr r5, [pc, #44]    ; (0x3c00)
    3bd2:    7829       ldrb r1, [r5, #0]
    3bd4:    2900       cmp r1, #0
    3bd6:    d0ef       beq.n 0x3bb8
    3bd8:    6901       ldr r1, [r0, #16]
    3bda:    2901       cmp r1, #1
    3bdc:    d1ec       bne.n 0x3bb8
    3bde:    6104       str r4, [r0, #16]
    3be0:    221f       movs r2, #31
    3be2:    4908       ldr r1, [pc, #32]    ; (0x3c04)
    3be4:    2002       movs r0, #2
    3be6:    f000 fbad  bl 0x4344
    3bea:    702c       strb r4, [r5, #0]
    3bec:    bd70       pop {r4, r5, r6, r15}
    3bee:    0000       movs r0, r0
    3bf0:    00f0       lsls r0, r6, #3
    3bf2:    2000       movs r0, #0
    3bf4:    0014       movs r4, r2
    3bf6:    2000       movs r0, #0
    3bf8:    00f4       lsls r4, r6, #3
    3bfa:    2000       movs r0, #0
    3bfc:    00f8       lsls r0, r7, #3
    3bfe:    2000       movs r0, #0
    3c00:    00ec       lsls r4, r5, #3
    3c02:    2000       movs r0, #0
    3c04:    032c       lsls r4, r5, #12
    3c06:    2000       movs r0, #0
    3c08:    4901       ldr r1, [pc, #4]    ; (0x3c10)
    3c0a:    2001       movs r0, #1
    3c0c:    60c8       str r0, [r1, #12]
    3c0e:    4770       bx r14
    3c10:    0014       movs r4, r2
    3c12:    2000       movs r0, #0
    3c14:    4901       ldr r1, [pc, #4]    ; (0x3c1c)
    3c16:    2001       movs r0, #1
    3c18:    6108       str r0, [r1, #16]
    3c1a:    4770       bx r14
    3c1c:    0014       movs r4, r2
    3c1e:    2000       movs r0, #0
    3c20:    b510       push {r4, r14}
    3c22:    4c0a       ldr r4, [pc, #40]    ; (0x3c4c)
    3c24:    e9d4 1001  ldrd r1, r0, [r4, #4]
    3c28:    4401       add r1, r0
    3c2a:    2240       movs r2, #64    ; 0x40
    3c2c:    2004       movs r0, #4
    3c2e:    f000 fb59  bl 0x42e4
    3c32:    6861       ldr r1, [r4, #4]
    3c34:    4408       add r0, r1
    3c36:    f3c0 0009  ubfx r0, r0, #0, #10
    3c3a:    6060       str r0, [r4, #4]
    3c3c:    4904       ldr r1, [pc, #16]    ; (0x3c50)
    3c3e:    2001       movs r0, #1
    3c40:    6148       str r0, [r1, #20]
    3c42:    e8bd 4010  ldmia.w r13!, {r4, r14}
    3c46:    f7fc bb97  b.w 0x378
    3c4a:    0000       movs r0, r0
    3c4c:    0368       lsls r0, r5, #13
    3c4e:    2000       movs r0, #0
    3c50:    0014       movs r4, r2
    3c52:    2000       movs r0, #0
    3c54:    b570       push {r4, r5, r6, r14}
    3c56:    4604       mov r4, r0
    3c58:    78c2       ldrb r2, [r0, #3]
    3c5a:    7880       ldrb r0, [r0, #2]
    3c5c:    88e5       ldrh r5, [r4, #6]
    3c5e:    88a1       ldrh r1, [r4, #4]
    3c60:    2a01       cmp r2, #1
    3c62:    d12b       bne.n 0x3cbc
    3c64:    b169       cbz r1, 0x3c82
    3c66:    2901       cmp r1, #1
    3c68:    d00d       beq.n 0x3c86
    3c6a:    2902       cmp r1, #2
    3c6c:    d126       bne.n 0x3cbc
    3c6e:    2801       cmp r0, #1
    3c70:    d01d       beq.n 0x3cae
    3c72:    2802       cmp r0, #2
    3c74:    d023       beq.n 0x3cbe
    3c76:    2803       cmp r0, #3
    3c78:    d024       beq.n 0x3cc4
    3c7a:    2804       cmp r0, #4
    3c7c:    d11e       bne.n 0x3cbc
    3c7e:    4813       ldr r0, [pc, #76]    ; (0x3ccc)
    3c80:    e017       b.n 0x3cb2
    3c82:    4813       ldr r0, [pc, #76]    ; (0x3cd0)
    3c84:    e015       b.n 0x3cb2
    3c86:    4813       ldr r0, [pc, #76]    ; (0x3cd4)
    3c88:    f7fc fdc3  bl 0x812
    3c8c:    2800       cmp r0, #0
    3c8e:    d115       bne.n 0x3cbc
    3c90:    4a10       ldr r2, [pc, #64]    ; (0x3cd4)
    3c92:    2043       movs r0, #67    ; 0x43
    3c94:    2300       movs r3, #0
    3c96:    6891       ldr r1, [r2, #8]
    3c98:    e001       b.n 0x3c9e
    3c9a:    540b       strb r3, [r1, r0]
    3c9c:    1e40       subs r0, r0, #1
    3c9e:    6856       ldr r6, [r2, #4]
    3ca0:    4286       cmp r6, r0
    3ca2:    d9fa       bls.n 0x3c9a
    3ca4:    480b       ldr r0, [pc, #44]    ; (0x3cd4)
    3ca6:    61e1       str r1, [r4, #28]
    3ca8:    f7fc fd7c  bl 0x7a4
    3cac:    e002       b.n 0x3cb4
    3cae:    4808       ldr r0, [pc, #32]    ; (0x3cd0)
    3cb0:    3824       subs r0, #36    ; 0x24
    3cb2:    61e0       str r0, [r4, #28]
    3cb4:    2001       movs r0, #1
    3cb6:    6225       str r5, [r4, #32]
    3cb8:    f884 0024  strb.w r0, [r4, #36]    ; 0x24
    3cbc:    bd70       pop {r4, r5, r6, r15}
    3cbe:    4804       ldr r0, [pc, #16]    ; (0x3cd0)
    3cc0:    3810       subs r0, #16
    3cc2:    e7f6       b.n 0x3cb2
    3cc4:    4802       ldr r0, [pc, #8]    ; (0x3cd0)
    3cc6:    3808       subs r0, #8
    3cc8:    e7f3       b.n 0x3cb2
    3cca:    0000       movs r0, r0
    3ccc:    032c       lsls r4, r5, #12
    3cce:    2000       movs r0, #0
    3cd0:    003c       movs r4, r7
    3cd2:    2000       movs r0, #0
    3cd4:    0358       lsls r0, r3, #13
    3cd6:    2000       movs r0, #0
    3cd8:    4908       ldr r1, [pc, #32]    ; (0x3cfc)
    3cda:    6001       str r1, [r0, #0]
    3cdc:    4908       ldr r1, [pc, #32]    ; (0x3d00)
    3cde:    6081       str r1, [r0, #8]
    3ce0:    4908       ldr r1, [pc, #32]    ; (0x3d04)
    3ce2:    6181       str r1, [r0, #24]
    3ce4:    4908       ldr r1, [pc, #32]    ; (0x3d08)
    3ce6:    6241       str r1, [r0, #36]    ; 0x24
    3ce8:    4908       ldr r1, [pc, #32]    ; (0x3d0c)
    3cea:    62c1       str r1, [r0, #44]    ; 0x2c
    3cec:    4908       ldr r1, [pc, #32]    ; (0x3d10)
    3cee:    6301       str r1, [r0, #48]    ; 0x30
    3cf0:    4908       ldr r1, [pc, #32]    ; (0x3d14)
    3cf2:    6381       str r1, [r0, #56]    ; 0x38
    3cf4:    2000       movs r0, #0
    3cf6:    f000 b88b  b.w 0x3e10
    3cfa:    0000       movs r0, r0
    3cfc:    6919       ldr r1, [r3, #16]
    3cfe:    0000       movs r0, r0
    3d00:    6a11       ldr r1, [r2, #32]
    3d02:    0000       movs r0, r0
    3d04:    6a85       ldr r5, [r0, #40]    ; 0x28
    3d06:    0000       movs r0, r0
    3d08:    695d       ldr r5, [r3, #20]
    3d0a:    0000       movs r0, r0
    3d0c:    6809       ldr r1, [r1, #0]
    3d0e:    0000       movs r0, r0
    3d10:    6815       ldr r5, [r2, #0]
    3d12:    0000       movs r0, r0
    3d14:    6821       ldr r1, [r4, #0]
    3d16:    0000       movs r0, r0
    3d18:    480e       ldr r0, [pc, #56]    ; (0x3d54)
    3d1a:    b510       push {r4, r14}
    3d1c:    6801       ldr r1, [r0, #0]
    3d1e:    2901       cmp r1, #1
    3d20:    d111       bne.n 0x3d46
    3d22:    2100       movs r1, #0
    3d24:    6001       str r1, [r0, #0]
    3d26:    4c0c       ldr r4, [pc, #48]    ; (0x3d58)
    3d28:    7820       ldrb r0, [r4, #0]
    3d2a:    f000 0001  and.w r0, r0, #1
    3d2e:    f7fd fe73  bl 0x1a18
    3d32:    7820       ldrb r0, [r4, #0]
    3d34:    f3c0 0040  ubfx r0, r0, #1, #1
    3d38:    f7fd fe5c  bl 0x19f4
    3d3c:    7820       ldrb r0, [r4, #0]
    3d3e:    f3c0 0080  ubfx r0, r0, #2, #1
    3d42:    f7fd fe6a  bl 0x1a1a
    3d46:    f7ff fee7  bl 0x3b18
    3d4a:    e8bd 4010  ldmia.w r13!, {r4, r14}
    3d4e:    f7ff bf17  b.w 0x3b80
    3d52:    0000       movs r0, r0
    3d54:    0320       lsls r0, r4, #12
    3d56:    2000       movs r0, #0
    3d58:    0014       movs r4, r2
    3d5a:    2000       movs r0, #0
    3d5c:    b4f0       push {r4, r5, r6, r7}
    3d5e:    8801       ldrh r1, [r0, #0]
    3d60:    f44f 7580  mov.w r5, #256    ; 0x100
    3d64:    f640 1721  movw r7, #2337    ; 0x921
    3d68:    006e       lsls r6, r5, #1
    3d6a:    4c26       ldr r4, [pc, #152]    ; (0x3e04)
    3d6c:    2301       movs r3, #1
    3d6e:    f6a1 1221  subw r2, r1, #2337    ; 0x921
    3d72:    42b9       cmp r1, r7
    3d74:    d01e       beq.n 0x3db4
    3d76:    dc0a       bgt.n 0x3d8e
    3d78:    f512 61f0  adds.w r1, r2, #1920    ; 0x780
    3d7c:    d011       beq.n 0x3da2
    3d7e:    42a9       cmp r1, r5
    3d80:    d012       beq.n 0x3da8
    3d82:    42b1       cmp r1, r6
    3d84:    d12a       bne.n 0x3ddc
    3d86:    4920       ldr r1, [pc, #128]    ; (0x3e08)
    3d88:    e9c0 1307  strd r1, r3, [r0, #28]
    3d8c:    e037       b.n 0x3dfe
    3d8e:    2700       movs r7, #0
    3d90:    42aa       cmp r2, r5
    3d92:    d025       beq.n 0x3de0
    3d94:    42b2       cmp r2, r6
    3d96:    d121       bne.n 0x3ddc
    3d98:    4a1b       ldr r2, [pc, #108]    ; (0x3e08)
    3d9a:    7881       ldrb r1, [r0, #2]
    3d9c:    3a08       subs r2, #8
    3d9e:    6091       str r1, [r2, #8]
    3da0:    e02c       b.n 0x3dfc
    3da2:    bcf0       pop {r4, r5, r6, r7}
    3da4:    f7ff bf56  b.w 0x3c54
    3da8:    8881       ldrh r1, [r0, #4]
    3daa:    2900       cmp r1, #0
    3dac:    d116       bne.n 0x3ddc
    3dae:    e9c0 4307  strd r4, r3, [r0, #28]
    3db2:    e024       b.n 0x3dfe
    3db4:    78c3       ldrb r3, [r0, #3]
    3db6:    88c1       ldrh r1, [r0, #6]
    3db8:    8882       ldrh r2, [r0, #4]
    3dba:    6201       str r1, [r0, #32]
    3dbc:    2b02       cmp r3, #2
    3dbe:    d10d       bne.n 0x3ddc
    3dc0:    2a00       cmp r2, #0
    3dc2:    d10b       bne.n 0x3ddc
    3dc4:    4b10       ldr r3, [pc, #64]    ; (0x3e08)
    3dc6:    3b08       subs r3, #8
    3dc8:    61c3       str r3, [r0, #28]
    3dca:    4b10       ldr r3, [pc, #64]    ; (0x3e0c)
    3dcc:    e9c0 320a  strd r3, r2, [r0, #40]    ; 0x28
    3dd0:    2202       movs r2, #2
    3dd2:    f880 2024  strb.w r2, [r0, #36]    ; 0x24
    3dd6:    480b       ldr r0, [pc, #44]    ; (0x3e04)
    3dd8:    3038       adds r0, #56    ; 0x38
    3dda:    6001       str r1, [r0, #0]
    3ddc:    bcf0       pop {r4, r5, r6, r7}
    3dde:    4770       bx r14
    3de0:    8882       ldrh r2, [r0, #4]
    3de2:    78c1       ldrb r1, [r0, #3]
    3de4:    2a00       cmp r2, #0
    3de6:    d1f9       bne.n 0x3ddc
    3de8:    f44f 627a  mov.w r2, #4000    ; 0xfa0
    3dec:    6021       str r1, [r4, #0]
    3dee:    4351       muls r1, r2
    3df0:    10d2       asrs r2, r2, #3
    3df2:    fbb1 f1f2  udiv r1, r1, r2
    3df6:    4a03       ldr r2, [pc, #12]    ; (0x3e04)
    3df8:    3a0c       subs r2, #12
    3dfa:    6011       str r1, [r2, #0]
    3dfc:    6207       str r7, [r0, #32]
    3dfe:    f880 3024  strb.w r3, [r0, #36]    ; 0x24
    3e02:    e7eb       b.n 0x3ddc
    3e04:    0314       lsls r4, r2, #12
    3e06:    2000       movs r0, #0
    3e08:    001c       movs r4, r3
    3e0a:    2000       movs r0, #0
    3e0c:    6a75       ldr r5, [r6, #36]    ; 0x24
    3e0e:    0000       movs r0, r0
    3e10:    4815       ldr r0, [pc, #84]    ; (0x3e68)
    3e12:    b510       push {r4, r14}
    3e14:    2301       movs r3, #1
    3e16:    60c3       str r3, [r0, #12]
    3e18:    6103       str r3, [r0, #16]
    3e1a:    2100       movs r1, #0
    3e1c:    6141       str r1, [r0, #20]
    3e1e:    f100 0228  add.w r2, r0, #40    ; 0x28
    3e22:    2005       movs r0, #5
    3e24:    7011       strb r1, [r2, #0]
    3e26:    eb02 0400  add.w r4, r2, r0
    3e2a:    1e40       subs r0, r0, #1
    3e2c:    70a1       strb r1, [r4, #2]
    3e2e:    d5fa       bpl.n 0x3e26
    3e30:    480d       ldr r0, [pc, #52]    ; (0x3e68)
    3e32:    2202       movs r2, #2
    3e34:    1d00       adds r0, r0, #4
    3e36:    7003       strb r3, [r0, #0]
    3e38:    7041       strb r1, [r0, #1]
    3e3a:    3014       adds r0, #20
    3e3c:    7002       strb r2, [r0, #0]
    3e3e:    f8c0 1001  str.w r1, [r0, #1]
    3e42:    3008       adds r0, #8
    3e44:    2203       movs r2, #3
    3e46:    7002       strb r2, [r0, #0]
    3e48:    7081       strb r1, [r0, #2]
    3e4a:    70c1       strb r1, [r0, #3]
    3e4c:    7101       strb r1, [r0, #4]
    3e4e:    4a07       ldr r2, [pc, #28]    ; (0x3e6c)
    3e50:    7041       strb r1, [r0, #1]
    3e52:    2004       movs r0, #4
    3e54:    7010       strb r0, [r2, #0]
    3e56:    201c       movs r0, #28
    3e58:    eb02 0400  add.w r4, r2, r0
    3e5c:    1e40       subs r0, r0, #1
    3e5e:    70a1       strb r1, [r4, #2]
    3e60:    d5fa       bpl.n 0x3e58
    3e62:    4803       ldr r0, [pc, #12]    ; (0x3e70)
    3e64:    6003       str r3, [r0, #0]
    3e66:    bd10       pop {r4, r15}
    3e68:    0014       movs r4, r2
    3e6a:    2000       movs r0, #0
    3e6c:    032c       lsls r4, r5, #12
    3e6e:    2000       movs r0, #0
    3e70:    0010       movs r0, r2
    3e72:    2000       movs r0, #0
    3e74:    4a02       ldr r2, [pc, #8]    ; (0x3e80)
    3e76:    2101       movs r1, #1
    3e78:    f842 1020  str.w r1, [r2, r0, lsl #2]
    3e7c:    4770       bx r14
    3e7e:    0000       movs r0, r0
    3e80:    0320       lsls r0, r4, #12
    3e82:    2000       movs r0, #0
    3e84:    78c2       ldrb r2, [r0, #3]
    3e86:    8881       ldrh r1, [r0, #4]
    3e88:    2301       movs r3, #1
    3e8a:    2a21       cmp r2, #33    ; 0x21
    3e8c:    d007       beq.n 0x3e9e
    3e8e:    2a22       cmp r2, #34    ; 0x22
    3e90:    d121       bne.n 0x3ed6
    3e92:    b1a9       cbz r1, 0x3ec0
    3e94:    2901       cmp r1, #1
    3e96:    d017       beq.n 0x3ec8
    3e98:    2902       cmp r1, #2
    3e9a:    d11a       bne.n 0x3ed2
    3e9c:    e01c       b.n 0x3ed8
    3e9e:    b121       cbz r1, 0x3eaa
    3ea0:    2901       cmp r1, #1
    3ea2:    d005       beq.n 0x3eb0
    3ea4:    2902       cmp r1, #2
    3ea6:    d106       bne.n 0x3eb6
    3ea8:    e007       b.n 0x3eba
    3eaa:    68c1       ldr r1, [r0, #12]
    3eac:    3112       adds r1, #18
    3eae:    e001       b.n 0x3eb4
    3eb0:    68c1       ldr r1, [r0, #12]
    3eb2:    312b       adds r1, #43    ; 0x2b
    3eb4:    61c1       str r1, [r0, #28]
    3eb6:    2109       movs r1, #9
    3eb8:    e00a       b.n 0x3ed0
    3eba:    68c1       ldr r1, [r0, #12]
    3ebc:    314b       adds r1, #75    ; 0x4b
    3ebe:    e7f9       b.n 0x3eb4
    3ec0:    4908       ldr r1, [pc, #32]    ; (0x3ee4)
    3ec2:    61c1       str r1, [r0, #28]
    3ec4:    2140       movs r1, #64    ; 0x40
    3ec6:    e003       b.n 0x3ed0
    3ec8:    4906       ldr r1, [pc, #24]    ; (0x3ee4)
    3eca:    3140       adds r1, #64    ; 0x40
    3ecc:    61c1       str r1, [r0, #28]
    3ece:    2122       movs r1, #34    ; 0x22
    3ed0:    6201       str r1, [r0, #32]
    3ed2:    f880 3024  strb.w r3, [r0, #36]    ; 0x24
    3ed6:    4770       bx r14
    3ed8:    4902       ldr r1, [pc, #8]    ; (0x3ee4)
    3eda:    3164       adds r1, #100    ; 0x64
    3edc:    61c1       str r1, [r0, #28]
    3ede:    21c6       movs r1, #198    ; 0xc6
    3ee0:    e7f6       b.n 0x3ed0
    3ee2:    0000       movs r0, r0
    3ee4:    8998       ldrh r0, [r3, #12]
    3ee6:    0000       movs r0, r0
    3ee8:    f890 0034  ldrb.w r0, [r0, #52]    ; 0x34
    3eec:    f3c0 0040  ubfx r0, r0, #1, #1
    3ef0:    4770       bx r14
    3ef2:    e92d 41f0  stmdb r13!, {r4, r5, r6, r7, r8, r14}
    3ef6:    4604       mov r4, r0
    3ef8:    f000 fa60  bl 0x43bc
    3efc:    4605       mov r5, r0
    3efe:    0780       lsls r0, r0, #30
    3f00:    d506       bpl.n 0x3f10
    3f02:    6ce1       ldr r1, [r4, #76]    ; 0x4c
    3f04:    b109       cbz r1, 0x3f0a
    3f06:    6d20       ldr r0, [r4, #80]    ; 0x50
    3f08:    4788       blx r1
    3f0a:    2002       movs r0, #2
    3f0c:    f000 f910  bl 0x4130
    3f10:    06e8       lsls r0, r5, #27
    3f12:    d50e       bpl.n 0x3f32
    3f14:    2010       movs r0, #16
    3f16:    f000 f90b  bl 0x4130
    3f1a:    f894 0032  ldrb.w r0, [r4, #50]    ; 0x32
    3f1e:    2802       cmp r0, #2
    3f20:    d307       bcc.n 0x3f32
    3f22:    f000 fa55  bl 0x43d0
    3f26:    f814 0f32  ldrb.w r0, [r4, #50]!
    3f2a:    7060       strb r0, [r4, #1]
    3f2c:    2003       movs r0, #3
    3f2e:    f804 0932  strb.w r0, [r4], #-50
    3f32:    0768       lsls r0, r5, #29
    3f34:    f04f 0700  mov.w r7, #0
    3f38:    d523       bpl.n 0x3f82
    3f3a:    f104 0420  add.w r4, r4, #32
    3f3e:    f04f 30ff  mov.w r0, #4294967295    ; 0xffffffff
    3f42:    6e66       ldr r6, [r4, #100]    ; 0x64
    3f44:    6020       str r0, [r4, #0]
    3f46:    7427       strb r7, [r4, #16]
    3f48:    7467       strb r7, [r4, #17]
    3f4a:    7d20       ldrb r0, [r4, #20]
    3f4c:    f020 0002  bic.w r0, r0, #2
    3f50:    7520       strb r0, [r4, #20]
    3f52:    f04f 0004  mov.w r0, #4
    3f56:    74a0       strb r0, [r4, #18]
    3f58:    61a7       str r7, [r4, #24]
    3f5a:    f000 f937  bl 0x41cc
    3f5e:    f000 fa3f  bl 0x43e0
    3f62:    2000       movs r0, #0
    3f64:    6e61       ldr r1, [r4, #100]    ; 0x64
    3f66:    f000 f98d  bl 0x4284
    3f6a:    6830       ldr r0, [r6, #0]
    3f6c:    f000 fa0e  bl 0x438c
    3f70:    6a61       ldr r1, [r4, #36]    ; 0x24
    3f72:    f1a4 0420  sub.w r4, r4, #32
    3f76:    b109       cbz r1, 0x3f7c
    3f78:    6ca0       ldr r0, [r4, #72]    ; 0x48
    3f7a:    4788       blx r1
    3f7c:    2004       movs r0, #4
    3f7e:    f000 f8d7  bl 0x4130
    3f82:    0728       lsls r0, r5, #28
    3f84:    d508       bpl.n 0x3f98
    3f86:    f000 fa2b  bl 0x43e0
    3f8a:    f894 0033  ldrb.w r0, [r4, #51]    ; 0x33
    3f8e:    f884 0032  strb.w r0, [r4, #50]    ; 0x32
    3f92:    2008       movs r0, #8
    3f94:    f000 f8cc  bl 0x4130
    3f98:    05e8       lsls r0, r5, #23
    3f9a:    f44f 7680  mov.w r6, #256    ; 0x100
    3f9e:    d57a       bpl.n 0x4096
    3fa0:    2000       movs r0, #0
    3fa2:    f000 f95f  bl 0x4264
    3fa6:    4605       mov r5, r0
    3fa8:    0580       lsls r0, r0, #22
    3faa:    d522       bpl.n 0x3ff2
    3fac:    4620       mov r0, r4
    3fae:    f000 fa7b  bl 0x44a8
    3fb2:    f884 7024  strb.w r7, [r4, #36]    ; 0x24
    3fb6:    6227       str r7, [r4, #32]
    3fb8:    7820       ldrb r0, [r4, #0]
    3fba:    f010 0060  ands.w r0, r0, #96    ; 0x60
    3fbe:    d002       beq.n 0x3fc6
    3fc0:    2820       cmp r0, #32
    3fc2:    d108       bne.n 0x3fd6
    3fc4:    e003       b.n 0x3fce
    3fc6:    4620       mov r0, r4
    3fc8:    f000 fbae  bl 0x4728
    3fcc:    e003       b.n 0x3fd6
    3fce:    6e21       ldr r1, [r4, #96]    ; 0x60
    3fd0:    b109       cbz r1, 0x3fd6
    3fd2:    4620       mov r0, r4
    3fd4:    4788       blx r1
    3fd6:    f894 0024  ldrb.w r0, [r4, #36]    ; 0x24
    3fda:    2801       cmp r0, #1
    3fdc:    d017       beq.n 0x400e
    3fde:    2802       cmp r0, #2
    3fe0:    d01e       beq.n 0x4020
    3fe2:    2000       movs r0, #0
    3fe4:    f000 f99e  bl 0x4324
    3fe8:    f44f 7100  mov.w r1, #512    ; 0x200
    3fec:    2000       movs r0, #0
    3fee:    f000 f901  bl 0x41f4
    3ff2:    07a8       lsls r0, r5, #30
    3ff4:    d52e       bpl.n 0x4054
    3ff6:    2102       movs r1, #2
    3ff8:    2000       movs r0, #0
    3ffa:    f000 f8fb  bl 0x41f4
    3ffe:    6a20       ldr r0, [r4, #32]
    4000:    1c40       adds r0, r0, #1
    4002:    d027       beq.n 0x4054
    4004:    f894 0024  ldrb.w r0, [r4, #36]    ; 0x24
    4008:    2802       cmp r0, #2
    400a:    d00f       beq.n 0x402c
    400c:    e022       b.n 0x4054
    400e:    88e0       ldrh r0, [r4, #6]
    4010:    6a21       ldr r1, [r4, #32]
    4012:    4281       cmp r1, r0
    4014:    dd00       ble.n 0x4018
    4016:    6220       str r0, [r4, #32]
    4018:    4620       mov r0, r4
    401a:    f000 fb49  bl 0x46b0
    401e:    e7e3       b.n 0x3fe8
    4020:    2200       movs r2, #0
    4022:    4611       mov r1, r2
    4024:    4610       mov r0, r2
    4026:    f000 f98d  bl 0x4344
    402a:    e7dd       b.n 0x3fe8
    402c:    2240       movs r2, #64    ; 0x40
    402e:    2000       movs r0, #0
    4030:    69e1       ldr r1, [r4, #28]
    4032:    f000 f957  bl 0x42e4
    4036:    69e1       ldr r1, [r4, #28]
    4038:    4401       add r1, r0
    403a:    61e1       str r1, [r4, #28]
    403c:    6a21       ldr r1, [r4, #32]
    403e:    1a08       subs r0, r1, r0
    4040:    6220       str r0, [r4, #32]
    4042:    d107       bne.n 0x4054
    4044:    2001       movs r0, #1
    4046:    f884 0024  strb.w r0, [r4, #36]    ; 0x24
    404a:    6aa1       ldr r1, [r4, #40]    ; 0x28
    404c:    b111       cbz r1, 0x4054
    404e:    6ae0       ldr r0, [r4, #44]    ; 0x2c
    4050:    4788       blx r1
    4052:    62a7       str r7, [r4, #40]    ; 0x28
    4054:    06e8       lsls r0, r5, #27
    4056:    d506       bpl.n 0x4066
    4058:    4620       mov r0, r4
    405a:    f000 fb29  bl 0x46b0
    405e:    2110       movs r1, #16
    4060:    2000       movs r0, #0
    4062:    f000 f8c7  bl 0x41f4
    4066:    4630       mov r0, r6
    4068:    f000 f862  bl 0x4130
    406c:    e013       b.n 0x4096
    406e:    4628       mov r0, r5
    4070:    f000 f8f8  bl 0x4264
    4074:    f010 0f12  tst.w r0, #18
    4078:    d00d       beq.n 0x4096
    407a:    2112       movs r1, #18
    407c:    4628       mov r0, r5
    407e:    f000 f8b9  bl 0x41f4
    4082:    fa06 f005  lsl.w r0, r6, r5
    4086:    f000 f853  bl 0x4130
    408a:    eb04 0085  add.w r0, r4, r5, lsl #2
    408e:    6e41       ldr r1, [r0, #100]    ; 0x64
    4090:    b109       cbz r1, 0x4096
    4092:    4628       mov r0, r5
    4094:    4788       blx r1
    4096:    f000 f991  bl 0x43bc
    409a:    f000 f97f  bl 0x439c
    409e:    4605       mov r5, r0
    40a0:    1c40       adds r0, r0, #1
    40a2:    d1e4       bne.n 0x406e
    40a4:    e8bd 81f0  ldmia.w r13!, {r4, r5, r6, r7, r8, r15}
    40a8:    f100 0030  add.w r0, r0, #48    ; 0x30
    40ac:    2102       movs r1, #2
    40ae:    7081       strb r1, [r0, #2]
    40b0:    6d40       ldr r0, [r0, #84]    ; 0x54
    40b2:    f000 b98b  b.w 0x43cc
    40b6:    f890 0032  ldrb.w r0, [r0, #50]    ; 0x32
    40ba:    2803       cmp r0, #3
    40bc:    d001       beq.n 0x40c2
    40be:    2000       movs r0, #0
    40c0:    4770       bx r14
    40c2:    2001       movs r0, #1
    40c4:    4770       bx r14
    40c6:    b510       push {r4, r14}
    40c8:    f100 0430  add.w r4, r0, #48    ; 0x30
    40cc:    7920       ldrb r0, [r4, #4]
    40ce:    f3c0 0100  ubfx r1, r0, #0, #1
    40d2:    6d60       ldr r0, [r4, #84]    ; 0x54
    40d4:    f000 f98c  bl 0x43f0
    40d8:    78a0       ldrb r0, [r4, #2]
    40da:    f1a4 0430  sub.w r4, r4, #48    ; 0x30
    40de:    2803       cmp r0, #3
    40e0:    d105       bne.n 0x40ee
    40e2:    f8d4 1088  ldr.w r1, [r4, #136]    ; 0x88
    40e6:    b111       cbz r1, 0x40ee
    40e8:    f8d4 008c  ldr.w r0, [r4, #140]    ; 0x8c
    40ec:    4788       blx r1
    40ee:    6be1       ldr r1, [r4, #60]    ; 0x3c
    40f0:    2900       cmp r1, #0
    40f2:    d007       beq.n 0x4104
    40f4:    f894 0032  ldrb.w r0, [r4, #50]    ; 0x32
    40f8:    2806       cmp r0, #6
    40fa:    d103       bne.n 0x4104
    40fc:    6c20       ldr r0, [r4, #64]    ; 0x40
    40fe:    e8bd 4010  ldmia.w r13!, {r4, r14}
    4102:    4708       bx r1
    4104:    bd10       pop {r4, r15}
    4106:    b510       push {r4, r14}
    4108:    f000 f96a  bl 0x43e0
    410c:    e8bd 4010  ldmia.w r13!, {r4, r14}
    4110:    f000 b9d2  b.w 0x44b8
    4114:    4904       ldr r1, [pc, #16]    ; (0x4128)
    4116:    6001       str r1, [r0, #0]
    4118:    3114       adds r1, #20
    411a:    6041       str r1, [r0, #4]
    411c:    4903       ldr r1, [pc, #12]    ; (0x412c)
    411e:    6081       str r1, [r0, #8]
    4120:    2104       movs r1, #4
    4122:    60c1       str r1, [r0, #12]
    4124:    4770       bx r14
    4126:    0000       movs r0, r0
    4128:    8ac4       ldrh r4, [r0, #22]
    412a:    0000       movs r0, r0
    412c:    0044       lsls r4, r0, #1
    412e:    2000       movs r0, #0
    4130:    4901       ldr r1, [pc, #4]    ; (0x4138)
    4132:    6088       str r0, [r1, #8]
    4134:    4770       bx r14
    4136:    0000       movs r0, r0
    4138:    8000       strh r0, [r0, #0]
    413a:    400a       ands r2, r1
    413c:    b510       push {r4, r14}
    413e:    2101       movs r1, #1
    4140:    2040       movs r0, #64    ; 0x40
    4142:    f7fc fb87  bl 0x854
    4146:    2101       movs r1, #1
    4148:    0288       lsls r0, r1, #10
    414a:    f7fc fb6b  bl 0x824
    414e:    2002       movs r0, #2
    4150:    f7fc fb8c  bl 0x86c
    4154:    490c       ldr r1, [pc, #48]    ; (0x4188)
    4156:    f1a1 000c  sub.w r0, r1, #12
    415a:    6001       str r1, [r0, #0]
    415c:    490b       ldr r1, [pc, #44]    ; (0x418c)
    415e:    6041       str r1, [r0, #4]
    4160:    387c       subs r0, #124    ; 0x7c
    4162:    f7ff ffd7  bl 0x4114
    4166:    4808       ldr r0, [pc, #32]    ; (0x4188)
    4168:    3854       subs r0, #84    ; 0x54
    416a:    f7ff fdb5  bl 0x3cd8
    416e:    4806       ldr r0, [pc, #24]    ; (0x4188)
    4170:    3890       subs r0, #144    ; 0x90
    4172:    f7ff ff99  bl 0x40a8
    4176:    4906       ldr r1, [pc, #24]    ; (0x4190)
    4178:    f44f 1000  mov.w r0, #2097152    ; 0x200000
    417c:    f8c1 0100  str.w r0, [r1, #256]    ; 0x100
    4180:    e8bd 4010  ldmia.w r13!, {r4, r14}
    4184:    f7fc bb02  b.w 0x78c
    4188:    02c4       lsls r4, r0, #11
    418a:    2000       movs r0, #0
    418c:    6625       str r5, [r4, #96]    ; 0x60
    418e:    0000       movs r0, r0
    4190:    e004       b.n 0x419c
    4192:    e000       b.n 0x4196
    4194:    4905       ldr r1, [pc, #20]    ; (0x41ac)
    4196:    2801       cmp r0, #1
    4198:    6808       ldr r0, [r1, #0]
    419a:    d003       beq.n 0x41a4
    419c:    f420 6000  bic.w r0, r0, #2048    ; 0x800
    41a0:    6008       str r0, [r1, #0]
    41a2:    4770       bx r14
    41a4:    f440 6000  orr.w r0, r0, #2048    ; 0x800
    41a8:    e7fa       b.n 0x41a0
    41aa:    0000       movs r0, r0
    41ac:    8000       strh r0, [r0, #0]
    41ae:    400a       ands r2, r1
    41b0:    4905       ldr r1, [pc, #20]    ; (0x41c8)
    41b2:    2801       cmp r0, #1
    41b4:    6808       ldr r0, [r1, #0]
    41b6:    d003       beq.n 0x41c0
    41b8:    f420 6080  bic.w r0, r0, #1024    ; 0x400
    41bc:    6008       str r0, [r1, #0]
    41be:    4770       bx r14
    41c0:    f440 6080  orr.w r0, r0, #1024    ; 0x400
    41c4:    e7fa       b.n 0x41bc
    41c6:    0000       movs r0, r0
    41c8:    8000       strh r0, [r0, #0]
    41ca:    400a       ands r2, r1
    41cc:    2101       movs r1, #1
    41ce:    2020       movs r0, #32
    41d0:    f7ff b894  b.w 0x32fc
    41d4:    b510       push {r4, r14}
    41d6:    f000 fb63  bl 0x48a0
    41da:    6801       ldr r1, [r0, #0]
    41dc:    f001 0109  and.w r1, r1, #9
    41e0:    6001       str r1, [r0, #0]
    41e2:    bd10       pop {r4, r15}
    41e4:    b510       push {r4, r14}
    41e6:    f000 fb5b  bl 0x48a0
    41ea:    6801       ldr r1, [r0, #0]
    41ec:    f001 0124  and.w r1, r1, #36    ; 0x24
    41f0:    6001       str r1, [r0, #0]
    41f2:    bd10       pop {r4, r15}
    41f4:    b510       push {r4, r14}
    41f6:    460c       mov r4, r1
    41f8:    f000 fb52  bl 0x48a0
    41fc:    6084       str r4, [r0, #8]
    41fe:    bd10       pop {r4, r15}

function_2:
  0x4200:    b510       push {r4, r14}
    4202:    f000 fb4d  bl 0x48a0
    4206:    6900       ldr r0, [r0, #16]
    4208:    4902       ldr r1, [pc, #8]    ; (0x4214)
    420a:    f3c0 0009  ubfx r0, r0, #0, #10
    420e:    4408       add r0, r1
    4210:    bd10       pop {r4, r15}
    4212:    0000       movs r0, r0
    4214:    a000       add r0, pc, #0    ; (adr r0, 0x4218)
    4216:    400a       ands r2, r1
    4218:    b570       push {r4, r5, r6, r14}
    421a:    4605       mov r5, r0
    421c:    f000 fb40  bl 0x48a0
    4220:    4604       mov r4, r0
    4222:    4628       mov r0, r5
    4224:    f000 f80a  bl 0x423c
    4228:    6921       ldr r1, [r4, #16]
    422a:    f3c1 0109  ubfx r1, r1, #0, #10
    422e:    4408       add r0, r1
    4230:    4901       ldr r1, [pc, #4]    ; (0x4238)
    4232:    4408       add r0, r1
    4234:    bd70       pop {r4, r5, r6, r15}
    4236:    0000       movs r0, r0
    4238:    a000       add r0, pc, #0    ; (adr r0, 0x423c)
    423a:    400a       ands r2, r1
    423c:    b510       push {r4, r14}
    423e:    f000 fb2f  bl 0x48a0
    4242:    6900       ldr r0, [r0, #16]
    4244:    f3c0 2089  ubfx r0, r0, #10, #10
    4248:    bd10       pop {r4, r15}
    424a:    b510       push {r4, r14}
    424c:    f000 fb28  bl 0x48a0
    4250:    6901       ldr r1, [r0, #16]
    4252:    6800       ldr r0, [r0, #0]
    4254:    00c9       lsls r1, r1, #3
    4256:    d502       bpl.n 0x425e
    4258:    f3c0 0080  ubfx r0, r0, #2, #1
    425c:    bd10       pop {r4, r15}
    425e:    f3c0 1040  ubfx r0, r0, #5, #1
    4262:    bd10       pop {r4, r15}
    4264:    b510       push {r4, r14}
    4266:    f000 fb1b  bl 0x48a0
    426a:    6841       ldr r1, [r0, #4]
    426c:    6880       ldr r0, [r0, #8]
    426e:    4008       ands r0, r1
    4270:    bd10       pop {r4, r15}
    4272:    b510       push {r4, r14}
    4274:    460c       mov r4, r1
    4276:    f000 fb13  bl 0x48a0
    427a:    68c0       ldr r0, [r0, #12]
    427c:    40e0       lsrs r0, r4
    427e:    f3c0 0008  ubfx r0, r0, #0, #9
    4282:    bd10       pop {r4, r15}
    4284:    b570       push {r4, r5, r6, r14}
    4286:    460c       mov r4, r1
    4288:    4605       mov r5, r0
    428a:    f000 fb09  bl 0x48a0
    428e:    eb04 01c5  add.w r1, r4, r5, lsl #3
    4292:    684a       ldr r2, [r1, #4]
    4294:    6102       str r2, [r0, #16]
    4296:    6889       ldr r1, [r1, #8]
    4298:    6041       str r1, [r0, #4]
    429a:    f04f 31ff  mov.w r1, #4294967295    ; 0xffffffff
    429e:    6081       str r1, [r0, #8]
    42a0:    4628       mov r0, r5
    42a2:    e8bd 4070  ldmia.w r13!, {r4, r5, r6, r14}
    42a6:    f000 b835  b.w 0x4314
    42aa:    e92d 41f0  stmdb r13!, {r4, r5, r6, r7, r8, r14}
    42ae:    460f       mov r7, r1
    42b0:    4616       mov r6, r2
    42b2:    0005       movs r5, r0
    42b4:    d011       beq.n 0x42da
    42b6:    2100       movs r1, #0
    42b8:    f7ff ffdb  bl 0x4272
    42bc:    4604       mov r4, r0
    42be:    42b0       cmp r0, r6
    42c0:    d808       bhi.n 0x42d4
    42c2:    4628       mov r0, r5
    42c4:    b15d       cbz r5, 0x42de
    42c6:    f7ff ff9b  bl 0x4200                  ; call function_2
    42ca:    1ce1       adds r1, r4, #3
    42cc:    088a       lsrs r2, r1, #2
    42ce:    4639       mov r1, r7
    42d0:    f000 fade  bl 0x4890
    42d4:    4620       mov r0, r4
    42d6:    e8bd 81f0  ldmia.w r13!, {r4, r5, r6, r7, r8, r15}
    42da:    2110       movs r1, #16
    42dc:    e7ec       b.n 0x42b8
    42de:    f7ff ff9b  bl 0x4218
    42e2:    e7f2       b.n 0x42ca
    42e4:    e92d 41f0  stmdb r13!, {r4, r5, r6, r7, r8, r14}
    42e8:    460f       mov r7, r1
    42ea:    4615       mov r5, r2
    42ec:    4606       mov r6, r0
    42ee:    f000 fad7  bl 0x48a0
    42f2:    4604       mov r4, r0
    42f4:    2000       movs r0, #0
    42f6:    b13d       cbz r5, 0x4308
    42f8:    462a       mov r2, r5
    42fa:    4639       mov r1, r7
    42fc:    4630       mov r0, r6
    42fe:    f7ff ffd4  bl 0x42aa
    4302:    b908       cbnz r0, 0x4308
    4304:    2d00       cmp r5, #0
    4306:    d103       bne.n 0x4310
    4308:    6821       ldr r1, [r4, #0]
    430a:    f001 0110  and.w r1, r1, #16
    430e:    6021       str r1, [r4, #0]
    4310:    e8bd 81f0  ldmia.w r13!, {r4, r5, r6, r7, r8, r15}
    4314:    b510       push {r4, r14}
    4316:    f000 fac3  bl 0x48a0
    431a:    6801       ldr r1, [r0, #0]
    431c:    f001 0119  and.w r1, r1, #25
    4320:    6001       str r1, [r0, #0]
    4322:    bd10       pop {r4, r15}
    4324:    b510       push {r4, r14}
    4326:    f000 fabb  bl 0x48a0
    432a:    2104       movs r1, #4
    432c:    6001       str r1, [r0, #0]
    432e:    bd10       pop {r4, r15}
    4330:    b510       push {r4, r14}
    4332:    f000 fab5  bl 0x48a0
    4336:    2140       movs r1, #64    ; 0x40
    4338:    6081       str r1, [r0, #8]
    433a:    6802       ldr r2, [r0, #0]
    433c:    2124       movs r1, #36    ; 0x24
    433e:    4391       bics r1, r2
    4340:    6001       str r1, [r0, #0]
    4342:    bd10       pop {r4, r15}

function_1:
  0x4344:    e92d 41f0  stmdb r13!, {r4, r5, r6, r7, r8, r14} ; store r4-r8,r14 on stack
    4348:    4688       mov r8, r1
    434a:    4614       mov r4, r2
    434c:    4607       mov r7, r0
    434e:    f7ff ff75  bl 0x423c
    4352:    4606       mov r6, r0
    4354:    4638       mov r0, r7
    4356:    f000 faa3  bl 0x48a0
    435a:    4605       mov r5, r0
    435c:    2100       movs r1, #0
    435e:    4638       mov r0, r7
    4360:    f7ff ff87  bl 0x4272
    4364:    42b4       cmp r4, r6
    4366:    d800       bhi.n 0x436a              ; branch to 0x436a if r4 > r6
    4368:    b110       cbz r0, 0x4370
  0x436a:    2000       movs r0, #0
    436c:    e8bd 81f0  ldmia.w r13!, {r4, r5, r6, r7, r8, r15} ; load r4-r8,r15 from stack
    4370:    4638       mov r0, r7                  ; r0 = r7
    4372:    f7ff ff45  bl 0x4200                  ; call function_2
    4376:    4601       mov r1, r0
    4378:    1ce0       adds r0, r4, #3
    437a:    0882       lsrs r2, r0, #2
    437c:    4640       mov r0, r8
    437e:    f000 fa87  bl 0x4890                  ; call function_3
    4382:    60ec       str r4, [r5, #12]
    4384:    2002       movs r0, #2
    4386:    6028       str r0, [r5, #0]
    4388:    4620       mov r0, r4
    438a:    e7ef       b.n 0x436c
    438c:    4902       ldr r1, [pc, #8]            ; (0x4398)
    438e:    684a       ldr r2, [r1, #4]
    4390:    4302       orrs r2, r0
    4392:    604a       str r2, [r1, #4]
    4394:    4770       bx r14
    4396:    0000       movs r0, r0
    4398:    8000       strh r0, [r0, #0]
    439a:    400a       ands r2, r1
    439c:    4603       mov r3, r0
    439e:    2107       movs r1, #7
    43a0:    f101 0208  add.w r2, r1, #8
    43a4:    fa23 f002  lsr.w r0, r3, r2
    43a8:    07c0       lsls r0, r0, #31
    43aa:    d001       beq.n 0x43b0
    43ac:    b248       sxtb r0, r1
    43ae:    4770       bx r14
    43b0:    1e49       subs r1, r1, #1
    43b2:    2900       cmp r1, #0
    43b4:    dcf4       bgt.n 0x43a0
    43b6:    f04f 30ff  mov.w r0, #4294967295    ; 0xffffffff
    43ba:    4770       bx r14
    43bc:    4802       ldr r0, [pc, #8]            ; (0x43c8)
    43be:    6841       ldr r1, [r0, #4]
    43c0:    6880       ldr r0, [r0, #8]
    43c2:    4008       ands r0, r1
    43c4:    4770       bx r14
    43c6:    0000       movs r0, r0
    43c8:    8000       strh r0, [r0, #0]
    43ca:    400a       ands r2, r1
    43cc:    f000 b84a  b.w 0x4464
    43d0:    4802       ldr r0, [pc, #8]            ; (0x43dc)
    43d2:    6801       ldr r1, [r0, #0]
    43d4:    f041 010c  orr.w r1, r1, #12
    43d8:    6001       str r1, [r0, #0]
    43da:    4770       bx r14
    43dc:    8000       strh r0, [r0, #0]
    43de:    400a       ands r2, r1
    43e0:    4802       ldr r0, [pc, #8]            ; (0x43ec)
    43e2:    6801       ldr r1, [r0, #0]
    43e4:    f401 6180  and.w r1, r1, #1024        ; 0x400
    43e8:    6001       str r1, [r0, #0]
    43ea:    4770       bx r14
    43ec:    8000       strh r0, [r0, #0]
    43ee:    400a       ands r2, r1
    43f0:    b510       push {r4, r14}
    43f2:    4604       mov r4, r0
    43f4:    4819       ldr r0, [pc, #100]            ; (0x445c)
    43f6:    6802       ldr r2, [r0, #0]
    43f8:    2a01       cmp r2, #1
    43fa:    d12e       bne.n 0x445a
    43fc:    2200       movs r2, #0
    43fe:    6002       str r2, [r0, #0]
    4400:    4817       ldr r0, [pc, #92]            ; (0x4460)
    4402:    6802       ldr r2, [r0, #0]
    4404:    0653       lsls r3, r2, #25
    4406:    f04f 32ff  mov.w r2, #4294967295        ; 0xffffffff
    440a:    d50c       bpl.n 0x4426
    440c:    f240 430c  movw r3, #1036            ; 0x40c
    4410:    6003       str r3, [r0, #0]
    4412:    6082       str r2, [r0, #8]
    4414:    b911       cbnz r1, 0x441c
    4416:    2000       movs r0, #0
    4418:    f7fe ff4e  bl 0x32b8
    441c:    6820       ldr r0, [r4, #0]
    441e:    e8bd 4010  ldmia.w r13!, {r4, r14}
    4422:    f7ff bfb3  b.w 0x438c
    4426:    f640 430c  movw r3, #3084            ; 0xc0c
    442a:    6003       str r3, [r0, #0]
    442c:    6082       str r2, [r0, #8]
    442e:    b911       cbnz r1, 0x4436
    4430:    2000       movs r0, #0
    4432:    f7fe ff41  bl 0x32b8
    4436:    2000       movs r0, #0
    4438:    f7ff feac  bl 0x4194
    443c:    6820       ldr r0, [r4, #0]
    443e:    f7ff ffa5  bl 0x438c
    4442:    2000       movs r0, #0
    4444:    f7ff feb4  bl 0x41b0
    4448:    2000       movs r0, #0
    444a:    1c40       adds r0, r0, #1
    444c:    28c8       cmp r0, #200                ; 0xc8
    444e:    d3fc       bcc.n 0x444a
    4450:    e8bd 4010  ldmia.w r13!, {r4, r14}
    4454:    2001       movs r0, #1
    4456:    f7ff beab  b.w 0x41b0
    445a:    bd10       pop {r4, r15}
    445c:    022c       lsls r4, r5, #8
    445e:    2000       movs r0, #0
    4460:    8000       strh r0, [r0, #0]
    4462:    400a       ands r2, r1
    4464:    f241 711d  movw r1, #5917            ; 0x171d
    4468:    6001       str r1, [r0, #0]
    446a:    490a       ldr r1, [pc, #40]            ; (0x4494)
    446c:    6041       str r1, [r0, #4]
    446e:    f240 2112  movw r1, #530            ; 0x212
    4472:    6081       str r1, [r0, #8]
    4474:    4908       ldr r1, [pc, #32]            ; (0x4498)
    4476:    60c1       str r1, [r0, #12]
    4478:    4a08       ldr r2, [pc, #32]            ; (0x449c)
    447a:    2110       movs r1, #16
    447c:    e9c0 1204  strd r1, r2, [r0, #16]
    4480:    6181       str r1, [r0, #24]
    4482:    4907       ldr r1, [pc, #28]            ; (0x44a0)
    4484:    61c1       str r1, [r0, #28]
    4486:    2100       movs r1, #0
    4488:    6201       str r1, [r0, #32]
    448a:    4906       ldr r1, [pc, #24]            ; (0x44a4)
    448c:    6241       str r1, [r0, #36]            ; 0x24
    448e:    2102       movs r1, #2
    4490:    6281       str r1, [r0, #40]            ; 0x28
    4492:    4770       bx r14
    4494:    0008       movs r0, r1
    4496:    8001       strh r1, [r0, #0]
    4498:    2088       movs r0, #136            ; 0x88
    449a:    9100       str r1, [sp, #0]
    449c:    0090       lsls r0, r2, #2
    449e:    9201       str r2, [sp, #4]
    44a0:    00d0       lsls r0, r2, #3
    44a2:    9301       str r3, [sp, #4]
    44a4:    0110       lsls r0, r2, #4
    44a6:    8401       strh r1, [r0, #32]
    44a8:    4902       ldr r1, [pc, #8]            ; (0x44b4)
    44aa:    680a       ldr r2, [r1, #0]
    44ac:    6002       str r2, [r0, #0]
    44ae:    6849       ldr r1, [r1, #4]
    44b0:    6041       str r1, [r0, #4]
    44b2:    4770       bx r14
    44b4:    a000       add r0, pc, #0                ; (adr r0, 0x44b8)
    44b6:    400a       ands r2, r1
    44b8:    4802       ldr r0, [pc, #8]            ; (0x44c4)
    44ba:    6801       ldr r1, [r0, #0]
    44bc:    f041 0120  orr.w r1, r1, #32
    44c0:    6001       str r1, [r0, #0]
    44c2:    4770       bx r14
    44c4:    8000       strh r0, [r0, #0]
    44c6:    400a       ands r2, r1
    44c8:    4903       ldr r1, [pc, #12]            ; (0x44d8)
    44ca:    680a       ldr r2, [r1, #0]
    44cc:    f442 7280  orr.w r2, r2, #256        ; 0x100
    44d0:    600a       str r2, [r1, #0]
    44d2:    6108       str r0, [r1, #16]
    44d4:    4770       bx r14
    44d6:    0000       movs r0, r0
    44d8:    8000       strh r0, [r0, #0]
    44da:    400a       ands r2, r1
    44dc:    4801       ldr r0, [pc, #4]            ; (0x44e4)
    44de:    f7ff bd08  b.w 0x3ef2
    44e2:    0000       movs r0, r0
    44e4:    0234       lsls r4, r6, #8
    44e6:    2000       movs r0, #0
    44e8:    4913       ldr r1, [pc, #76]            ; (0x4538)
    44ea:    4812       ldr r0, [pc, #72]            ; (0x4534)
    44ec:    6b0a       ldr r2, [r1, #48]            ; 0x30
    44ee:    f042 0210  orr.w r2, r2, #16
    44f2:    630a       str r2, [r1, #48]            ; 0x30
    44f4:    4911       ldr r1, [pc, #68]            ; (0x453c)
    44f6:    684a       ldr r2, [r1, #4]
    44f8:    f3c2 020b  ubfx r2, r2, #0, #12
    44fc:    f442 32d0  orr.w r2, r2, #106496        ; 0x1a000
    4500:    e003       b.n 0x450a
    4502:    604a       str r2, [r1, #4]
    4504:    684b       ldr r3, [r1, #4]
    4506:    03db       lsls r3, r3, #15
    4508:    d401       bmi.n 0x450e
    450a:    1e40       subs r0, r0, #1
    450c:    d2f9       bcs.n 0x4502
    450e:    6888       ldr r0, [r1, #8]
    4510:    f3c0 000b  ubfx r0, r0, #0, #12
    4514:    f440 40a0  orr.w r0, r0, #20480        ; 0x5000
    4518:    6088       str r0, [r1, #8]
    451a:    6848       ldr r0, [r1, #4]
    451c:    f400 30f8  and.w r0, r0, #126976        ; 0x1f000
    4520:    f440 60fa  orr.w r0, r0, #2000        ; 0x7d0
    4524:    6048       str r0, [r1, #4]
    4526:    4806       ldr r0, [pc, #24]            ; (0x4540)
    4528:    6008       str r0, [r1, #0]
    452a:    f64c 2035  movw r0, #51765            ; 0xca35
    452e:    6108       str r0, [r1, #16]
    4530:    4770       bx r14
    4532:    0000       movs r0, r0
    4534:    dd00       ble.n 0x4538
    4536:    006d       lsls r5, r5, #1
    4538:    8000       strh r0, [r0, #0]
    453a:    4008       ands r0, r1
    453c:    8000       strh r0, [r0, #0]
    453e:    4006       ands r6, r0
    4540:    0001       movs r1, r0
    4542:    5fa0       ldrsh r0, [r4, r6]

function_12:
  0x4544:    4902       ldr r1, [pc, #8]            ; (0x4550)
    4546:    4801       ldr r0, [pc, #4]            ; (0x454c)
    4548:    6008       str r0, [r1, #0]            ; store 0x454c to 0x4550
    454a:    4770       bx r14                      ; branch to ARM at r14

    454c:    0001       movs r1, r0
    454e:    5fa0       ldrsh r0, [r4, r6]
    4550:    8000       strh r0, [r0, #0]
    4552:    4006       ands r6, r0
    4554:    204f       movs r0, #79                ; 0x4f
    4556:    4770       bx r14
    4558:    b510       push {r4, r14}
    455a:    f7fc f991  bl 0x880
    455e:    4604       mov r4, r0
    4560:    4601       mov r1, r0
    4562:    4804       ldr r0, [pc, #16]            ; (0x4574)
    4564:    f7fc f93c  bl 0x7e0
    4568:    0a21       lsrs r1, r4, #8
    456a:    4802       ldr r0, [pc, #8]            ; (0x4574)
    456c:    f7fc f938  bl 0x7e0
    4570:    204f       movs r0, #79                ; 0x4f
    4572:    bd10       pop {r4, r15}
    4574:    0358       lsls r0, r3, #13
    4576:    2000       movs r0, #0
    4578:    e92d 41f0  stmdb r13!, {r4, r5, r6, r7, r8, r14}
    457c:    4616       mov r6, r2
    457e:    280a       cmp r0, #10
    4580:    d002       beq.n 0x4588
    4582:    f5b1 4f78  cmp.w r1, #63488            ; 0xf800
    4586:    d202       bcs.n 0x458e
    4588:    2046       movs r0, #70                ; 0x46
    458a:    e8bd 81f0  ldmia.w r13!, {r4, r5, r6, r7, r8, r15}
    458e:    2500       movs r5, #0
    4590:    460c       mov r4, r1
    4592:    271e       movs r7, #30
    4594:    e00c       b.n 0x45b0
    4596:    4620       mov r0, r4
    4598:    f7fc f994  bl 0x8c4
    459c:    fbb5 f0f7  udiv r0, r5, r7
    45a0:    fb07 5010  mls r0, r7, r0, r5
    45a4:    b908       cbnz r0, 0x45aa
    45a6:    f7ff ffcd  bl 0x4544                   ; call function_12
    45aa:    f504 6480  add.w r4, r4, #1024    ; 0x400
    45ae:    1c6d       adds r5, r5, #1
    45b0:    42b4       cmp r4, r6
    45b2:    d9f0       bls.n 0x4596
    45b4:    204f       movs r0, #79    ; 0x4f
    45b6:    e7e8       b.n 0x458a
    45b8:    e92d 5ff0  stmdb r13!, {r4, r5, r6, r7, r8, r9, r10, r11, r12, r14}
    45bc:    2600       movs r6, #0
    45be:    4680       mov r8, r0
    45c0:    460c       mov r4, r1
    45c2:    4691       mov r9, r2
    45c4:    4f30       ldr r7, [pc, #192]    ; (0x4688)
    45c6:    4635       mov r5, r6
    45c8:    f8df b0c0  ldr.w r11, [r15, #192]    ; 0x468c
    45cc:    46b2       mov r10, r6
    45ce:    f7fc f983  bl 0x8d8
    45d2:    07c0       lsls r0, r0, #31
    45d4:    d101       bne.n 0x45da
    45d6:    f04f 0a01  mov.w r10, #1
    45da:    f1b8 0f01  cmp.w r8, #1
    45de:    d14e       bne.n 0x467e
    45e0:    f1ba 0f01  cmp.w r10, #1
    45e4:    d114       bne.n 0x4610
    45e6:    eba9 0004  sub.w r0, r9, r4
    45ea:    1c40       adds r0, r0, #1
    45ec:    e003       b.n 0x45f6
    45ee:    59a1       ldr r1, [r4, r6]
    45f0:    1c49       adds r1, r1, #1
    45f2:    d122       bne.n 0x463a
    45f4:    1d36       adds r6, r6, #4
    45f6:    42b0       cmp r0, r6
    45f8:    d8f9       bhi.n 0x45ee
    45fa:    f1b8 0f01  cmp.w r8, #1
    45fe:    d007       beq.n 0x4610
    4600:    e03d       b.n 0x467e
    4602:    4621       mov r1, r4
    4604:    2004       movs r0, #4
    4606:    683a       ldr r2, [r7, #0]
    4608:    f7fc f96c  bl 0x8e4
    460c:    1d24       adds r4, r4, #4
    460e:    1d3f       adds r7, r7, #4
    4610:    454c       cmp r4, r9
    4612:    d9f6       bls.n 0x4602
    4614:    e033       b.n 0x467e
    4616:    481e       ldr r0, [pc, #120]    ; (0x4690)
    4618:    4284       cmp r4, r0
    461a:    d901       bls.n 0x4620
    461c:    2000       movs r0, #0
    461e:    e000       b.n 0x4622
    4620:    6820       ldr r0, [r4, #0]
    4622:    f1b8 0f00  cmp.w r8, #0
    4626:    d029       beq.n 0x467c
    4628:    f1b8 0f03  cmp.w r8, #3
    462c:    d003       beq.n 0x4636
    462e:    f1ba 0f01  cmp.w r10, #1
    4632:    d005       beq.n 0x4640
    4634:    e012       b.n 0x465c
    4636:    1c40       adds r0, r0, #1
    4638:    d020       beq.n 0x467c
    463a:    2046       movs r0, #70    ; 0x46
    463c:    e8bd 9ff0  ldmia.w r13!, {r4, r5, r6, r7, r8, r9, r10, r11, r12, r15}
    4640:    f5a4 5120  sub.w r1, r4, #10240    ; 0x2800
    4644:    f5b1 6f80  cmp.w r1, #1024    ; 0x400
    4648:    d308       bcc.n 0x465c
    464a:    f5b4 4f78  cmp.w r4, #63488    ; 0xf800
    464e:    d205       bcs.n 0x465c
    4650:    4a10       ldr r2, [pc, #64]    ; (0x4694)
    4652:    f5a4 4178  sub.w r1, r4, #63488    ; 0xf800
    4656:    4291       cmp r1, r2
    4658:    d300       bcc.n 0x465c
    465a:    2000       movs r0, #0
    465c:    f84b 0025  str.w r0, [r11, r5, lsl #2]
    4660:    1c6d       adds r5, r5, #1
    4662:    2d10       cmp r5, #16
    4664:    d10a       bne.n 0x467c
    4666:    480c       ldr r0, [pc, #48]    ; (0x4698)
    4668:    2500       movs r5, #0
    466a:    2110       movs r1, #16
    466c:    6581       str r1, [r0, #88]    ; 0x58
    466e:    2140       movs r1, #64    ; 0x40
    4670:    65c1       str r1, [r0, #92]    ; 0x5c
    4672:    2102       movs r1, #2
    4674:    6501       str r1, [r0, #80]    ; 0x50
    4676:    6d81       ldr r1, [r0, #88]    ; 0x58
    4678:    06c9       lsls r1, r1, #27
    467a:    d5fc       bpl.n 0x4676
    467c:    1d24       adds r4, r4, #4
    467e:    454c       cmp r4, r9
    4680:    d9c9       bls.n 0x4616
    4682:    204f       movs r0, #79    ; 0x4f
    4684:    e7da       b.n 0x463c
    4686:    0000       movs r0, r0
    4688:    07d8       lsls r0, r3, #31
    468a:    2000       movs r0, #0
    468c:    a0d0       add r0, pc, #832    ; (adr r0, 0x49d0)
    468e:    400a       ands r2, r1
    4690:    03fc       lsls r4, r7, #15
    4692:    1ff0       subs r0, r6, #7
    4694:    0850       lsrs r0, r2, #1
    4696:    1fef       subs r7, r5, #7
    4698:    8000       strh r0, [r0, #0]
    469a:    400a       ands r2, r1
    469c:    b510       push {r4, r14}
    469e:    2240       movs r2, #64    ; 0x40
    46a0:    4902       ldr r1, [pc, #8]    ; (0x46ac)
    46a2:    2003       movs r0, #3
    46a4:    f7ff fe4e  bl 0x4344
    46a8:    204f       movs r0, #79    ; 0x4f
    46aa:    bd10       pop {r4, r15}
    46ac:    07bc       lsls r4, r7, #30
    46ae:    2000       movs r0, #0
    46b0:    b570       push {r4, r5, r6, r14}
    46b2:    4604       mov r4, r0
    46b4:    2000       movs r0, #0
    46b6:    f7ff fdc1  bl 0x423c
    46ba:    4605       mov r5, r0
    46bc:    6a20       ldr r0, [r4, #32]
    46be:    1c41       adds r1, r0, #1
    46c0:    d016       beq.n 0x46f0
    46c2:    f894 1024  ldrb.w r1, [r4, #36]    ; 0x24
    46c6:    2901       cmp r1, #1
    46c8:    d112       bne.n 0x46f0
    46ca:    42a8       cmp r0, r5
    46cc:    d302       bcc.n 0x46d4
    46ce:    1b40       subs r0, r0, r5
    46d0:    6220       str r0, [r4, #32]
    46d2:    e005       b.n 0x46e0
    46d4:    4605       mov r5, r0
    46d6:    2000       movs r0, #0
    46d8:    6220       str r0, [r4, #32]
    46da:    2002       movs r0, #2
    46dc:    f884 0024  strb.w r0, [r4, #36]    ; 0x24
    46e0:    462a       mov r2, r5
    46e2:    2000       movs r0, #0
    46e4:    69e1       ldr r1, [r4, #28]
    46e6:    f7ff fe2d  bl 0x4344
    46ea:    69e0       ldr r0, [r4, #28]
    46ec:    4428       add r0, r5
    46ee:    61e0       str r0, [r4, #28]
    46f0:    bd70       pop {r4, r5, r6, r15}
    46f2:    b510       push {r4, r14}
    46f4:    4604       mov r4, r0
    46f6:    2000       movs r0, #0
    46f8:    7660       strb r0, [r4, #25]
    46fa:    b149       cbz r1, 0x4710
    46fc:    2901       cmp r1, #1
    46fe:    d009       beq.n 0x4714
    4700:    2902       cmp r1, #2
    4702:    d110       bne.n 0x4726
    4704:    88a0       ldrh r0, [r4, #4]
    4706:    f000 000f  and.w r0, r0, #15
    470a:    f7ff fd9e  bl 0x424a
    470e:    e001       b.n 0x4714
    4710:    f894 0034  ldrb.w r0, [r4, #52]    ; 0x34
    4714:    7620       strb r0, [r4, #24]
    4716:    f104 0018  add.w r0, r4, #24
    471a:    61e0       str r0, [r4, #28]
    471c:    2002       movs r0, #2
    471e:    6220       str r0, [r4, #32]
    4720:    2001       movs r0, #1
    4722:    f884 0024  strb.w r0, [r4, #36]    ; 0x24
    4726:    bd10       pop {r4, r15}
    4728:    b570       push {r4, r5, r6, r14}
    472a:    4604       mov r4, r0
    472c:    8800       ldrh r0, [r0, #0]
    472e:    2501       movs r5, #1
    4730:    f5b0 6fa0  cmp.w r0, #1280    ; 0x500
    4734:    d04d       beq.n 0x47d2
    4736:    dc20       bgt.n 0x477a
    4738:    f5b0 7f80  cmp.w r0, #256    ; 0x100
    473c:    d042       beq.n 0x47c4
    473e:    dc0b       bgt.n 0x4758
    4740:    2880       cmp r0, #128    ; 0x80
    4742:    d03b       beq.n 0x47bc
    4744:    2881       cmp r0, #129    ; 0x81
    4746:    d03b       beq.n 0x47c0
    4748:    2882       cmp r0, #130    ; 0x82
    474a:    d164       bne.n 0x4816
    474c:    2102       movs r1, #2
    474e:    4620       mov r0, r4
    4750:    e8bd 4070  ldmia.w r13!, {r4, r5, r6, r14}
    4754:    f7ff bfcd  b.w 0x46f2
    4758:    f5b0 7f81  cmp.w r0, #258    ; 0x102
    475c:    d034       beq.n 0x47c8
    475e:    f5b0 7f40  cmp.w r0, #768    ; 0x300
    4762:    d033       beq.n 0x47cc
    4764:    f5a0 7040  sub.w r0, r0, #768    ; 0x300
    4768:    3802       subs r0, #2
    476a:    d154       bne.n 0x4816
    476c:    2201       movs r2, #1
    476e:    2102       movs r1, #2
    4770:    4620       mov r0, r4
    4772:    e8bd 4070  ldmia.w r13!, {r4, r5, r6, r14}
    4776:    f000 b865  b.w 0x4844
    477a:    f5b0 6f10  cmp.w r0, #2304    ; 0x900
    477e:    d04d       beq.n 0x481c
    4780:    dc0f       bgt.n 0x47a2
    4782:    f5b0 6fd0  cmp.w r0, #1664    ; 0x680
    4786:    d02b       beq.n 0x47e0
    4788:    f5a0 60c0  sub.w r0, r0, #1536    ; 0x600
    478c:    3881       subs r0, #129    ; 0x81
    478e:    d043       beq.n 0x4818
    4790:    f5a0 7080  sub.w r0, r0, #256    ; 0x100
    4794:    38ff       subs r0, #255    ; 0xff
    4796:    d13e       bne.n 0x4816
    4798:    f104 0030  add.w r0, r4, #48    ; 0x30
    479c:    e9c4 0507  strd r0, r5, [r4, #28]
    47a0:    e037       b.n 0x4812
    47a2:    f5a0 6020  sub.w r0, r0, #2560    ; 0xa00
    47a6:    3881       subs r0, #129    ; 0x81
    47a8:    d04a       beq.n 0x4840
    47aa:    2880       cmp r0, #128    ; 0x80
    47ac:    d133       bne.n 0x4816
    47ae:    6da1       ldr r1, [r4, #88]    ; 0x58
    47b0:    2900       cmp r1, #0
    47b2:    d030       beq.n 0x4816
    47b4:    4620       mov r0, r4
    47b6:    e8bd 4070  ldmia.w r13!, {r4, r5, r6, r14}
    47ba:    4708       bx r1
    47bc:    2100       movs r1, #0
    47be:    e7c6       b.n 0x474e
    47c0:    2101       movs r1, #1
    47c2:    e7c4       b.n 0x474e
    47c4:    2200       movs r2, #0
    47c6:    e002       b.n 0x47ce
    47c8:    2200       movs r2, #0
    47ca:    e7d0       b.n 0x476e
    47cc:    2201       movs r2, #1
    47ce:    2100       movs r1, #0
    47d0:    e7ce       b.n 0x4770
    47d2:    78a0       ldrb r0, [r4, #2]
    47d4:    f7ff fe78  bl 0x44c8
    47d8:    f884 5024  strb.w r5, [r4, #36]    ; 0x24
    47dc:    2005       movs r0, #5
    47de:    e02c       b.n 0x483a
    47e0:    78e0       ldrb r0, [r4, #3]
    47e2:    2801       cmp r0, #1
    47e4:    d00f       beq.n 0x4806
    47e6:    2802       cmp r0, #2
    47e8:    d00f       beq.n 0x480a
    47ea:    2803       cmp r0, #3
    47ec:    d113       bne.n 0x4816
    47ee:    78a0       ldrb r0, [r4, #2]
    47f0:    6961       ldr r1, [r4, #20]
    47f2:    4281       cmp r1, r0
    47f4:    d90f       bls.n 0x4816
    47f6:    6921       ldr r1, [r4, #16]
    47f8:    f851 0020  ldr.w r0, [r1, r0, lsl #2]
    47fc:    2800       cmp r0, #0
    47fe:    d00a       beq.n 0x4816
    4800:    61e0       str r0, [r4, #28]
    4802:    7800       ldrb r0, [r0, #0]
    4804:    e004       b.n 0x4810
    4806:    68a0       ldr r0, [r4, #8]
    4808:    e7fa       b.n 0x4800
    480a:    68e0       ldr r0, [r4, #12]
    480c:    61e0       str r0, [r4, #28]
    480e:    8840       ldrh r0, [r0, #2]
    4810:    6220       str r0, [r4, #32]
    4812:    f884 5024  strb.w r5, [r4, #36]    ; 0x24
    4816:    bd70       pop {r4, r5, r6, r15}
    4818:    6d61       ldr r1, [r4, #84]    ; 0x54
    481a:    e7c9       b.n 0x47b0
    481c:    78a0       ldrb r0, [r4, #2]
    481e:    f884 0030  strb.w r0, [r4, #48]    ; 0x30
    4822:    f884 5024  strb.w r5, [r4, #36]    ; 0x24
    4826:    2501       movs r5, #1
    4828:    b268       sxtb r0, r5
    482a:    f8d4 1084  ldr.w r1, [r4, #132]    ; 0x84
    482e:    f7ff fd29  bl 0x4284
    4832:    1c6d       adds r5, r5, #1
    4834:    2d08       cmp r5, #8
    4836:    d3f7       bcc.n 0x4828
    4838:    2006       movs r0, #6
    483a:    f884 0032  strb.w r0, [r4, #50]    ; 0x32
    483e:    bd70       pop {r4, r5, r6, r15}
    4840:    6de1       ldr r1, [r4, #92]    ; 0x5c
    4842:    e7b5       b.n 0x47b0
    4844:    b570       push {r4, r5, r6, r14}
    4846:    4604       mov r4, r0
    4848:    2601       movs r6, #1
    484a:    b161       cbz r1, 0x4866
    484c:    2902       cmp r1, #2
    484e:    d109       bne.n 0x4864
    4850:    88a0       ldrh r0, [r4, #4]
    4852:    f010 050f  ands.w r5, r0, #15
    4856:    d003       beq.n 0x4860
    4858:    b182       cbz r2, 0x487c
    485a:    4628       mov r0, r5
    485c:    f7ff fd68  bl 0x4330
    4860:    f884 6024  strb.w r6, [r4, #36]    ; 0x24
    4864:    bd70       pop {r4, r5, r6, r15}
    4866:    78a0       ldrb r0, [r4, #2]
    4868:    2801       cmp r0, #1
    486a:    d1fb       bne.n 0x4864
    486c:    f104 0424  add.w r4, r4, #36    ; 0x24
    4870:    7c20       ldrb r0, [r4, #16]
    4872:    f362 0041  bfi r0, r2, #1, #1
    4876:    7420       strb r0, [r4, #16]
    4878:    7026       strb r6, [r4, #0]
    487a:    bd70       pop {r4, r5, r6, r15}
    487c:    6ba0       ldr r0, [r4, #56]    ; 0x38
    487e:    2800       cmp r0, #0
    4880:    d1ee       bne.n 0x4860
    4882:    4628       mov r0, r5
    4884:    f7ff fcae  bl 0x41e4
    4888:    b268       sxtb r0, r5
    488a:    f7ff fca3  bl 0x41d4
    488e:    e7e7       b.n 0x4860

function_3:
; loop
  0x4890:    1e52       subs r2, r2, #1
    4892:    d404       bmi.n 0x489e              ; exit loop if r2 - 1 < 0
    4894:    f850 3022  ldr.w r3, [r0, r2, lsl #2]
    4898:    f841 3022  str.w r3, [r1, r2, lsl #2]
    489c:    e7f8       b.n 0x4890                  ; loop
; loop end

  0x489e:    4770       bx r14                     ; branch to ARM at r14
    48a0:    4902       ldr r1, [pc, #8]            ; (0x48ac)
    48a2:    eb00 0080  add.w r0, r0, r0, lsl #2
    48a6:    eb01 0080  add.w r0, r1, r0, lsl #2
    48aa:    4770       bx r14                     ; branch to ARM at r14
    48ac:    8014       strh r4, [r2, #0]
    48ae:    400a       ands r2, r1

; loop
    48b0:    e002       b.n 0x48b8                  ; loop start
  0x48b2:    c808       ldmia r0!, {r3}
    48b4:    1f12       subs r2, r2, #4          ; r2 -= 4
    48b6:    c108       stmia r1!, {r3}
  0x48b8:    2a00       cmp r2, #0
    48ba:    d1fa       bne.n 0x48b2              ; loop if r2 != 0
; loop end

    48bc:    4770       bx r14                     ; branch to ARM at r14
    48be:    4770       bx r14                     ; branch to ARM at r14
    48c0:    2000       movs r0, #0              ; r0 = 0

; loop
    48c2:    e001       b.n 0x48c8                  ; loop start
  0x48c4:    c101       stmia r1!, {r0}
    48c6:    1f12       subs r2, r2, #4
  0x48c8:    2a00       cmp r2, #0
    48ca:    d1fb       bne.n 0x48c4              ; loop if r2 != 0
; loop end

    48cc:    4770       bx r14                     ; branch to ARM at r14
    48ce:    0000       movs r0, r0
    48d0:    e92d 4ffe  stmdb r13!, {r1, r2, r3, r4, r5, r6, r7, r8, r9, r10, r11, r14}
    48d4:    f8df 928c  ldr.w r9, [r15, #652]        ; 0x4b64
    48d8:    4690       mov r8, r2
    48da:    4604       mov r4, r0
    48dc:    460d       mov r5, r1
    48de:    464e       mov r6, r9
    48e0:    f899 2002  ldrb.w r2, [r9, #2]
    48e4:    f000 fb34  bl 0x4f50                   ; call function_4
    48e8:    f886 0024  strb.w r0, [r6, #36]        ; 0x24
    48ec:    eb05 06c4  add.w r6, r5, r4, lsl #3
    48f0:    2e10       cmp r6, #16
    48f2:    d106       bne.n 0x4902
    48f4:    f899 101f  ldrb.w r1, [r9, #31]
    48f8:    2901       cmp r1, #1
    48fa:    d102       bne.n 0x4902
    48fc:    21ff       movs r1, #255    ; 0xff
    48fe:    f889 1024  strb.w r1, [r9, #36]    ; 0x24
    4902:    489a       ldr r0, [pc, #616]    ; (0x4b6c)
    4904:    2701       movs r7, #1
    4906:    eb00 00c4  add.w r0, r0, r4, lsl #3
    490a:    9000       str r0, [sp, #0]
    490c:    4898       ldr r0, [pc, #608]    ; (0x4b70)
    490e:    f8df b258  ldr.w r11, [r15, #600]    ; 0x4b68
    4912:    eb00 00c4  add.w r0, r0, r4, lsl #3
    4916:    9001       str r0, [sp, #4]
    4918:    4896       ldr r0, [pc, #600]    ; (0x4b74)
    491a:    40af       lsls r7, r5
    491c:    eb00 00c4  add.w r0, r0, r4, lsl #3
    4920:    f04f 0a00  mov.w r10, #0
    4924:    9002       str r0, [sp, #8]
    4926:    f1b8 0f00  cmp.w r8, #0
    492a:    d07d       beq.n 0x4a28
    492c:    f899 001b  ldrb.w r0, [r9, #27]
    4930:    46c8       mov r8, r9
    4932:    2801       cmp r0, #1
    4934:    d003       beq.n 0x493e
    4936:    f898 001c  ldrb.w r0, [r8, #28]
    493a:    2803       cmp r0, #3
    493c:    d105       bne.n 0x494a
    493e:    f000 f93b  bl 0x4bb8
    4942:    f888 a01b  strb.w r10, [r8, #27]
    4946:    f888 a01c  strb.w r10, [r8, #28]
    494a:    f898 0002  ldrb.w r0, [r8, #2]
    494e:    f44f 7280  mov.w r2, #256    ; 0x100
    4952:    b168       cbz r0, 0x4970
    4954:    f8df 9220  ldr.w r9, [r15, #544]    ; 0x4b78
    4958:    f819 1004  ldrb.w r1, [r9, r4]
    495c:    4339       orrs r1, r7
    495e:    f809 1004  strb.w r1, [r9, r4]
    4962:    f898 0024  ldrb.w r0, [r8, #36]    ; 0x24
    4966:    2803       cmp r0, #3
    4968:    d03f       beq.n 0x49ea
    496a:    2813       cmp r0, #19
    496c:    d076       beq.n 0x4a5c
    496e:    e05a       b.n 0x4a26
    4970:    f898 0024  ldrb.w r0, [r8, #36]    ; 0x24
    4974:    4647       mov r7, r8
    4976:    2802       cmp r0, #2
    4978:    d002       beq.n 0x4980
    497a:    2812       cmp r0, #18
    497c:    d018       beq.n 0x49b0
    497e:    e058       b.n 0x4a32
    4980:    f107 0718  add.w r7, r7, #24
    4984:    7bb8       ldrb r0, [r7, #14]
    4986:    eb00 0140  add.w r1, r0, r0, lsl #1
    498a:    eb0b 1001  add.w r0, r11, r1, lsl #4
    498e:    7839       ldrb r1, [r7, #0]
    4990:    eb00 1001  add.w r0, r0, r1, lsl #4
    4994:    f850 0c08  ldr.w r0, [r0, #-8]
    4998:    f887 a01a  strb.w r10, [r7, #26]
    499c:    eb00 2106  add.w r1, r0, r6, lsl #8
    49a0:    f04f 0001  mov.w r0, #1
    49a4:    70f8       strb r0, [r7, #3]
    49a6:    7138       strb r0, [r7, #4]
    49a8:    f8a7 a02a  strh.w r10, [r7, #42]    ; 0x2a
    49ac:    77bc       strb r4, [r7, #30]
    49ae:    e035       b.n 0x4a1c
    49b0:    f107 0718  add.w r7, r7, #24
    49b4:    f04f 0202  mov.w r2, #2
    49b8:    7bb8       ldrb r0, [r7, #14]
    49ba:    eb00 0140  add.w r1, r0, r0, lsl #1
    49be:    eb0b 1001  add.w r0, r11, r1, lsl #4
    49c2:    7839       ldrb r1, [r7, #0]
    49c4:    eb00 1001  add.w r0, r0, r1, lsl #4
    49c8:    f850 0c08  ldr.w r0, [r0, #-8]
    49cc:    eb00 2106  add.w r1, r0, r6, lsl #8
    49d0:    486a       ldr r0, [pc, #424]    ; (0x4b7c)
    49d2:    f7fd fcf9  bl 0x23c8                   ; call function_13
    49d6:    4869       ldr r0, [pc, #420]    ; (0x4b7c)
    49d8:    7844       ldrb r4, [r0, #1]
    49da:    4620       mov r0, r4
    49dc:    f000 fa4e  bl 0x4e7c
    49e0:    2001       movs r0, #1
    49e2:    72f8       strb r0, [r7, #11]
    49e4:    4620       mov r0, r4
    49e6:    e8bd 8ffe  ldmia.w r13!, {r1, r2, r3, r4, r5, r6, r7, r8, r9, r10, r11, r15}
    49ea:    f898 0026  ldrb.w r0, [r8, #38]    ; 0x26
    49ee:    eb00 0140  add.w r1, r0, r0, lsl #1
    49f2:    eb0b 1001  add.w r0, r11, r1, lsl #4
    49f6:    f898 1018  ldrb.w r1, [r8, #24]
    49fa:    eb00 1001  add.w r0, r0, r1, lsl #4
    49fe:    f850 0c04  ldr.w r0, [r0, #-4]
    4a02:    f888 a032  strb.w r10, [r8, #50]    ; 0x32
    4a06:    eb00 2106  add.w r1, r0, r6, lsl #8
    4a0a:    2001       movs r0, #1
    4a0c:    f888 001b  strb.w r0, [r8, #27]
    4a10:    f888 001c  strb.w r0, [r8, #28]
    4a14:    f8a8 a042  strh.w r10, [r8, #66]    ; 0x42
    4a18:    f888 4036  strb.w r4, [r8, #54]    ; 0x36
    4a1c:    f888 5037  strb.w r5, [r8, #55]    ; 0x37
    4a20:    4856       ldr r0, [pc, #344]    ; (0x4b7c)
    4a22:    f7fd fcd1  bl 0x23c8                   ; call function_13
    4a26:    e000       b.n 0x4a2a
    4a28:    e03d       b.n 0x4aa6
    4a2a:    f898 0024  ldrb.w r0, [r8, #36]    ; 0x24
    4a2e:    2802       cmp r0, #2
    4a30:    d064       beq.n 0x4afc
    4a32:    f898 0024  ldrb.w r0, [r8, #36]    ; 0x24
    4a36:    4641       mov r1, r8
    4a38:    2803       cmp r0, #3
    4a3a:    d05f       beq.n 0x4afc
    4a3c:    280c       cmp r0, #12
    4a3e:    d05d       beq.n 0x4afc
    4a40:    280d       cmp r0, #13
    4a42:    d05b       beq.n 0x4afc
    4a44:    f891 0026  ldrb.w r0, [r1, #38]    ; 0x26
    4a48:    2801       cmp r0, #1
    4a4a:    d028       beq.n 0x4a9e
    4a4c:    2802       cmp r0, #2
    4a4e:    d028       beq.n 0x4aa2
    4a50:    9802       ldr r0, [sp, #8]
    4a52:    5d40       ldrb r0, [r0, r5]
    4a54:    f888 a023  strb.w r10, [r8, #35]    ; 0x23
    4a58:    e7c5       b.n 0x49e6
    4a5a:    e7ff       b.n 0x4a5c
    4a5c:    f898 0026  ldrb.w r0, [r8, #38]    ; 0x26
    4a60:    2202       movs r2, #2
    4a62:    eb00 0140  add.w r1, r0, r0, lsl #1
    4a66:    eb0b 1001  add.w r0, r11, r1, lsl #4
    4a6a:    f898 1018  ldrb.w r1, [r8, #24]
    4a6e:    eb00 1001  add.w r0, r0, r1, lsl #4
    4a72:    f850 0c04  ldr.w r0, [r0, #-4]
    4a76:    eb00 2106  add.w r1, r0, r6, lsl #8
    4a7a:    4840       ldr r0, [pc, #256]    ; (0x4b7c)
    4a7c:    f7fd fca4  bl 0x23c8                   ; call function_13
    4a80:    483e       ldr r0, [pc, #248]    ; (0x4b7c)
    4a82:    7845       ldrb r5, [r0, #1]
    4a84:    4628       mov r0, r5
    4a86:    f000 f9f9  bl 0x4e7c
    4a8a:    f819 0004  ldrb.w r0, [r9, r4]
    4a8e:    2101       movs r1, #1
    4a90:    4338       orrs r0, r7
    4a92:    f809 0004  strb.w r0, [r9, r4]
    4a96:    f888 1023  strb.w r1, [r8, #35]    ; 0x23
    4a9a:    4628       mov r0, r5
    4a9c:    e7a3       b.n 0x49e6
    4a9e:    9800       ldr r0, [sp, #0]
    4aa0:    e7d7       b.n 0x4a52
    4aa2:    9801       ldr r0, [sp, #4]
    4aa4:    e7d5       b.n 0x4a52
    4aa6:    4934       ldr r1, [pc, #208]    ; (0x4b78)
    4aa8:    f04f 0801  mov.w r8, #1
    4aac:    5d08       ldrb r0, [r1, r4]
    4aae:    4238       tst r0, r7
    4ab0:    d032       beq.n 0x4b18
    4ab2:    43b8       bics r0, r7
    4ab4:    5508       strb r0, [r1, r4]
    4ab6:    2201       movs r2, #1
    4ab8:    4629       mov r1, r5
    4aba:    4620       mov r0, r4
    4abc:    f000 fa48  bl 0x4f50                   ; call function_4
    4ac0:    464c       mov r4, r9
    4ac2:    f889 0024  strb.w r0, [r9, #36]    ; 0x24
    4ac6:    2803       cmp r0, #3
    4ac8:    d013       beq.n 0x4af2
    4aca:    2813       cmp r0, #19
    4acc:    d018       beq.n 0x4b00
    4ace:    2802       cmp r0, #2
    4ad0:    d014       beq.n 0x4afc
    4ad2:    b2c0       uxtb r0, r0
    4ad4:    2803       cmp r0, #3
    4ad6:    d011       beq.n 0x4afc
    4ad8:    280c       cmp r0, #12
    4ada:    d00f       beq.n 0x4afc
    4adc:    280d       cmp r0, #13
    4ade:    d00d       beq.n 0x4afc
    4ae0:    f894 0026  ldrb.w r0, [r4, #38]    ; 0x26
    4ae4:    2801       cmp r0, #1
    4ae6:    d039       beq.n 0x4b5c
    4ae8:    2802       cmp r0, #2
    4aea:    d039       beq.n 0x4b60
    4aec:    9802       ldr r0, [sp, #8]
    4aee:    5d40       ldrb r0, [r0, r5]
    4af0:    e779       b.n 0x49e6
    4af2:    f884 a01b  strb.w r10, [r4, #27]
    4af6:    2003       movs r0, #3
    4af8:    f889 001c  strb.w r0, [r9, #28]
    4afc:    2000       movs r0, #0
    4afe:    e772       b.n 0x49e6
    4b00:    f894 0026  ldrb.w r0, [r4, #38]    ; 0x26
    4b04:    eb00 0140  add.w r1, r0, r0, lsl #1
    4b08:    eb0b 1001  add.w r0, r11, r1, lsl #4
    4b0c:    7e21       ldrb r1, [r4, #24]
    4b0e:    eb00 1001  add.w r0, r0, r1, lsl #4
    4b12:    f850 0c04  ldr.w r0, [r0, #-4]
    4b16:    e016       b.n 0x4b46
    4b18:    2200       movs r2, #0
    4b1a:    4629       mov r1, r5
    4b1c:    4620       mov r0, r4
    4b1e:    f000 fa17  bl 0x4f50                   ; call function_4
    4b22:    464c       mov r4, r9
    4b24:    f889 0024  strb.w r0, [r9, #36]    ; 0x24
    4b28:    2802       cmp r0, #2
    4b2a:    d0e2       beq.n 0x4af2
    4b2c:    2812       cmp r0, #18
    4b2e:    d1d0       bne.n 0x4ad2
    4b30:    f894 0026  ldrb.w r0, [r4, #38]    ; 0x26
    4b34:    eb00 0140  add.w r1, r0, r0, lsl #1
    4b38:    eb0b 1001  add.w r0, r11, r1, lsl #4
    4b3c:    7e21       ldrb r1, [r4, #24]
    4b3e:    eb00 1001  add.w r0, r0, r1, lsl #4
    4b42:    f850 0c08  ldr.w r0, [r0, #-8]
    4b46:    2202       movs r2, #2
    4b48:    eb00 2106  add.w r1, r0, r6, lsl #8
    4b4c:    480b       ldr r0, [pc, #44]    ; (0x4b7c)
    4b4e:    f7fd fc3b  bl 0x23c8                   ; call function_13
    4b52:    480a       ldr r0, [pc, #40]    ; (0x4b7c)
    4b54:    7840       ldrb r0, [r0, #1]
    4b56:    f884 8023  strb.w r8, [r4, #35]    ; 0x23
    4b5a:    e744       b.n 0x49e6
    4b5c:    9800       ldr r0, [sp, #0]
    4b5e:    e7c6       b.n 0x4aee
    4b60:    9801       ldr r0, [sp, #4]
    4b62:    e7c4       b.n 0x4aee
    4b64:    0058       lsls r0, r3, #1
    4b66:    2000       movs r0, #0
    4b68:    8d50       ldrh r0, [r2, #42]    ; 0x2a
    4b6a:    0000       movs r0, r0
    4b6c:    8f10       ldrh r0, [r2, #56]    ; 0x38
    4b6e:    0000       movs r0, r0
    4b70:    8f58       ldrh r0, [r3, #58]    ; 0x3a
    4b72:    0000       movs r0, r0
    4b74:    8ec8       ldrh r0, [r1, #54]    ; 0x36
    4b76:    0000       movs r0, r0
    4b78:    0915       lsrs r5, r2, #4
    4b7a:    2000       movs r0, #0
    4b7c:    080c       lsrs r4, r1, #32
    4b7e:    2000       movs r0, #0

function_16:
  0x4b80:    b500       push {r14}
    4b82:    f000 f819  bl 0x4bb8
    4b86:    2000       movs r0, #0
    4b88:    4a08       ldr r2, [pc, #32]    ; (0x4bac)
    4b8a:    4601       mov r1, r0
    4b8c:    5411       strb r1, [r2, r0]
    4b8e:    1c40       adds r0, r0, #1
    4b90:    b2c0       uxtb r0, r0
    4b92:    2809       cmp r0, #9
    4b94:    d3fa       bcc.n 0x4b8c
    4b96:    4a06       ldr r2, [pc, #24]    ; (0x4bb0)
    4b98:    2000       movs r0, #0
    4b9a:    5411       strb r1, [r2, r0]
    4b9c:    1c40       adds r0, r0, #1
    4b9e:    b2c0       uxtb r0, r0
    4ba0:    2809       cmp r0, #9
    4ba2:    d3fa       bcc.n 0x4b9a
    4ba4:    4803       ldr r0, [pc, #12]    ; (0x4bb4)
    4ba6:    7081       strb r1, [r0, #2]
    4ba8:    bd00       pop {r15}
    4baa:    0000       movs r0, r0
    4bac:    2cba       cmp r4, #186    ; 0xba
    4bae:    2000       movs r0, #0
    4bb0:    0915       lsrs r5, r2, #4
    4bb2:    2000       movs r0, #0
    4bb4:    0058       lsls r0, r3, #1
    4bb6:    2000       movs r0, #0
    4bb8:    b570       push {r4, r5, r6, r14}
    4bba:    4b1d       ldr r3, [pc, #116]    ; (0x4c30)
    4bbc:    2200       movs r2, #0
    4bbe:    491d       ldr r1, [pc, #116]    ; (0x4c34)
    4bc0:    f883 202b  strb.w r2, [r3, #43]    ; 0x2b
    4bc4:    4610       mov r0, r2
    4bc6:    700a       strb r2, [r1, #0]
    4bc8:    180c       adds r4, r1, r0
    4bca:    1c40       adds r0, r0, #1
    4bcc:    b2c0       uxtb r0, r0
    4bce:    70a2       strb r2, [r4, #2]
    4bd0:    2806       cmp r0, #6
    4bd2:    d3f9       bcc.n 0x4bc8
    4bd4:    4c16       ldr r4, [pc, #88]    ; (0x4c30)
    4bd6:    2101       movs r1, #1
    4bd8:    3480       adds r4, #128    ; 0x80
    4bda:    4d17       ldr r5, [pc, #92]    ; (0x4c38)
    4bdc:    2000       movs r0, #0
    4bde:    6121       str r1, [r4, #16]
    4be0:    182e       adds r6, r5, r0
    4be2:    1c40       adds r0, r0, #1
    4be4:    b2c0       uxtb r0, r0
    4be6:    70b2       strb r2, [r6, #2]
    4be8:    281e       cmp r0, #30
    4bea:    d3f9       bcc.n 0x4be0
    4bec:    70da       strb r2, [r3, #3]
    4bee:    2002       movs r0, #2
    4bf0:    7258       strb r0, [r3, #9]
    4bf2:    4812       ldr r0, [pc, #72]    ; (0x4c3c)
    4bf4:    6161       str r1, [r4, #20]
    4bf6:    7082       strb r2, [r0, #2]
    4bf8:    70c2       strb r2, [r0, #3]
    4bfa:    7102       strb r2, [r0, #4]
    4bfc:    7842       ldrb r2, [r0, #1]
    4bfe:    f022 0203  bic.w r2, r2, #3
    4c02:    7042       strb r2, [r0, #1]
    4c04:    4a0e       ldr r2, [pc, #56]    ; (0x4c40)
    4c06:    6221       str r1, [r4, #32]
    4c08:    7850       ldrb r0, [r2, #1]
    4c0a:    f020 0007  bic.w r0, r0, #7
    4c0e:    7050       strb r0, [r2, #1]
    4c10:    480c       ldr r0, [pc, #48]    ; (0x4c44)
    4c12:    61e1       str r1, [r4, #28]
    4c14:    7842       ldrb r2, [r0, #1]
    4c16:    f022 02ff  bic.w r2, r2, #255    ; 0xff
    4c1a:    7042       strb r2, [r0, #1]
    4c1c:    7882       ldrb r2, [r0, #2]
    4c1e:    f022 02ff  bic.w r2, r2, #255    ; 0xff
    4c22:    7082       strb r2, [r0, #2]
    4c24:    78c2       ldrb r2, [r0, #3]
    4c26:    f022 0203  bic.w r2, r2, #3
    4c2a:    70c2       strb r2, [r0, #3]
    4c2c:    61a1       str r1, [r4, #24]
    4c2e:    bd70       pop {r4, r5, r6, r15}
    4c30:    0058       lsls r0, r3, #1
    4c32:    2000       movs r0, #0
    4c34:    003c       movs r4, r7
    4c36:    2000       movs r0, #0
    4c38:    032c       lsls r4, r5, #12
    4c3a:    2000       movs r0, #0
    4c3c:    0034       movs r4, r6
    4c3e:    2000       movs r0, #0
    4c40:    0018       movs r0, r3
    4c42:    2000       movs r0, #0
    4c44:    002c       movs r4, r5
    4c46:    2000       movs r0, #0
    4c48:    e92d 41f0  stmdb r13!, {r4, r5, r6, r7, r8, r14}
    4c4c:    2601       movs r6, #1
    4c4e:    2700       movs r7, #0
    4c50:    4d2e       ldr r5, [pc, #184]          ; (0x4d0c)

    4c52:    28cb       cmp r0, #203                ; 0xcb
    4c54:    d006       beq.n 0x4c64                ; branch to 0x4c64 if r0 == 203
    4c56:    28cc       cmp r0, #204                ; 0xcc
    4c58:    d009       beq.n 0x4c6e                ; branch to 0x4c6e if r0 == 204
    4c5a:    28cd       cmp r0, #205                ; 0xcd
    4c5c:    d00c       beq.n 0x4c78                ; branch to 0x4c78 if r0 == 205
    4c5e:    28ce       cmp r0, #206                ; 0xce
    4c60:    d00f       beq.n 0x4c82                ; branch to 0x4c82 if r0 == 206

    4c62:    e014       b.n 0x4c8e                  ; branch to 0x4c8e
  0x4c64:    b109       cbz r1, 0x4c6a              ; branch to 0x4c6a if r1 == 0
    4c66:    776e       strb r6, [r5, #29]          ; store byte in r6 to address r5 + 29
    4c68:    e011       b.n 0x4c8e                  ; branch to 0x4c8e
  0x4c6a:    776f       strb r7, [r5, #29]          ; store byte in r7 to address r5 + 29
    4c6c:    e00f       b.n 0x4c8e                  ; branch to 0x4c8e
  0x4c6e:    b109       cbz r1, 0x4c74              ; branch to 0x4c74 if r1 == 0
    4c70:    77ae       strb r6, [r5, #30]          ; store byte in r6 to address r5 + 30
    4c72:    e00c       b.n 0x4c8e                  ; branch to 0x4c8e
  0x4c74:    77af       strb r7, [r5, #30]          ; store byte in r7 to address r5 + 30
    4c76:    e00a       b.n 0x4c8e                  ; branch to 0x4c8e
  0x4c78:    b109       cbz r1, 0x4c7e              ; branch to 0x4c7e if r1 == 0
    4c7a:    77ee       strb r6, [r5, #31]          ; store byte in r6 to address r5 + 31
    4c7c:    e007       b.n 0x4c8e                  ; branch to 0x4c8e
  0x4c7e:    77ef       strb r7, [r5, #31]          ; store byte in r7 to address r5 + 31
    4c80:    e005       b.n 0x4c8e                  ; branch to 0x4c8e
  0x4c82:    b111       cbz r1, 0x4c8a              ; branch to 0x4c8a if r1 == 0
    4c84:    f885 6020  strb.w r6, [r5, #32]        l store byte in r6 to address r5 + 32
    4c88:    e001       b.n 0x4c8e                  ; branch to 0x4c8e
  0x4c8a:    f885 7020  strb.w r7, [r5, #32]        ; store byte in r7 to address r5 + 32

  0x4c8e:    f895 0030  ldrb.w r0, [r5, #48]    ; 0x30
    4c92:    2800       cmp r0, #0
    4c94:    d119       bne.n 0x4cca
    4c96:    7f69       ldrb r1, [r5, #29]
    4c98:    7fa8       ldrb r0, [r5, #30]
    4c9a:    ea51 0200  orrs.w r2, r1, r0
    4c9e:    d002       beq.n 0x4ca6
    4ca0:    2901       cmp r1, #1
    4ca2:    d002       beq.n 0x4caa
    4ca4:    e004       b.n 0x4cb0                  ; branch to 0x4cb0
  0x4ca6:    2400       movs r4, #0
    4ca8:    e003       b.n 0x4cb2
    4caa:    b180       cbz r0, 0x4cce
    4cac:    2801       cmp r0, #1
    4cae:    d010       beq.n 0x4cd2
  0x4cb0:    2403       movs r4, #3
  0x4cb2:    f895 0026  ldrb.w r0, [r5, #38]    ; 0x26
    4cb6:    4284       cmp r4, r0
    4cb8:    d007       beq.n 0x4cca
    4cba:    f885 4027  strb.w r4, [r5, #39]    ; 0x27
    4cbe:    f000 fffd  bl 0x5cbc
    4cc2:    2801       cmp r0, #1
    4cc4:    d007       beq.n 0x4cd6
    4cc6:    f885 6028  strb.w r6, [r5, #40]    ; 0x28
  0x4cca:    e8bd 81f0  ldmia.w r13!, {r4, r5, r6, r7, r8, r15}
    4cce:    2401       movs r4, #1
    4cd0:    e7ef       b.n 0x4cb2
  0x4cd2:    2402       movs r4, #2
    4cd4:    e7ed       b.n 0x4cb2
    4cd6:    f105 0518  add.w r5, r5, #24
    4cda:    480d       ldr r0, [pc, #52]    ; (0x4d10)
    4cdc:    73ac       strb r4, [r5, #14]
    4cde:    f44f 627f  mov.w r2, #4080    ; 0xff0
    4ce2:    f850 1024  ldr.w r1, [r0, r4, lsl #2]
    4ce6:    480b       ldr r0, [pc, #44]    ; (0x4d14)
    4ce8:    f501 617f  add.w r1, r1, #4080    ; 0xff0
    4cec:    f7fd fb6c  bl 0x23c8                   ; call function_13
    4cf0:    4808       ldr r0, [pc, #32]    ; (0x4d14)
    4cf2:    7800       ldrb r0, [r0, #0]
    4cf4:    7028       strb r0, [r5, #0]
    4cf6:    7ba8       ldrb r0, [r5, #14]
    4cf8:    f7fc ffb2  bl 0x1c60
    4cfc:    f895 0021  ldrb.w r0, [r5, #33]    ; 0x21
    4d00:    f7fc fb46  bl 0x1390
    4d04:    f7ff ff3c  bl 0x4b80                   ; call function_16
    4d08:    70ef       strb r7, [r5, #3]
    4d0a:    e7de       b.n 0x4cca
    4d0c:    0058       lsls r0, r3, #1
    4d0e:    2000       movs r0, #0
    4d10:    8d44       ldrh r4, [r0, #42]    ; 0x2a
    4d12:    0000       movs r0, r0
    4d14:    1cba       adds r2, r7, #2
    4d16:    2000       movs r0, #0
    4d18:    e92d 41f0  stmdb r13!, {r4, r5, r6, r7, r8, r14}
    4d1c:    4c2b       ldr r4, [pc, #172]    ; (0x4dcc)
    4d1e:    4620       mov r0, r4
    4d20:    7ee6       ldrb r6, [r4, #27]
    4d22:    7f00       ldrb r0, [r0, #28]
    4d24:    2e01       cmp r6, #1
    4d26:    d001       beq.n 0x4d2c
    4d28:    2803       cmp r0, #3
    4d2a:    d11c       bne.n 0x4d66
    4d2c:    f8b4 1042  ldrh.w r1, [r4, #66]    ; 0x42
    4d30:    2900       cmp r1, #0
    4d32:    d118       bne.n 0x4d66
    4d34:    4d26       ldr r5, [pc, #152]    ; (0x4dd0)
    4d36:    f894 2032  ldrb.w r2, [r4, #50]    ; 0x32
    4d3a:    2700       movs r7, #0
    4d3c:    eb05 0182  add.w r1, r5, r2, lsl #2
    4d40:    788b       ldrb r3, [r1, #2]
    4d42:    b923       cbnz r3, 0x4d4e
    4d44:    f891 c003  ldrb.w r12, [r1, #3]
    4d48:    f1bc 0f00  cmp.w r12, #0
    4d4c:    d002       beq.n 0x4d54
    4d4e:    4316       orrs r6, r2
    4d50:    d012       beq.n 0x4d78
    4d52:    e013       b.n 0x4d7c
    4d54:    2e01       cmp r6, #1
    4d56:    d10d       bne.n 0x4d74
    4d58:    f884 7032  strb.w r7, [r4, #50]    ; 0x32
    4d5c:    2801       cmp r0, #1
    4d5e:    d004       beq.n 0x4d6a
    4d60:    20c8       movs r0, #200    ; 0xc8
    4d62:    f8a4 0042  strh.w r0, [r4, #66]    ; 0x42
    4d66:    e8bd 81f0  ldmia.w r13!, {r4, r5, r6, r7, r8, r15}
    4d6a:    2002       movs r0, #2
    4d6c:    7720       strb r0, [r4, #28]
    4d6e:    f44f 707a  mov.w r0, #1000    ; 0x3e8
    4d72:    e7f6       b.n 0x4d62
    4d74:    7727       strb r7, [r4, #28]
    4d76:    e7f6       b.n 0x4d66
    4d78:    2803       cmp r0, #3
    4d7a:    d0fb       beq.n 0x4d74
    4d7c:    f104 0432  add.w r4, r4, #50    ; 0x32
    4d80:    784e       ldrb r6, [r1, #1]
    4d82:    0218       lsls r0, r3, #8
    4d84:    8220       strh r0, [r4, #16]
    4d86:    78c8       ldrb r0, [r1, #3]
    4d88:    8a21       ldrh r1, [r4, #16]
    4d8a:    ea40 0001  orr.w r0, r0, r1
    4d8e:    8220       strh r0, [r4, #16]
    4d90:    f815 1022  ldrb.w r1, [r5, r2, lsl #2]
    4d94:    4630       mov r0, r6
    4d96:    f7fb fa61  bl 0x25c
    4d9a:    f814 0932  ldrb.w r0, [r4], #-50
    4d9e:    4f0b       ldr r7, [pc, #44]    ; (0x4dcc)
    4da0:    f815 0020  ldrb.w r0, [r5, r0, lsl #2]
    4da4:    2501       movs r5, #1
    4da6:    3780       adds r7, #128    ; 0x80
    4da8:    2801       cmp r0, #1
    4daa:    4630       mov r0, r6
    4dac:    d007       beq.n 0x4dbe
    4dae:    f7fc ff05  bl 0x1bbc
    4db2:    613d       str r5, [r7, #16]
    4db4:    f814 0f32  ldrb.w r0, [r4, #50]!
    4db8:    1c40       adds r0, r0, #1
    4dba:    7020       strb r0, [r4, #0]
    4dbc:    e7d3       b.n 0x4d66
    4dbe:    f000 f85d  bl 0x4e7c
    4dc2:    4630       mov r0, r6
    4dc4:    f7fb ff0c  bl 0xbe0
    4dc8:    e7f3       b.n 0x4db2
    4dca:    0000       movs r0, r0
    4dcc:    0058       lsls r0, r3, #1
    4dce:    2000       movs r0, #0
    4dd0:    080c       lsrs r4, r1, #32
    4dd2:    2000       movs r0, #0
    4dd4:    b570       push {r4, r5, r6, r14}
    4dd6:    4d1b       ldr r5, [pc, #108]    ; (0x4e44)
    4dd8:    6b68       ldr r0, [r5, #52]    ; 0x34
    4dda:    2800       cmp r0, #0
    4ddc:    d031       beq.n 0x4e42
    4dde:    6b68       ldr r0, [r5, #52]    ; 0x34
    4de0:    f242 7110  movw r1, #10000    ; 0x2710
    4de4:    4288       cmp r0, r1
    4de6:    d92c       bls.n 0x4e42
    4de8:    2400       movs r4, #0
    4dea:    636c       str r4, [r5, #52]    ; 0x34
    4dec:    f1a5 0680  sub.w r6, r5, #128    ; 0x80
    4df0:    4630       mov r0, r6
    4df2:    f896 102a  ldrb.w r1, [r6, #42]    ; 0x2a
    4df6:    f890 0026  ldrb.w r0, [r0, #38]    ; 0x26
    4dfa:    2902       cmp r1, #2
    4dfc:    d002       beq.n 0x4e04
    4dfe:    f000 fa8b  bl 0x5318
    4e02:    e001       b.n 0x4e08
    4e04:    f000 fa00  bl 0x5208
    4e08:    f806 4f2a  strb.w r4, [r6, #42]!
    4e0c:    7074       strb r4, [r6, #1]
    4e0e:    7bf0       ldrb r0, [r6, #15]
    4e10:    f1a6 062a  sub.w r6, r6, #42    ; 0x2a
    4e14:    f7fc fabc  bl 0x1390
    4e18:    490b       ldr r1, [pc, #44]    ; (0x4e48)
    4e1a:    2000       movs r0, #0
    4e1c:    700c       strb r4, [r1, #0]
    4e1e:    180a       adds r2, r1, r0
    4e20:    1c40       adds r0, r0, #1
    4e22:    b2c0       uxtb r0, r0
    4e24:    7094       strb r4, [r2, #2]
    4e26:    2806       cmp r0, #6
    4e28:    d3f9       bcc.n 0x4e1e
    4e2a:    2201       movs r2, #1
    4e2c:    4907       ldr r1, [pc, #28]    ; (0x4e4c)
    4e2e:    2000       movs r0, #0
    4e30:    612a       str r2, [r5, #16]
    4e32:    180b       adds r3, r1, r0
    4e34:    1c40       adds r0, r0, #1
    4e36:    b2c0       uxtb r0, r0
    4e38:    709c       strb r4, [r3, #2]
    4e3a:    281d       cmp r0, #29
    4e3c:    d3f9       bcc.n 0x4e32
    4e3e:    616a       str r2, [r5, #20]
    4e40:    7334       strb r4, [r6, #12]
    4e42:    bd70       pop {r4, r5, r6, r15}
    4e44:    00d8       lsls r0, r3, #3
    4e46:    2000       movs r0, #0
    4e48:    003c       movs r4, r7
    4e4a:    2000       movs r0, #0
    4e4c:    032c       lsls r4, r5, #12
    4e4e:    2000       movs r0, #0
    4e50:    b510       push {r4, r14}
    4e52:    4c09       ldr r4, [pc, #36]    ; (0x4e78)
    4e54:    f894 0039  ldrb.w r0, [r4, #57]    ; 0x39
    4e58:    2801       cmp r0, #1
    4e5a:    d105       bne.n 0x4e68
    4e5c:    f8b4 0048  ldrh.w r0, [r4, #72]    ; 0x48
    4e60:    f000 fc6c  bl 0x573c
    4e64:    f8a4 0048  strh.w r0, [r4, #72]    ; 0x48
    4e68:    f000 fc2c  bl 0x56c4
    4e6c:    f894 0039  ldrb.w r0, [r4, #57]    ; 0x39
    4e70:    e8bd 4010  ldmia.w r13!, {r4, r14}
    4e74:    f7fc ba8c  b.w 0x1390
    4e78:    0058       lsls r0, r3, #1
    4e7a:    2000       movs r0, #0
    4e7c:    28c4       cmp r0, #196    ; 0xc4
    4e7e:    d005       beq.n 0x4e8c
    4e80:    28c5       cmp r0, #197    ; 0xc5
    4e82:    d005       beq.n 0x4e90
    4e84:    28c6       cmp r0, #198    ; 0xc6
    4e86:    d105       bne.n 0x4e94
    4e88:    f7ff bfe2  b.w 0x4e50
    4e8c:    f000 b804  b.w 0x4e98
    4e90:    f000 b818  b.w 0x4ec4
    4e94:    4770       bx r14
    4e96:    0000       movs r0, r0
    4e98:    b510       push {r4, r14}
    4e9a:    4c09       ldr r4, [pc, #36]    ; (0x4ec0)
    4e9c:    f894 0039  ldrb.w r0, [r4, #57]    ; 0x39
    4ea0:    2801       cmp r0, #1
    4ea2:    d105       bne.n 0x4eb0
    4ea4:    f8b4 0048  ldrh.w r0, [r4, #72]    ; 0x48
    4ea8:    f000 fc68  bl 0x577c
    4eac:    f8a4 0048  strh.w r0, [r4, #72]    ; 0x48
    4eb0:    f000 fc08  bl 0x56c4
    4eb4:    f894 0039  ldrb.w r0, [r4, #57]    ; 0x39
    4eb8:    e8bd 4010  ldmia.w r13!, {r4, r14}
    4ebc:    f7fc ba68  b.w 0x1390
    4ec0:    0058       lsls r0, r3, #1
    4ec2:    2000       movs r0, #0
    4ec4:    b570       push {r4, r5, r6, r14}
    4ec6:    4c1f       ldr r4, [pc, #124]    ; (0x4f44)
    4ec8:    2500       movs r5, #0
    4eca:    f894 0039  ldrb.w r0, [r4, #57]    ; 0x39
    4ece:    2801       cmp r0, #1
    4ed0:    d10b       bne.n 0x4eea
    4ed2:    f8b4 0046  ldrh.w r0, [r4, #70]    ; 0x46
    4ed6:    b960       cbnz r0, 0x4ef2
    4ed8:    f8b4 0048  ldrh.w r0, [r4, #72]    ; 0x48
    4edc:    b948       cbnz r0, 0x4ef2
    4ede:    f44f 7096  mov.w r0, #300    ; 0x12c
    4ee2:    f8a4 0048  strh.w r0, [r4, #72]    ; 0x48
    4ee6:    f000 fbc7  bl 0x5678
    4eea:    f894 0039  ldrb.w r0, [r4, #57]    ; 0x39
    4eee:    2804       cmp r0, #4
    4ef0:    d025       beq.n 0x4f3e
    4ef2:    f894 0039  ldrb.w r0, [r4, #57]    ; 0x39
    4ef6:    1c40       adds r0, r0, #1
    4ef8:    f000 0003  and.w r0, r0, #3
    4efc:    f884 0039  strb.w r0, [r4, #57]    ; 0x39
    4f00:    4e10       ldr r6, [pc, #64]    ; (0x4f44)
    4f02:    72e5       strb r5, [r4, #11]
    4f04:    3680       adds r6, #128    ; 0x80
    4f06:    6335       str r5, [r6, #48]    ; 0x30
    4f08:    f894 0039  ldrb.w r0, [r4, #57]    ; 0x39
    4f0c:    f7fc fa40  bl 0x1390
    4f10:    490d       ldr r1, [pc, #52]    ; (0x4f48)
    4f12:    f894 0039  ldrb.w r0, [r4, #57]    ; 0x39
    4f16:    7008       strb r0, [r1, #0]
    4f18:    480c       ldr r0, [pc, #48]    ; (0x4f4c)
    4f1a:    7e21       ldrb r1, [r4, #24]
    4f1c:    f894 2026  ldrb.w r2, [r4, #38]    ; 0x26
    4f20:    f850 1021  ldr.w r1, [r0, r1, lsl #2]
    4f24:    389c       subs r0, #156    ; 0x9c
    4f26:    f850 0022  ldr.w r0, [r0, r2, lsl #2]
    4f2a:    2200       movs r2, #0
    4f2c:    4408       add r0, r1
    4f2e:    4601       mov r1, r0
    4f30:    f000 ff00  bl 0x5d34
    4f34:    66a5       str r5, [r4, #104]    ; 0x68
    4f36:    66e5       str r5, [r4, #108]    ; 0x6c
    4f38:    2001       movs r0, #1
    4f3a:    6070       str r0, [r6, #4]
    4f3c:    bd70       pop {r4, r5, r6, r15}
    4f3e:    f884 5039  strb.w r5, [r4, #57]    ; 0x39
    4f42:    e7dd       b.n 0x4f00
    4f44:    0058       lsls r0, r3, #1
    4f46:    2000       movs r0, #0
    4f48:    1cba       adds r2, r7, #2
    4f4a:    2000       movs r0, #0
    4f4c:    8de0       ldrh r0, [r4, #46]    ; 0x2e
    4f4e:    0000       movs r0, r0

function_4:
  0x4f50:    b510       push {r4, r14}
    4f52:    4b0d       ldr r3, [pc, #52]           ; (0x4f88)
    4f54:    eb01 00c0  add.w r0, r1, r0, lsl #3
    4f58:    4c0c       ldr r4, [pc, #48]           ; (0x4f8c)
    4f5a:    f893 1026  ldrb.w r1, [r3, #38]        ; 0x26
    4f5e:    7e1b       ldrb r3, [r3, #24]
    4f60:    eb01 0141  add.w r1, r1, r1, lsl #1
    4f64:    eb04 1101  add.w r1, r4, r1, lsl #4
    4f68:    eb01 1103  add.w r1, r1, r3, lsl #4
    4f6c:    b14a       cbz r2, 0x4f82
    4f6e:    f851 1c0c  ldr.w r1, [r1, #-12]
    4f72:    2201       movs r2, #1
    4f74:    4401       add r1, r0
    4f76:    4806       ldr r0, [pc, #24]           ; (0x4f90)
    4f78:    f7fd fa26  bl 0x23c8                   ; call function_13
    4f7c:    4804       ldr r0, [pc, #16]           ; (0x4f90)
    4f7e:    7800       ldrb r0, [r0, #0]
    4f80:    bd10       pop {r4, r15}
    4f82:    f851 1c10  ldr.w r1, [r1, #-16]
    4f86:    e7f4       b.n 0x4f72
    4f88:    0058       lsls r0, r3, #1
    4f8a:    2000       movs r0, #0
    4f8c:    8d50       ldrh r0, [r2, #42]          ; 0x2a
    4f8e:    0000       movs r0, r0
    4f90:    1cba       adds r2, r7, #2
    4f92:    2000       movs r0, #0
    4f94:    f7fd fb0c  bl 0x25b0                   ; call function_5
    4f98:    f7fb fb9e  bl 0x6d8                    ; call function_6
    4f9c:    f7fb fe72  bl 0xc84                    ; call function_7
    4fa0:    4846       ldr r0, [pc, #280]          ; (0x50bc)
    4fa2:    f7fb fb93  bl 0x6cc                    ; bad branch
    4fa6:    2001       movs r0, #1
    4fa8:    f7fc fd38  bl 0x1a1c                   ; call function_8
    4fac:    2001       movs r0, #1
    4fae:    f7fe fc8d  bl 0x38cc                   ; call function_9
    4fb2:    4843       ldr r0, [pc, #268]          ; (0x50c0)
    4fb4:    f7fb fb8a  bl 0x6cc
    4fb8:    200a       movs r0, #10
    4fba:    f7fb fb87  bl 0x6cc
    4fbe:    f8df 8104  ldr.w r8, [r15, #260]       ; 0x50c4
    4fc2:    f44f 7600  mov.w r6, #512              ; 0x200
    4fc6:    f8c8 6028  str.w r6, [r8, #40]         ; 0x28
    4fca:    200a       movs r0, #10
    4fcc:    f7fb fb7e  bl 0x6cc
    4fd0:    f8df a0f4  ldr.w r10, [r15, #244]      ; 0x50c8
    4fd4:    f44f 7980  mov.w r9, #256              ; 0x100
    4fd8:    2201       movs r2, #1
    4fda:    464c       mov r4, r9
    4fdc:    4649       mov r1, r9
    4fde:    4655       mov r5, r10
    4fe0:    4650       mov r0, r10
    4fe2:    f7fb fc9b  bl 0x91c
    4fe6:    2200       movs r2, #0
    4fe8:    4621       mov r1, r4
    4fea:    4628       mov r0, r5
    4fec:    f7fb fccc  bl 0x988
    4ff0:    200a       movs r0, #10
    4ff2:    f7fb fb6b  bl 0x6cc
    4ff6:    f7fe fc0d  bl 0x3814
    4ffa:    4c34       ldr r4, [pc, #208]          ; (0x50cc)
    4ffc:    7020       strb r0, [r4, #0]
    4ffe:    7820       ldrb r0, [r4, #0]
    5000:    f000 0044  and.w r0, r0, #68           ; 0x44
    5004:    7020       strb r0, [r4, #0]
    5006:    7821       ldrb r1, [r4, #0]
    5008:    4831       ldr r0, [pc, #196]          ; (0x50d0)
    500a:    2700       movs r7, #0
    500c:    2501       movs r5, #1
    500e:    2944       cmp r1, #68                 ; 0x44
    5010:    d025       beq.n 0x505e
    5012:    7821       ldrb r1, [r4, #0]
    5014:    2904       cmp r1, #4
    5016:    d024       beq.n 0x5062
    5018:    7821       ldrb r1, [r4, #0]
    501a:    2944       cmp r1, #68                 ; 0x44
    501c:    d023       beq.n 0x5066
    501e:    2103       movs r1, #3
    5020:    7001       strb r1, [r0, #0]
    5022:    492c       ldr r1, [pc, #176]          ; (0x50d4)
    5024:    7800       ldrb r0, [r0, #0]
    5026:    7008       strb r0, [r1, #0]
    5028:    2201       movs r2, #1
    502a:    4649       mov r1, r9
    502c:    4650       mov r0, r10
    502e:    f7fb fcab  bl 0x988
    5032:    200a       movs r0, #10
    5034:    f7fb fb4a  bl 0x6cc
    5038:    2001       movs r0, #1
    503a:    f7fe fc47  bl 0x38cc
    503e:    200a       movs r0, #10
    5040:    f7fb fb44  bl 0x6cc
    5044:    f8c8 6024  str.w r6, [r8, #36]    ; 0x24
    5048:    200a       movs r0, #10
    504a:    f7fb fb3f  bl 0x6cc
    504e:    f7fb f9d9  bl 0x404
    5052:    f7ff f873  bl 0x413c
    5056:    4e20       ldr r6, [pc, #128]    ; (0x50d8)
    5058:    68a0       ldr r0, [r4, #8]
    505a:    b130       cbz r0, 0x506a
    505c:    e00d       b.n 0x507a
    505e:    7007       strb r7, [r0, #0]
    5060:    e7df       b.n 0x5022
    5062:    7005       strb r5, [r0, #0]
    5064:    e7dd       b.n 0x5022
    5066:    2102       movs r1, #2
    5068:    e7da       b.n 0x5020
    506a:    f896 0032  ldrb.w r0, [r6, #50]    ; 0x32
    506e:    2806       cmp r0, #6
    5070:    d11e       bne.n 0x50b0
    5072:    2000       movs r0, #0
    5074:    60a5       str r5, [r4, #8]
    5076:    f7fc fcd1  bl 0x1a1c                   ; call function_8
    507a:    68a0       ldr r0, [r4, #8]
    507c:    2801       cmp r0, #1
    507e:    d117       bne.n 0x50b0
    5080:    6920       ldr r0, [r4, #16]
    5082:    b120       cbz r0, 0x508e
    5084:    6127       str r7, [r4, #16]
    5086:    2001       movs r0, #1
    5088:    60e7       str r7, [r4, #12]
    508a:    f7fc fcc7  bl 0x1a1c                   ; call function_8
    508e:    68e0       ldr r0, [r4, #12]
    5090:    b948       cbnz r0, 0x50a6
    5092:    6920       ldr r0, [r4, #16]
    5094:    b960       cbnz r0, 0x50b0
    5096:    f896 0032  ldrb.w r0, [r6, #50]    ; 0x32
    509a:    2806       cmp r0, #6
    509c:    d108       bne.n 0x50b0
    509e:    2000       movs r0, #0
    50a0:    60e5       str r5, [r4, #12]
    50a2:    f7fc fcbb  bl 0x1a1c                   ; call function_8
    50a6:    68e0       ldr r0, [r4, #12]
    50a8:    2801       cmp r0, #1
    50aa:    d101       bne.n 0x50b0
    50ac:    f7fc fd0a  bl 0x1ac4
    50b0:    4809       ldr r0, [pc, #36]    ; (0x50d8)
    50b2:    f7ff f808  bl 0x40c6
    50b6:    f7ff fa45  bl 0x4544                   ; call function_12
    50ba:    e7cd       b.n 0x5058
    50bc:    1a80       subs r0, r0, r2
    50be:    0006       movs r6, r0
    50c0:    86a0       strh r0, [r4, #52]    ; 0x34
    50c2:    0001       movs r1, r0
    50c4:    0000       movs r0, r0
    50c6:    400b       ands r3, r1
    50c8:    4000       ands r0, r0
    50ca:    400b       ands r3, r1
    50cc:    0000       movs r0, r0
    50ce:    2000       movs r0, #0
    50d0:    007e       lsls r6, r7, #1
    50d2:    2000       movs r0, #0
    50d4:    007f       lsls r7, r7, #1
    50d6:    2000       movs r0, #0
    50d8:    0234       lsls r4, r6, #8
    50da:    2000       movs r0, #0
    50dc:    e92d 43f0  stmdb r13!, {r4, r5, r6, r7, r8, r9, r14}
    50e0:    f1a0 02a0  sub.w r2, r0, #160    ; 0xa0
    50e4:    2a07       cmp r2, #7
    50e6:    d868       bhi.n 0x51ba
    50e8:    4b35       ldr r3, [pc, #212]    ; (0x51c0)
    50ea:    7c1a       ldrb r2, [r3, #16]
    50ec:    2a01       cmp r2, #1
    50ee:    d107       bne.n 0x5100
    50f0:    28a4       cmp r0, #164    ; 0xa4
    50f2:    d002       beq.n 0x50fa
    50f4:    28a5       cmp r0, #165    ; 0xa5
    50f6:    d002       beq.n 0x50fe
    50f8:    e002       b.n 0x5100
    50fa:    20a5       movs r0, #165    ; 0xa5
    50fc:    e000       b.n 0x5100
    50fe:    20a4       movs r0, #164    ; 0xa4
    5100:    4a30       ldr r2, [pc, #192]    ; (0x51c4)
    5102:    38a0       subs r0, #160    ; 0xa0
    5104:    2600       movs r6, #0
    5106:    f992 8003  ldrsb.w r8, [r2, #3]
    510a:    f992 c002  ldrsb.w r12, [r2, #2]
    510e:    f992 7004  ldrsb.w r7, [r2, #4]
    5112:    7854       ldrb r4, [r2, #1]
    5114:    2501       movs r5, #1
    5116:    f04f 39ff  mov.w r9, #4294967295    ; 0xffffffff
    511a:    2808       cmp r0, #8
    511c:    d247       bcs.n 0x51ae
    511e:    e8df f000  tbb [r15, r0]
    5122:    0c04       lsrs r4, r0, #16
    5124:    1e16       subs r6, r2, #0
    5126:    3f38       subs r7, #56    ; 0x38
    5128:    2e28       cmp r6, #40    ; 0x28
    512a:    b111       cbz r1, 0x5132
    512c:    f882 9003  strb.w r9, [r2, #3]
    5130:    e005       b.n 0x513e
    5132:    ea5f 6008  movs.w r0, r8, lsl #24
    5136:    d407       bmi.n 0x5148
    5138:    e039       b.n 0x51ae
    513a:    b111       cbz r1, 0x5142
    513c:    70d5       strb r5, [r2, #3]
    513e:    675d       str r5, [r3, #116]    ; 0x74
    5140:    e035       b.n 0x51ae
    5142:    ea5f 6008  movs.w r0, r8, lsl #24
    5146:    d432       bmi.n 0x51ae
    5148:    70d6       strb r6, [r2, #3]
    514a:    675e       str r6, [r3, #116]    ; 0x74
    514c:    e02f       b.n 0x51ae
    514e:    b111       cbz r1, 0x5156
    5150:    f882 9002  strb.w r9, [r2, #2]
    5154:    e005       b.n 0x5162
    5156:    ea5f 600c  movs.w r0, r12, lsl #24
    515a:    d407       bmi.n 0x516c
    515c:    e027       b.n 0x51ae
    515e:    b111       cbz r1, 0x5166
    5160:    7095       strb r5, [r2, #2]
    5162:    671d       str r5, [r3, #112]    ; 0x70
    5164:    e023       b.n 0x51ae
    5166:    ea5f 600c  movs.w r0, r12, lsl #24
    516a:    d420       bmi.n 0x51ae
    516c:    7096       strb r6, [r2, #2]
    516e:    671e       str r6, [r3, #112]    ; 0x70
    5170:    e01d       b.n 0x51ae
    5172:    b109       cbz r1, 0x5178
    5174:    7115       strb r5, [r2, #4]
    5176:    e005       b.n 0x5184
    5178:    0638       lsls r0, r7, #24
    517a:    d507       bpl.n 0x518c
    517c:    e017       b.n 0x51ae
    517e:    b119       cbz r1, 0x5188
    5180:    f882 9004  strb.w r9, [r2, #4]
    5184:    679d       str r5, [r3, #120]    ; 0x78
    5186:    e012       b.n 0x51ae
    5188:    0638       lsls r0, r7, #24
    518a:    d510       bpl.n 0x51ae
    518c:    7116       strb r6, [r2, #4]
    518e:    679e       str r6, [r3, #120]    ; 0x78
    5190:    e00d       b.n 0x51ae
    5192:    b111       cbz r1, 0x519a
    5194:    f044 0001  orr.w r0, r4, #1
    5198:    e008       b.n 0x51ac
    519a:    f024 0001  bic.w r0, r4, #1
    519e:    e005       b.n 0x51ac
    51a0:    b111       cbz r1, 0x51a8
    51a2:    f044 0002  orr.w r0, r4, #2
    51a6:    e001       b.n 0x51ac
    51a8:    f024 0002  bic.w r0, r4, #2
    51ac:    7050       strb r0, [r2, #1]
    51ae:    4804       ldr r0, [pc, #16]    ; (0x51c0)
    51b0:    3080       adds r0, #128    ; 0x80
    51b2:    6205       str r5, [r0, #32]
    51b4:    2001       movs r0, #1
    51b6:    e8bd 83f0  ldmia.w r13!, {r4, r5, r6, r7, r8, r9, r15}
    51ba:    2000       movs r0, #0
    51bc:    e7fb       b.n 0x51b6
    51be:    0000       movs r0, r0
    51c0:    0058       lsls r0, r3, #1
    51c2:    2000       movs r0, #0
    51c4:    0034       movs r4, r6
    51c6:    2000       movs r0, #0
    51c8:    b5f0       push {r4, r5, r6, r7, r14}
    51ca:    2100       movs r1, #0
    51cc:    4f0c       ldr r7, [pc, #48]    ; (0x5200)
    51ce:    f8df c034  ldr.w r12, [r15, #52]    ; 0x5204
    51d2:    2301       movs r3, #1
    51d4:    f44f 75e1  mov.w r5, #450    ; 0x1c2
    51d8:    5c7a       ldrb r2, [r7, r1]
    51da:    2000       movs r0, #0
    51dc:    eb0c 1401  add.w r4, r12, r1, lsl #4
    51e0:    fa03 f600  lsl.w r6, r3, r0
    51e4:    4232       tst r2, r6
    51e6:    d001       beq.n 0x51ec
    51e8:    f824 5010  strh.w r5, [r4, r0, lsl #1]
    51ec:    1c40       adds r0, r0, #1
    51ee:    b2c0       uxtb r0, r0
    51f0:    2808       cmp r0, #8
    51f2:    d3f5       bcc.n 0x51e0
    51f4:    1c49       adds r1, r1, #1
    51f6:    b2c9       uxtb r1, r1
    51f8:    2909       cmp r1, #9
    51fa:    d3ed       bcc.n 0x51d8
    51fc:    bdf0       pop {r4, r5, r6, r7, r15}
    51fe:    0000       movs r0, r0
    5200:    017c       lsls r4, r7, #5
    5202:    2000       movs r0, #0
    5204:    2e2c       cmp r6, #44    ; 0x2c
    5206:    2000       movs r0, #0
    5208:    b570       push {r4, r5, r6, r14}
    520a:    4c19       ldr r4, [pc, #100]    ; (0x5270)
    520c:    2500       movs r5, #0
    520e:    4606       mov r6, r0
    5210:    7025       strb r5, [r4, #0]
    5212:    7ba0       ldrb r0, [r4, #14]
    5214:    f000 f880  bl 0x5318
    5218:    2001       movs r0, #1
    521a:    7020       strb r0, [r4, #0]
    521c:    7ba0       ldrb r0, [r4, #14]
    521e:    f000 f87b  bl 0x5318
    5222:    2002       movs r0, #2
    5224:    7020       strb r0, [r4, #0]
    5226:    7ba0       ldrb r0, [r4, #14]
    5228:    f000 f876  bl 0x5318
    522c:    2003       movs r0, #3
    522e:    7020       strb r0, [r4, #0]
    5230:    7ba0       ldrb r0, [r4, #14]
    5232:    f000 f871  bl 0x5318
    5236:    490f       ldr r1, [pc, #60]    ; (0x5274)
    5238:    7025       strb r5, [r4, #0]
    523a:    74e5       strb r5, [r4, #19]
    523c:    700d       strb r5, [r1, #0]
    523e:    2056       movs r0, #86    ; 0x56
    5240:    72c8       strb r0, [r1, #11]
    5242:    2031       movs r0, #49    ; 0x31
    5244:    7308       strb r0, [r1, #12]
    5246:    2034       movs r0, #52    ; 0x34
    5248:    7348       strb r0, [r1, #13]
    524a:    480b       ldr r0, [pc, #44]    ; (0x5278)
    524c:    f44f 627f  mov.w r2, #4080    ; 0xff0
    5250:    f850 0026  ldr.w r0, [r0, r6, lsl #2]
    5254:    f600 71fe  addw r1, r0, #4094    ; 0xffe
    5258:    f500 607f  add.w r0, r0, #4080    ; 0xff0
    525c:    f000 fd6a  bl 0x5d34
    5260:    7525       strb r5, [r4, #20]
    5262:    7565       strb r5, [r4, #21]
    5264:    f894 0021  ldrb.w r0, [r4, #33]    ; 0x21
    5268:    e8bd 4070  ldmia.w r13!, {r4, r5, r6, r14}
    526c:    f7fc b890  b.w 0x1390
    5270:    0070       lsls r0, r6, #1
    5272:    2000       movs r0, #0
    5274:    2caa       cmp r4, #170    ; 0xaa
    5276:    2000       movs r0, #0
    5278:    8d44       ldrh r4, [r0, #42]    ; 0x2a
    527a:    0000       movs r0, r0
    527c:    e92d 5ff0  stmdb r13!, {r4, r5, r6, r7, r8, r9, r10, r11, r12, r14}
    5280:    2400       movs r4, #0
    5282:    4d22       ldr r5, [pc, #136]    ; (0x530c)
    5284:    f8df 9088  ldr.w r9, [r15, #136]    ; 0x5310
    5288:    4f22       ldr r7, [pc, #136]    ; (0x5314)
    528a:    4626       mov r6, r4
    528c:    f04f 0801  mov.w r8, #1
    5290:    f04f 0a02  mov.w r10, #2
    5294:    f04f 0b03  mov.w r11, #3
    5298:    762e       strb r6, [r5, #24]
    529a:    4620       mov r0, r4
    529c:    f000 f83c  bl 0x5318
    52a0:    f885 8018  strb.w r8, [r5, #24]
    52a4:    4620       mov r0, r4
    52a6:    f000 f837  bl 0x5318
    52aa:    f885 a018  strb.w r10, [r5, #24]
    52ae:    4620       mov r0, r4
    52b0:    f000 f832  bl 0x5318
    52b4:    f885 b018  strb.w r11, [r5, #24]
    52b8:    4620       mov r0, r4
    52ba:    f000 f82d  bl 0x5318
    52be:    f885 602b  strb.w r6, [r5, #43]    ; 0x2b
    52c2:    f509 607f  add.w r0, r9, #4080    ; 0xff0
    52c6:    762e       strb r6, [r5, #24]
    52c8:    7006       strb r6, [r0, #0]
    52ca:    f04f 0156  mov.w r1, #86    ; 0x56
    52ce:    72c1       strb r1, [r0, #11]
    52d0:    f04f 0131  mov.w r1, #49    ; 0x31
    52d4:    7301       strb r1, [r0, #12]
    52d6:    f04f 0134  mov.w r1, #52    ; 0x34
    52da:    f889 1ffd  strb.w r1, [r9, #4093]    ; 0xffd
    52de:    f857 0024  ldr.w r0, [r7, r4, lsl #2]
    52e2:    f44f 627f  mov.w r2, #4080    ; 0xff0
    52e6:    f600 71fe  addw r1, r0, #4094    ; 0xffe
    52ea:    f500 607f  add.w r0, r0, #4080    ; 0xff0
    52ee:    f000 fd21  bl 0x5d34
    52f2:    1c64       adds r4, r4, #1
    52f4:    b2e4       uxtb r4, r4
    52f6:    2c03       cmp r4, #3
    52f8:    d3ce       bcc.n 0x5298
    52fa:    f805 6f2c  strb.w r6, [r5, #44]!
    52fe:    706e       strb r6, [r5, #1]
    5300:    7b68       ldrb r0, [r5, #13]
    5302:    e8bd 5ff0  ldmia.w r13!, {r4, r5, r6, r7, r8, r9, r10, r11, r12, r14}
    5306:    f7fc b843  b.w 0x1390
    530a:    0000       movs r0, r0
    530c:    0058       lsls r0, r3, #1
    530e:    2000       movs r0, #0
    5310:    1cba       adds r2, r7, #2
    5312:    2000       movs r0, #0
    5314:    8d44       ldrh r4, [r0, #42]    ; 0x2a
    5316:    0000       movs r0, r0
    5318:    e92d 5ff0  stmdb r13!, {r4, r5, r6, r7, r8, r9, r10, r11, r12, r14}
    531c:    4c5d       ldr r4, [pc, #372]    ; (0x5494)
    531e:    4681       mov r9, r0
    5320:    2002       movs r0, #2
    5322:    71a0       strb r0, [r4, #6]
    5324:    2644       movs r6, #68    ; 0x44
    5326:    f884 603d  strb.w r6, [r4, #61]    ; 0x3d
    532a:    2745       movs r7, #69    ; 0x45
    532c:    f884 703e  strb.w r7, [r4, #62]    ; 0x3e
    5330:    2300       movs r3, #0
    5332:    f884 3039  strb.w r3, [r4, #57]    ; 0x39
    5336:    4858       ldr r0, [pc, #352]    ; (0x5498)
    5338:    7e21       ldrb r1, [r4, #24]
    533a:    4d58       ldr r5, [pc, #352]    ; (0x549c)
    533c:    f04f 08e8  mov.w r8, #232    ; 0xe8
    5340:    f850 2021  ldr.w r2, [r0, r1, lsl #2]
    5344:    1ce8       adds r0, r5, #3
    5346:    1c41       adds r1, r0, #1
    5348:    54ab       strb r3, [r5, r2]
    534a:    f802 8000  strb.w r8, [r2, r0]
    534e:    f04f 0a03  mov.w r10, #3
    5352:    1c80       adds r0, r0, #2
    5354:    f802 a001  strb.w r10, [r2, r1]
    5358:    5413       strb r3, [r2, r0]
    535a:    1c40       adds r0, r0, #1
    535c:    46a3       mov r11, r4
    535e:    5413       strb r3, [r2, r0]
    5360:    1cc0       adds r0, r0, #3
    5362:    5413       strb r3, [r2, r0]
    5364:    1c40       adds r0, r0, #1
    5366:    5416       strb r6, [r2, r0]
    5368:    1c40       adds r0, r0, #1
    536a:    f44f 7690  mov.w r6, #288    ; 0x120
    536e:    5417       strb r7, [r2, r0]
    5370:    2000       movs r0, #0
    5372:    1951       adds r1, r2, r5
    5374:    f100 040c  add.w r4, r0, #12
    5378:    550b       strb r3, [r1, r4]
    537a:    f200 142d  addw r4, r0, #301    ; 0x12d
    537e:    1c40       adds r0, r0, #1
    5380:    b280       uxth r0, r0
    5382:    550b       strb r3, [r1, r4]
    5384:    42b0       cmp r0, r6
    5386:    d3f5       bcc.n 0x5374
    5388:    4f45       ldr r7, [pc, #276]    ; (0x54a0)
    538a:    2100       movs r1, #0
    538c:    f507 7c90  add.w r12, r7, #288    ; 0x120
    5390:    2000       movs r0, #0
    5392:    eb0c 1441  add.w r4, r12, r1, lsl #5
    5396:    eb07 1541  add.w r5, r7, r1, lsl #5
    539a:    eb05 0680  add.w r6, r5, r0, lsl #2
    539e:    f825 3020  strh.w r3, [r5, r0, lsl #2]
    53a2:    8073       strh r3, [r6, #2]
    53a4:    f824 3020  strh.w r3, [r4, r0, lsl #2]
    53a8:    eb04 0680  add.w r6, r4, r0, lsl #2
    53ac:    1c40       adds r0, r0, #1
    53ae:    b280       uxth r0, r0
    53b0:    8073       strh r3, [r6, #2]
    53b2:    2808       cmp r0, #8
    53b4:    d3f1       bcc.n 0x539a
    53b6:    1c49       adds r1, r1, #1
    53b8:    b289       uxth r1, r1
    53ba:    2909       cmp r1, #9
    53bc:    d3e8       bcc.n 0x5390
    53be:    4837       ldr r0, [pc, #220]    ; (0x549c)
    53c0:    4936       ldr r1, [pc, #216]    ; (0x549c)
    53c2:    3034       adds r0, #52    ; 0x34
    53c4:    3135       adds r1, #53    ; 0x35
    53c6:    f802 8000  strb.w r8, [r2, r0]
    53ca:    4c34       ldr r4, [pc, #208]    ; (0x549c)
    53cc:    f802 a001  strb.w r10, [r2, r1]
    53d0:    2632       movs r6, #50    ; 0x32
    53d2:    3450       adds r4, #80    ; 0x50
    53d4:    853e       strh r6, [r7, #40]    ; 0x28
    53d6:    2164       movs r1, #100    ; 0x64
    53d8:    5511       strb r1, [r2, r4]
    53da:    1c64       adds r4, r4, #1
    53dc:    4d2f       ldr r5, [pc, #188]    ; (0x549c)
    53de:    5513       strb r3, [r2, r4]
    53e0:    24c8       movs r4, #200    ; 0xc8
    53e2:    3554       adds r5, #84    ; 0x54
    53e4:    f8a7 4044  strh.w r4, [r7, #68]    ; 0x44
    53e8:    f802 8005  strb.w r8, [r2, r5]
    53ec:    1c6d       adds r5, r5, #1
    53ee:    f44f 7e7a  mov.w r14, #1000    ; 0x3e8
    53f2:    f802 a005  strb.w r10, [r2, r5]
    53f6:    1ced       adds r5, r5, #3
    53f8:    f8a7 e048  strh.w r14, [r7, #72]    ; 0x48
    53fc:    5554       strb r4, [r2, r5]
    53fe:    1c6d       adds r5, r5, #1
    5400:    4650       mov r0, r10
    5402:    5553       strb r3, [r2, r5]
    5404:    f44f 7a96  mov.w r10, #300    ; 0x12c
    5408:    f505 75c0  add.w r5, r5, #384    ; 0x180
    540c:    f8a7 a04c  strh.w r10, [r7, #76]    ; 0x4c
    5410:    f802 8005  strb.w r8, [r2, r5]
    5414:    1c6d       adds r5, r5, #1
    5416:    5550       strb r0, [r2, r5]
    5418:    351f       adds r5, #31
    541a:    f8ac 60ac  strh.w r6, [r12, #172]    ; 0xac
    541e:    5551       strb r1, [r2, r5]
    5420:    1c6d       adds r5, r5, #1
    5422:    5553       strb r3, [r2, r5]
    5424:    f8ac 10cc  strh.w r1, [r12, #204]    ; 0xcc
    5428:    f1a5 0171  sub.w r1, r5, #113    ; 0x71
    542c:    f802 8001  strb.w r8, [r2, r1]
    5430:    1c49       adds r1, r1, #1
    5432:    5450       strb r0, [r2, r1]
    5434:    1ce8       adds r0, r5, #3
    5436:    f8ac a05c  strh.w r10, [r12, #92]    ; 0x5c
    543a:    5414       strb r4, [r2, r0]
    543c:    1c40       adds r0, r0, #1
    543e:    5413       strb r3, [r2, r0]
    5440:    4815       ldr r0, [pc, #84]    ; (0x5498)
    5442:    f8ac e0d0  strh.w r14, [r12, #208]    ; 0xd0
    5446:    389c       subs r0, #156    ; 0x9c
    5448:    f88b 3039  strb.w r3, [r11, #57]    ; 0x39
    544c:    f850 0029  ldr.w r0, [r0, r9, lsl #2]
    5450:    4410       add r0, r2
    5452:    f500 717c  add.w r1, r0, #1008    ; 0x3f0
    5456:    f000 fc6d  bl 0x5d34
    545a:    f89b 0018  ldrb.w r0, [r11, #24]
    545e:    2800       cmp r0, #0
    5460:    d016       beq.n 0x5490
    5462:    490d       ldr r1, [pc, #52]    ; (0x5498)
    5464:    2400       movs r4, #0
    5466:    eb09 0049  add.w r0, r9, r9, lsl #1
    546a:    3990       subs r1, #144    ; 0x90
    546c:    465e       mov r6, r11
    546e:    eb01 1500  add.w r5, r1, r0, lsl #4
    5472:    7e30       ldrb r0, [r6, #24]
    5474:    eb05 1000  add.w r0, r5, r0, lsl #4
    5478:    f850 0c10  ldr.w r0, [r0, #-16]
    547c:    eb00 3004  add.w r0, r0, r4, lsl #12
    5480:    f7fd f80e  bl 0x24a0                   ; call function_14
    5484:    f7ff f85e  bl 0x4544                   ; call function_12
    5488:    1c64       adds r4, r4, #1
    548a:    0424       lsls r4, r4, #16
    548c:    0c24       lsrs r4, r4, #16
    548e:    d0f0       beq.n 0x5472
    5490:    e8bd 9ff0  ldmia.w r13!, {r4, r5, r6, r7, r8, r9, r10, r11, r12, r15}
    5494:    0058       lsls r0, r3, #1
    5496:    2000       movs r0, #0
    5498:    8de0       ldrh r0, [r4, #46]    ; 0x2e
    549a:    0000       movs r0, r0
    549c:    1cba       adds r2, r7, #2
    549e:    2000       movs r0, #0
    54a0:    091e       lsrs r6, r3, #4
    54a2:    2000       movs r0, #0
    54a4:    e92d 41f0  stmdb r13!, {r4, r5, r6, r7, r8, r14}
    54a8:    4d2b       ldr r5, [pc, #172]    ; (0x5558)
    54aa:    2400       movs r4, #0
    54ac:    2701       movs r7, #1
    54ae:    7b2a       ldrb r2, [r5, #12]
    54b0:    f105 0680  add.w r6, r5, #128    ; 0x80
    54b4:    f44f 707a  mov.w r0, #1000    ; 0x3e8
    54b8:    2a08       cmp r2, #8
    54ba:    d215       bcs.n 0x54e8
    54bc:    e8df f002  tbb [r15, r2]
    54c0:    0414       lsls r4, r2, #16
    54c2:    040a       lsls r2, r1, #16
    54c4:    040a       lsls r2, r1, #16
    54c6:    2716       movs r7, #22
    54c8:    6b71       ldr r1, [r6, #52]    ; 0x34
    54ca:    4281       cmp r1, r0
    54cc:    d90c       bls.n 0x54e8
    54ce:    2100       movs r1, #0
    54d0:    4608       mov r0, r1
    54d2:    e003       b.n 0x54dc
    54d4:    6b72       ldr r2, [r6, #52]    ; 0x34
    54d6:    4282       cmp r2, r0
    54d8:    d906       bls.n 0x54e8
    54da:    4601       mov r1, r0
    54dc:    f7fd f950  bl 0x2780
    54e0:    7b28       ldrb r0, [r5, #12]
    54e2:    1c40       adds r0, r0, #1
    54e4:    7328       strb r0, [r5, #12]
    54e6:    6377       str r7, [r6, #52]    ; 0x34
    54e8:    e8bd 81f0  ldmia.w r13!, {r4, r5, r6, r7, r8, r15}
    54ec:    f105 050c  add.w r5, r5, #12
    54f0:    7ea8       ldrb r0, [r5, #26]
    54f2:    f7ff ff11  bl 0x5318
    54f6:    7ea8       ldrb r0, [r5, #26]
    54f8:    f7fc fbb2  bl 0x1c60
    54fc:    f895 002d  ldrb.w r0, [r5, #45]    ; 0x2d
    5500:    f7fb ff46  bl 0x1390
    5504:    6374       str r4, [r6, #52]    ; 0x34
    5506:    7828       ldrb r0, [r5, #0]
    5508:    1c40       adds r0, r0, #1
    550a:    7028       strb r0, [r5, #0]
    550c:    e7ec       b.n 0x54e8
    550e:    4913       ldr r1, [pc, #76]    ; (0x555c)
    5510:    2000       movs r0, #0
    5512:    180a       adds r2, r1, r0
    5514:    7892       ldrb r2, [r2, #2]
    5516:    2aff       cmp r2, #255    ; 0xff
    5518:    d103       bne.n 0x5522
    551a:    1c40       adds r0, r0, #1
    551c:    b2c0       uxtb r0, r0
    551e:    2809       cmp r0, #9
    5520:    d3f7       bcc.n 0x5512
    5522:    2809       cmp r0, #9
    5524:    d1e0       bne.n 0x54e8
    5526:    2000       movs r0, #0
    5528:    22ff       movs r2, #255    ; 0xff
    552a:    180b       adds r3, r1, r0
    552c:    1c40       adds r0, r0, #1
    552e:    b2c0       uxtb r0, r0
    5530:    751a       strb r2, [r3, #20]
    5532:    2809       cmp r0, #9
    5534:    d3f9       bcc.n 0x552a
    5536:    f000 fbad  bl 0x5c94
    553a:    2801       cmp r0, #1
    553c:    d1d4       bne.n 0x54e8
    553e:    4806       ldr r0, [pc, #24]    ; (0x5558)
    5540:    732c       strb r4, [r5, #12]
    5542:    70ac       strb r4, [r5, #2]
    5544:    30f8       adds r0, #248    ; 0xf8
    5546:    712c       strb r4, [r5, #4]
    5548:    6004       str r4, [r0, #0]
    554a:    6044       str r4, [r0, #4]
    554c:    3008       adds r0, #8
    554e:    6004       str r4, [r0, #0]
    5550:    6044       str r4, [r0, #4]
    5552:    66ac       str r4, [r5, #104]    ; 0x68
    5554:    66ec       str r4, [r5, #108]    ; 0x6c
    5556:    e7c7       b.n 0x54e8
    5558:    0058       lsls r0, r3, #1
    555a:    2000       movs r0, #0
    555c:    2de4       cmp r5, #228    ; 0xe4
    555e:    2000       movs r0, #0
    5560:    e92d 0ff0  stmdb r13!, {r4, r5, r6, r7, r8, r9, r10, r11}
    5564:    f8df 8108  ldr.w r8, [r15, #264]    ; 0x5670
    5568:    4840       ldr r0, [pc, #256]    ; (0x566c)
    556a:    f8df a0fc  ldr.w r10, [r15, #252]    ; 0x5668
    556e:    f898 1018  ldrb.w r1, [r8, #24]
    5572:    f8df 9100  ldr.w r9, [r15, #256]    ; 0x5674
    5576:    2400       movs r4, #0
    5578:    f850 2021  ldr.w r2, [r0, r1, lsl #2]
    557c:    f50a 7b90  add.w r11, r10, #288    ; 0x120
    5580:    eb02 0309  add.w r3, r2, r9
    5584:    2100       movs r1, #0
    5586:    eb0b 1544  add.w r5, r11, r4, lsl #5
    558a:    eb0a 1c44  add.w r12, r10, r4, lsl #5
    558e:    eb01 00c4  add.w r0, r1, r4, lsl #3
    5592:    0080       lsls r0, r0, #2
    5594:    f100 060c  add.w r6, r0, #12
    5598:    f83c 7021  ldrh.w r7, [r12, r1, lsl #2]
    559c:    559f       strb r7, [r3, r6]
    559e:    0a3e       lsrs r6, r7, #8
    55a0:    f100 070d  add.w r7, r0, #13
    55a4:    55de       strb r6, [r3, r7]
    55a6:    eb0c 0681  add.w r6, r12, r1, lsl #2
    55aa:    1c7f       adds r7, r7, #1
    55ac:    8876       ldrh r6, [r6, #2]
    55ae:    55de       strb r6, [r3, r7]
    55b0:    1c7f       adds r7, r7, #1
    55b2:    0a36       lsrs r6, r6, #8
    55b4:    55de       strb r6, [r3, r7]
    55b6:    f200 172d  addw r7, r0, #301    ; 0x12d
    55ba:    f835 6021  ldrh.w r6, [r5, r1, lsl #2]
    55be:    55de       strb r6, [r3, r7]
    55c0:    1c7f       adds r7, r7, #1
    55c2:    0a36       lsrs r6, r6, #8
    55c4:    55de       strb r6, [r3, r7]
    55c6:    eb05 0681  add.w r6, r5, r1, lsl #2
    55ca:    1c7f       adds r7, r7, #1
    55cc:    8876       ldrh r6, [r6, #2]
    55ce:    55de       strb r6, [r3, r7]
    55d0:    0a36       lsrs r6, r6, #8
    55d2:    1c78       adds r0, r7, #1
    55d4:    1c49       adds r1, r1, #1
    55d6:    b2c9       uxtb r1, r1
    55d8:    541e       strb r6, [r3, r0]
    55da:    2908       cmp r1, #8
    55dc:    d3d7       bcc.n 0x558e
    55de:    1c64       adds r4, r4, #1
    55e0:    b2e4       uxtb r4, r4
    55e2:    2c09       cmp r4, #9
    55e4:    d3ce       bcc.n 0x5584
    55e6:    f898 1039  ldrb.w r1, [r8, #57]    ; 0x39
    55ea:    f809 1002  strb.w r1, [r9, r2]
    55ee:    4921       ldr r1, [pc, #132]    ; (0x5674)
    55f0:    f8b8 0048  ldrh.w r0, [r8, #72]    ; 0x48
    55f4:    1cc9       adds r1, r1, #3
    55f6:    5450       strb r0, [r2, r1]
    55f8:    0a01       lsrs r1, r0, #8
    55fa:    481e       ldr r0, [pc, #120]    ; (0x5674)
    55fc:    1d00       adds r0, r0, #4
    55fe:    5411       strb r1, [r2, r0]
    5600:    491c       ldr r1, [pc, #112]    ; (0x5674)
    5602:    f8b8 0046  ldrh.w r0, [r8, #70]    ; 0x46
    5606:    1c49       adds r1, r1, #1
    5608:    5450       strb r0, [r2, r1]
    560a:    0a01       lsrs r1, r0, #8
    560c:    4819       ldr r0, [pc, #100]    ; (0x5674)
    560e:    1c80       adds r0, r0, #2
    5610:    5411       strb r1, [r2, r0]
    5612:    4918       ldr r1, [pc, #96]    ; (0x5674)
    5614:    f8b8 004c  ldrh.w r0, [r8, #76]    ; 0x4c
    5618:    1dc9       adds r1, r1, #7
    561a:    5450       strb r0, [r2, r1]
    561c:    0a01       lsrs r1, r0, #8
    561e:    4815       ldr r0, [pc, #84]    ; (0x5674)
    5620:    3008       adds r0, #8
    5622:    5411       strb r1, [r2, r0]
    5624:    4913       ldr r1, [pc, #76]    ; (0x5674)
    5626:    f8b8 004a  ldrh.w r0, [r8, #74]    ; 0x4a
    562a:    1d49       adds r1, r1, #5
    562c:    5450       strb r0, [r2, r1]
    562e:    0a01       lsrs r1, r0, #8
    5630:    4810       ldr r0, [pc, #64]    ; (0x5674)
    5632:    1d80       adds r0, r0, #6
    5634:    5411       strb r1, [r2, r0]
    5636:    1cc0       adds r0, r0, #3
    5638:    f898 1006  ldrb.w r1, [r8, #6]
    563c:    5411       strb r1, [r2, r0]
    563e:    1c40       adds r0, r0, #1
    5640:    f898 103d  ldrb.w r1, [r8, #61]    ; 0x3d
    5644:    5411       strb r1, [r2, r0]
    5646:    1c40       adds r0, r0, #1
    5648:    f898 103e  ldrb.w r1, [r8, #62]    ; 0x3e
    564c:    5411       strb r1, [r2, r0]
    564e:    4807       ldr r0, [pc, #28]    ; (0x566c)
    5650:    f898 1026  ldrb.w r1, [r8, #38]    ; 0x26
    5654:    389c       subs r0, #156    ; 0x9c
    5656:    f850 0021  ldr.w r0, [r0, r1, lsl #2]
    565a:    e8bd 0ff0  ldmia.w r13!, {r4, r5, r6, r7, r8, r9, r10, r11}
    565e:    4410       add r0, r2
    5660:    f500 717c  add.w r1, r0, #1008    ; 0x3f0
    5664:    f000 bb66  b.w 0x5d34
    5668:    091e       lsrs r6, r3, #4
    566a:    2000       movs r0, #0
    566c:    8de0       ldrh r0, [r4, #46]    ; 0x2e
    566e:    0000       movs r0, r0
    5670:    0058       lsls r0, r3, #1
    5672:    2000       movs r0, #0
    5674:    1cba       adds r2, r7, #2
    5676:    2000       movs r0, #0
    5678:    490f       ldr r1, [pc, #60]    ; (0x56b8)
    567a:    f891 0039  ldrb.w r0, [r1, #57]    ; 0x39
    567e:    2801       cmp r0, #1
    5680:    d119       bne.n 0x56b6
    5682:    f101 0118  add.w r1, r1, #24
    5686:    4a0d       ldr r2, [pc, #52]    ; (0x56bc)
    5688:    8dc8       ldrh r0, [r1, #46]    ; 0x2e
    568a:    7010       strb r0, [r2, #0]
    568c:    ea4f 2010  mov.w r0, r0, lsr #8
    5690:    7050       strb r0, [r2, #1]
    5692:    480b       ldr r0, [pc, #44]    ; (0x56c0)
    5694:    780a       ldrb r2, [r1, #0]
    5696:    7b89       ldrb r1, [r1, #14]
    5698:    f850 2022  ldr.w r2, [r0, r2, lsl #2]
    569c:    f1a0 009c  sub.w r0, r0, #156    ; 0x9c
    56a0:    f850 0021  ldr.w r0, [r0, r1, lsl #2]
    56a4:    4410       add r0, r2
    56a6:    f100 0102  add.w r1, r0, #2
    56aa:    f100 0001  add.w r0, r0, #1
    56ae:    f04f 0200  mov.w r2, #0
    56b2:    f000 bb3f  b.w 0x5d34
    56b6:    4770       bx r14
    56b8:    0058       lsls r0, r3, #1
    56ba:    2000       movs r0, #0
    56bc:    1cba       adds r2, r7, #2
    56be:    2000       movs r0, #0
    56c0:    8de0       ldrh r0, [r4, #46]    ; 0x2e
    56c2:    0000       movs r0, r0
    56c4:    490f       ldr r1, [pc, #60]    ; (0x5704)
    56c6:    f891 0039  ldrb.w r0, [r1, #57]    ; 0x39
    56ca:    2801       cmp r0, #1
    56cc:    d119       bne.n 0x5702
    56ce:    f101 0118  add.w r1, r1, #24
    56d2:    4a0d       ldr r2, [pc, #52]    ; (0x5708)
    56d4:    8e08       ldrh r0, [r1, #48]    ; 0x30
    56d6:    7010       strb r0, [r2, #0]
    56d8:    ea4f 2010  mov.w r0, r0, lsr #8
    56dc:    7050       strb r0, [r2, #1]
    56de:    480b       ldr r0, [pc, #44]    ; (0x570c)
    56e0:    780a       ldrb r2, [r1, #0]
    56e2:    7b89       ldrb r1, [r1, #14]
    56e4:    f850 2022  ldr.w r2, [r0, r2, lsl #2]
    56e8:    f1a0 009c  sub.w r0, r0, #156    ; 0x9c
    56ec:    f850 0021  ldr.w r0, [r0, r1, lsl #2]
    56f0:    4410       add r0, r2
    56f2:    f100 0104  add.w r1, r0, #4
    56f6:    f100 0003  add.w r0, r0, #3
    56fa:    f04f 0200  mov.w r2, #0
    56fe:    f000 bb19  b.w 0x5d34
    5702:    4770       bx r14
    5704:    0058       lsls r0, r3, #1
    5706:    2000       movs r0, #0
    5708:    1cba       adds r2, r7, #2
    570a:    2000       movs r0, #0
    570c:    8de0       ldrh r0, [r4, #46]    ; 0x2e
    570e:    0000       movs r0, r0
    5710:    b510       push {r4, r14}
    5712:    4b09       ldr r3, [pc, #36]    ; (0x5738)
    5714:    4c07       ldr r4, [pc, #28]    ; (0x5734)
    5716:    789a       ldrb r2, [r3, #2]
    5718:    f804 1022  strb.w r1, [r4, r2, lsl #2]
    571c:    eb04 0182  add.w r1, r4, r2, lsl #2
    5720:    7048       strb r0, [r1, #1]
    5722:    6b18       ldr r0, [r3, #48]    ; 0x30
    5724:    2000       movs r0, #0
    5726:    7088       strb r0, [r1, #2]
    5728:    6b18       ldr r0, [r3, #48]    ; 0x30
    572a:    70c8       strb r0, [r1, #3]
    572c:    1c52       adds r2, r2, #1
    572e:    709a       strb r2, [r3, #2]
    5730:    bd10       pop {r4, r15}
    5732:    0000       movs r0, r0
    5734:    080c       lsrs r4, r1, #32
    5736:    2000       movs r0, #0
    5738:    0088       lsls r0, r1, #2
    573a:    2000       movs r0, #0
    573c:    2832       cmp r0, #50    ; 0x32
    573e:    d002       beq.n 0x5746
    5740:    2864       cmp r0, #100    ; 0x64
    5742:    d801       bhi.n 0x5748
    5744:    2032       movs r0, #50    ; 0x32
    5746:    4770       bx r14
    5748:    28c8       cmp r0, #200    ; 0xc8
    574a:    d801       bhi.n 0x5750
    574c:    2064       movs r0, #100    ; 0x64
    574e:    4770       bx r14
    5750:    f44f 7296  mov.w r2, #300    ; 0x12c
    5754:    4290       cmp r0, r2
    5756:    d801       bhi.n 0x575c
    5758:    20c8       movs r0, #200    ; 0xc8
    575a:    4770       bx r14
    575c:    f44f 71fa  mov.w r1, #500    ; 0x1f4
    5760:    4288       cmp r0, r1
    5762:    d801       bhi.n 0x5768
    5764:    4610       mov r0, r2
    5766:    4770       bx r14
    5768:    f44f 722f  mov.w r2, #700    ; 0x2bc
    576c:    4290       cmp r0, r2
    576e:    d801       bhi.n 0x5774
    5770:    4608       mov r0, r1
    5772:    4770       bx r14
    5774:    f5b0 7f7a  cmp.w r0, #1000    ; 0x3e8
    5778:    d9f4       bls.n 0x5764
    577a:    4770       bx r14
    577c:    f44f 727a  mov.w r2, #1000    ; 0x3e8
    5780:    4290       cmp r0, r2
    5782:    d004       beq.n 0x578e
    5784:    f44f 712f  mov.w r1, #700    ; 0x2bc
    5788:    4288       cmp r0, r1
    578a:    d301       bcc.n 0x5790
    578c:    4610       mov r0, r2
    578e:    4770       bx r14
    5790:    f44f 72fa  mov.w r2, #500    ; 0x1f4
    5794:    4290       cmp r0, r2
    5796:    d301       bcc.n 0x579c
    5798:    4608       mov r0, r1
    579a:    4770       bx r14
    579c:    f44f 7196  mov.w r1, #300    ; 0x12c
    57a0:    4288       cmp r0, r1
    57a2:    d2f3       bcs.n 0x578c
    57a4:    28c8       cmp r0, #200    ; 0xc8
    57a6:    d2f7       bcs.n 0x5798
    57a8:    2864       cmp r0, #100    ; 0x64
    57aa:    d301       bcc.n 0x57b0
    57ac:    20c8       movs r0, #200    ; 0xc8
    57ae:    4770       bx r14
    57b0:    2832       cmp r0, #50    ; 0x32
    57b2:    d301       bcc.n 0x57b8
    57b4:    2064       movs r0, #100    ; 0x64
    57b6:    4770       bx r14
    57b8:    2000       movs r0, #0
    57ba:    4770       bx r14
    57bc:    e92d 5ff0  stmdb r13!, {r4, r5, r6, r7, r8, r9, r10, r11, r12, r14}
    57c0:    f8df 81b0  ldr.w r8, [r15, #432]    ; 0x5974
    57c4:    f04f 0a00  mov.w r10, #0
    57c8:    f898 0029  ldrb.w r0, [r8, #41]    ; 0x29
    57cc:    bb30       cbnz r0, 0x581c
    57ce:    f000 fa75  bl 0x5cbc
    57d2:    2801       cmp r0, #1
    57d4:    d122       bne.n 0x581c
    57d6:    2000       movs r0, #0
    57d8:    f7fb fdda  bl 0x1390
    57dc:    f7ff f9d0  bl 0x4b80                   ; call function_16
    57e0:    f108 0129  add.w r1, r8, #41    ; 0x29
    57e4:    4a64       ldr r2, [pc, #400]    ; (0x5978)
    57e6:    7d08       ldrb r0, [r1, #20]
    57e8:    f44f 73e1  mov.w r3, #450    ; 0x1c2
    57ec:    ea4f 04d0  mov.w r4, r0, lsr #3
    57f0:    eb02 1404  add.w r4, r2, r4, lsl #4
    57f4:    f000 0007  and.w r0, r0, #7
    57f8:    f824 3010  strh.w r3, [r4, r0, lsl #1]
    57fc:    7d48       ldrb r0, [r1, #21]
    57fe:    ea4f 04d0  mov.w r4, r0, lsr #3
    5802:    eb02 1404  add.w r4, r2, r4, lsl #4
    5806:    f000 0007  and.w r0, r0, #7
    580a:    f824 3010  strh.w r3, [r4, r0, lsl #1]
    580e:    f8a2 a020  strh.w r10, [r2, #32]
    5812:    7808       ldrb r0, [r1, #0]
    5814:    f100 0001  add.w r0, r0, #1
    5818:    f888 0029  strb.w r0, [r8, #41]    ; 0x29
    581c:    2600       movs r6, #0
    581e:    4857       ldr r0, [pc, #348]    ; (0x597c)
    5820:    4430       add r0, r6
    5822:    4681       mov r9, r0
    5824:    7885       ldrb r5, [r0, #2]
    5826:    7d07       ldrb r7, [r0, #20]
    5828:    406f       eors r7, r5
    582a:    2400       movs r4, #0
    582c:    07f8       lsls r0, r7, #31
    582e:    d049       beq.n 0x58c4
    5830:    07e8       lsls r0, r5, #31
    5832:    d007       beq.n 0x5844
    5834:    2e08       cmp r6, #8
    5836:    d105       bne.n 0x5844
    5838:    b924       cbnz r4, 0x5844
    583a:    2114       movs r1, #20
    583c:    f888 1029  strb.w r1, [r8, #41]    ; 0x29
    5840:    f888 a020  strb.w r10, [r8, #32]
    5844:    f899 0014  ldrb.w r0, [r9, #20]
    5848:    2101       movs r1, #1
    584a:    40a1       lsls r1, r4
    584c:    4048       eors r0, r1
    584e:    f889 0014  strb.w r0, [r9, #20]
    5852:    f898 0029  ldrb.w r0, [r8, #41]    ; 0x29
    5856:    2803       cmp r0, #3
    5858:    d03b       beq.n 0x58d2
    585a:    dc04       bgt.n 0x5866
    585c:    2801       cmp r0, #1
    585e:    d007       beq.n 0x5870
    5860:    2802       cmp r0, #2
    5862:    d179       bne.n 0x5958
    5864:    e02f       b.n 0x58c6
    5866:    280b       cmp r0, #11
    5868:    d050       beq.n 0x590c
    586a:    280c       cmp r0, #12
    586c:    d174       bne.n 0x5958
    586e:    e055       b.n 0x591c
    5870:    07e8       lsls r0, r5, #31
    5872:    d171       bne.n 0x5958
    5874:    f898 103d  ldrb.w r1, [r8, #61]    ; 0x3d
    5878:    eb04 0bc6  add.w r11, r4, r6, lsl #3
    587c:    458b       cmp r11, r1
    587e:    d10e       bne.n 0x589e
    5880:    f7ff fca2  bl 0x51c8
    5884:    2102       movs r1, #2
    5886:    f888 1029  strb.w r1, [r8, #41]    ; 0x29
    588a:    f898 003e  ldrb.w r0, [r8, #62]    ; 0x3e
    588e:    4a3a       ldr r2, [pc, #232]    ; (0x5978)
    5890:    08c3       lsrs r3, r0, #3
    5892:    eb02 1203  add.w r2, r2, r3, lsl #4
    5896:    f000 0007  and.w r0, r0, #7
    589a:    f822 a010  strh.w r10, [r2, r0, lsl #1]
    589e:    f898 103e  ldrb.w r1, [r8, #62]    ; 0x3e
    58a2:    458b       cmp r11, r1
    58a4:    d158       bne.n 0x5958
    58a6:    f7ff fc8f  bl 0x51c8
    58aa:    210b       movs r1, #11
    58ac:    f888 1029  strb.w r1, [r8, #41]    ; 0x29
    58b0:    f898 003e  ldrb.w r0, [r8, #62]    ; 0x3e
    58b4:    4a30       ldr r2, [pc, #192]    ; (0x5978)
    58b6:    08c3       lsrs r3, r0, #3
    58b8:    eb02 1203  add.w r2, r2, r3, lsl #4
    58bc:    f000 0007  and.w r0, r0, #7
    58c0:    f822 a010  strh.w r10, [r2, r0, lsl #1]
    58c4:    e048       b.n 0x5958
    58c6:    f000 f9f9  bl 0x5cbc
    58ca:    2801       cmp r0, #1
    58cc:    d144       bne.n 0x5958
    58ce:    2103       movs r1, #3
    58d0:    e021       b.n 0x5916
    58d2:    07e8       lsls r0, r5, #31
    58d4:    d140       bne.n 0x5958
    58d6:    eb04 00c6  add.w r0, r4, r6, lsl #3
    58da:    b2c0       uxtb r0, r0
    58dc:    283e       cmp r0, #62    ; 0x3e
    58de:    d03b       beq.n 0x5958
    58e0:    2847       cmp r0, #71    ; 0x47
    58e2:    d039       beq.n 0x5958
    58e4:    2810       cmp r0, #16
    58e6:    d037       beq.n 0x5958
    58e8:    f898 203e  ldrb.w r2, [r8, #62]    ; 0x3e
    58ec:    4641       mov r1, r8
    58ee:    4290       cmp r0, r2
    58f0:    d032       beq.n 0x5958
    58f2:    2846       cmp r0, #70    ; 0x46
    58f4:    d030       beq.n 0x5958
    58f6:    2842       cmp r0, #66    ; 0x42
    58f8:    d02e       beq.n 0x5958
    58fa:    2841       cmp r0, #65    ; 0x41
    58fc:    d02c       beq.n 0x5958
    58fe:    2840       cmp r0, #64    ; 0x40
    5900:    d02a       beq.n 0x5958
    5902:    f881 a029  strb.w r10, [r1, #41]    ; 0x29
    5906:    f888 003d  strb.w r0, [r8, #61]    ; 0x3d
    590a:    e023       b.n 0x5954
    590c:    f000 f9d6  bl 0x5cbc
    5910:    2801       cmp r0, #1
    5912:    d121       bne.n 0x5958
    5914:    210c       movs r1, #12
    5916:    f888 1029  strb.w r1, [r8, #41]    ; 0x29
    591a:    e01d       b.n 0x5958
    591c:    07e8       lsls r0, r5, #31
    591e:    d11b       bne.n 0x5958
    5920:    eb04 00c6  add.w r0, r4, r6, lsl #3
    5924:    b2c0       uxtb r0, r0
    5926:    283e       cmp r0, #62    ; 0x3e
    5928:    d016       beq.n 0x5958
    592a:    2847       cmp r0, #71    ; 0x47
    592c:    d014       beq.n 0x5958
    592e:    2810       cmp r0, #16
    5930:    d012       beq.n 0x5958
    5932:    f898 203d  ldrb.w r2, [r8, #61]    ; 0x3d
    5936:    4641       mov r1, r8
    5938:    4290       cmp r0, r2
    593a:    d00d       beq.n 0x5958
    593c:    2846       cmp r0, #70    ; 0x46
    593e:    d00b       beq.n 0x5958
    5940:    2842       cmp r0, #66    ; 0x42
    5942:    d009       beq.n 0x5958
    5944:    2841       cmp r0, #65    ; 0x41
    5946:    d007       beq.n 0x5958
    5948:    2840       cmp r0, #64    ; 0x40
    594a:    d005       beq.n 0x5958
    594c:    f881 a029  strb.w r10, [r1, #41]    ; 0x29
    5950:    f888 003e  strb.w r0, [r8, #62]    ; 0x3e
    5954:    f7ff fe04  bl 0x5560
    5958:    1c64       adds r4, r4, #1
    595a:    087f       lsrs r7, r7, #1
    595c:    086d       lsrs r5, r5, #1
    595e:    b2e4       uxtb r4, r4
    5960:    2c08       cmp r4, #8
    5962:    f4ff af63  bcc.w 0x582c
    5966:    1c76       adds r6, r6, #1
    5968:    b2f6       uxtb r6, r6
    596a:    2e09       cmp r6, #9
    596c:    f4ff af57  bcc.w 0x581e
    5970:    e8bd 9ff0  ldmia.w r13!, {r4, r5, r6, r7, r8, r9, r10, r11, r12, r15}
    5974:    0058       lsls r0, r3, #1
    5976:    2000       movs r0, #0
    5978:    2e2c       cmp r6, #44    ; 0x2c
    597a:    2000       movs r0, #0
    597c:    2de4       cmp r5, #228    ; 0xe4
    597e:    2000       movs r0, #0
    5980:    e92d 41f0  stmdb r13!, {r4, r5, r6, r7, r8, r14}
    5984:    4e5f       ldr r6, [pc, #380]    ; (0x5b04)
    5986:    f896 0030  ldrb.w r0, [r6, #48]    ; 0x30
    598a:    bbf0       cbnz r0, 0x5a0a
    598c:    7a71       ldrb r1, [r6, #9]
    598e:    485e       ldr r0, [pc, #376]    ; (0x5b08)
    5990:    f44f 7e7a  mov.w r14, #1000    ; 0x3e8
    5994:    2200       movs r2, #0
    5996:    b179       cbz r1, 0x59b8
    5998:    7a71       ldrb r1, [r6, #9]
    599a:    2901       cmp r1, #1
    599c:    d00c       beq.n 0x59b8
    599e:    f8a0 2052  strh.w r2, [r0, #82]    ; 0x52
    59a2:    4958       ldr r1, [pc, #352]    ; (0x5b04)
    59a4:    7974       ldrb r4, [r6, #5]
    59a6:    7fcb       ldrb r3, [r1, #31]
    59a8:    f44f 71e1  mov.w r1, #450    ; 0x1c2
    59ac:    b114       cbz r4, 0x59b4
    59ae:    f896 4029  ldrb.w r4, [r6, #41]    ; 0x29
    59b2:    b18c       cbz r4, 0x59d8
    59b4:    b19b       cbz r3, 0x59de
    59b6:    e013       b.n 0x59e0
    59b8:    f8b6 1052  ldrh.w r1, [r6, #82]    ; 0x52
    59bc:    f44f 73e1  mov.w r3, #450    ; 0x1c2
    59c0:    ebc1 4101  rsb r1, r1, r1, lsl #16
    59c4:    fbb1 f1fe  udiv r1, r1, r14
    59c8:    4359       muls r1, r3
    59ca:    f64f 73ff  movw r3, #65535    ; 0xffff
    59ce:    fbb1 f1f3  udiv r1, r1, r3
    59d2:    f8a0 1052  strh.w r1, [r0, #82]    ; 0x52
    59d6:    e7e4       b.n 0x59a2
    59d8:    b913       cbnz r3, 0x59e0
    59da:    8401       strh r1, [r0, #32]
    59dc:    e000       b.n 0x59e0
    59de:    8402       strh r2, [r0, #32]
    59e0:    f8df c120  ldr.w r12, [r15, #288]    ; 0x5b04
    59e4:    f10c 0c80  add.w r12, r12, #128    ; 0x80
    59e8:    f8dc 5034  ldr.w r5, [r12, #52]    ; 0x34
    59ec:    4b47       ldr r3, [pc, #284]    ; (0x5b0c)
    59ee:    f44f 64fa  mov.w r4, #2000    ; 0x7d0
    59f2:    b15d       cbz r5, 0x5a0c
    59f4:    f8dc 5034  ldr.w r5, [r12, #52]    ; 0x34
    59f8:    fbb5 f7f4  udiv r7, r5, r4
    59fc:    fb04 5517  mls r5, r4, r7, r5
    5a00:    4575       cmp r5, r14
    5a02:    d215       bcs.n 0x5a30
    5a04:    f8a0 1072  strh.w r1, [r0, #114]    ; 0x72
    5a08:    e014       b.n 0x5a34
    5a0a:    e01e       b.n 0x5a4a
    5a0c:    f8a0 2072  strh.w r2, [r0, #114]    ; 0x72
    5a10:    f8a3 2072  strh.w r2, [r3, #114]    ; 0x72
    5a14:    7e35       ldrb r5, [r6, #24]
    5a16:    2d01       cmp r5, #1
    5a18:    d0f4       beq.n 0x5a04
    5a1a:    2d02       cmp r5, #2
    5a1c:    d002       beq.n 0x5a24
    5a1e:    2d03       cmp r5, #3
    5a20:    d003       beq.n 0x5a2a
    5a22:    e007       b.n 0x5a34
    5a24:    f8a3 1072  strh.w r1, [r3, #114]    ; 0x72
    5a28:    e004       b.n 0x5a34
    5a2a:    f8a0 1072  strh.w r1, [r0, #114]    ; 0x72
    5a2e:    e7f9       b.n 0x5a24
    5a30:    f8a0 2072  strh.w r2, [r0, #114]    ; 0x72
    5a34:    7db5       ldrb r5, [r6, #22]
    5a36:    2d01       cmp r5, #1
    5a38:    d013       beq.n 0x5a62
    5a3a:    f896 4025  ldrb.w r4, [r6, #37]    ; 0x25
    5a3e:    2c01       cmp r4, #1
    5a40:    d02f       beq.n 0x5aa2
    5a42:    f8a0 2084  strh.w r2, [r0, #132]    ; 0x84
    5a46:    f8a3 2084  strh.w r2, [r3, #132]    ; 0x84
    5a4a:    2290       movs r2, #144    ; 0x90
    5a4c:    492e       ldr r1, [pc, #184]    ; (0x5b08)
    5a4e:    4830       ldr r0, [pc, #192]    ; (0x5b10)
    5a50:    f7fa fbb2  bl 0x1b8
    5a54:    e8bd 41f0  ldmia.w r13!, {r4, r5, r6, r7, r8, r14}
    5a58:    2290       movs r2, #144    ; 0x90
    5a5a:    492c       ldr r1, [pc, #176]    ; (0x5b0c)
    5a5c:    482d       ldr r0, [pc, #180]    ; (0x5b14)
    5a5e:    f7fa bbab  b.w 0x1b8
    5a62:    f886 2025  strb.w r2, [r6, #37]    ; 0x25
    5a66:    f8a0 2084  strh.w r2, [r0, #132]    ; 0x84
    5a6a:    f8a3 2084  strh.w r2, [r3, #132]    ; 0x84
    5a6e:    7832       ldrb r2, [r6, #0]
    5a70:    2a02       cmp r2, #2
    5a72:    d313       bcc.n 0x5a9c
    5a74:    7832       ldrb r2, [r6, #0]
    5a76:    2a02       cmp r2, #2
    5a78:    d010       beq.n 0x5a9c
    5a7a:    7832       ldrb r2, [r6, #0]
    5a7c:    2a04       cmp r2, #4
    5a7e:    d1e4       bne.n 0x5a4a
    5a80:    f8dc 2024  ldr.w r2, [r12, #36]    ; 0x24
    5a84:    4572       cmp r2, r14
    5a86:    d901       bls.n 0x5a8c
    5a88:    f8a0 1084  strh.w r1, [r0, #132]    ; 0x84
    5a8c:    f8dc 0024  ldr.w r0, [r12, #36]    ; 0x24
    5a90:    42a0       cmp r0, r4
    5a92:    d9da       bls.n 0x5a4a
    5a94:    2001       movs r0, #1
    5a96:    f8cc 0024  str.w r0, [r12, #36]    ; 0x24
    5a9a:    e7d6       b.n 0x5a4a
    5a9c:    f8a0 1084  strh.w r1, [r0, #132]    ; 0x84
    5aa0:    e7d3       b.n 0x5a4a
    5aa2:    f8dc 4024  ldr.w r4, [r12, #36]    ; 0x24
    5aa6:    f024 447f  bic.w r4, r4, #4278190080    ; 0xff000000
    5aaa:    f5b4 7fc8  cmp.w r4, #400    ; 0x190
    5aae:    d204       bcs.n 0x5aba
    5ab0:    f8a0 1084  strh.w r1, [r0, #132]    ; 0x84
    5ab4:    f8a3 1084  strh.w r1, [r3, #132]    ; 0x84
    5ab8:    e7c7       b.n 0x5a4a
    5aba:    f8a0 2084  strh.w r2, [r0, #132]    ; 0x84
    5abe:    f8a3 2084  strh.w r2, [r3, #132]    ; 0x84
    5ac2:    f8dc 0024  ldr.w r0, [r12, #36]    ; 0x24
    5ac6:    f020 407f  bic.w r0, r0, #4278190080    ; 0xff000000
    5aca:    f5b0 7f48  cmp.w r0, #800    ; 0x320
    5ace:    d9bc       bls.n 0x5a4a
    5ad0:    f8dc 0024  ldr.w r0, [r12, #36]    ; 0x24
    5ad4:    f000 4070  and.w r0, r0, #4026531840    ; 0xf0000000
    5ad8:    f8cc 0024  str.w r0, [r12, #36]    ; 0x24
    5adc:    f8dc 0024  ldr.w r0, [r12, #36]    ; 0x24
    5ae0:    f100 5080  add.w r0, r0, #268435456    ; 0x10000000
    5ae4:    1c40       adds r0, r0, #1
    5ae6:    f8cc 0024  str.w r0, [r12, #36]    ; 0x24
    5aea:    f8dc 0024  ldr.w r0, [r12, #36]    ; 0x24
    5aee:    f000 4070  and.w r0, r0, #4026531840    ; 0xf0000000
    5af2:    f1b0 4f80  cmp.w r0, #1073741824    ; 0x40000000
    5af6:    d9a8       bls.n 0x5a4a
    5af8:    f8cc 2024  str.w r2, [r12, #36]    ; 0x24
    5afc:    f886 2025  strb.w r2, [r6, #37]    ; 0x25
    5b00:    e7a3       b.n 0x5a4a
    5b02:    0000       movs r0, r0
    5b04:    0058       lsls r0, r3, #1
    5b06:    2000       movs r0, #0
    5b08:    2e2c       cmp r6, #44    ; 0x2c
    5b0a:    2000       movs r0, #0
    5b0c:    2ebc       cmp r6, #188    ; 0xbc
    5b0e:    2000       movs r0, #0
    5b10:    2cc4       cmp r4, #196    ; 0xc4
    5b12:    2000       movs r0, #0
    5b14:    2d54       cmp r5, #84    ; 0x54
    5b16:    2000       movs r0, #0
    5b18:    b510       push {r4, r14}
    5b1a:    eb02 02c1  add.w r2, r2, r1, lsl #3
    5b1e:    4b19       ldr r3, [pc, #100]    ; (0x5b84)
    5b20:    2a10       cmp r2, #16
    5b22:    d00c       beq.n 0x5b3e
    5b24:    f893 102c  ldrb.w r1, [r3, #44]    ; 0x2c
    5b28:    2901       cmp r1, #1
    5b2a:    d107       bne.n 0x5b3c
    5b2c:    4b16       ldr r3, [pc, #88]    ; (0x5b88)
    5b2e:    2100       movs r1, #0
    5b30:    5c5c       ldrb r4, [r3, r1]
    5b32:    42a2       cmp r2, r4
    5b34:    d120       bne.n 0x5b78
    5b36:    4814       ldr r0, [pc, #80]    ; (0x5b88)
    5b38:    1d00       adds r0, r0, #4
    5b3a:    5c40       ldrb r0, [r0, r1]
    5b3c:    bd10       pop {r4, r15}
    5b3e:    f893 1021  ldrb.w r1, [r3, #33]    ; 0x21
    5b42:    2901       cmp r1, #1
    5b44:    d00b       beq.n 0x5b5e
    5b46:    f893 1024  ldrb.w r1, [r3, #36]    ; 0x24
    5b4a:    29ff       cmp r1, #255    ; 0xff
    5b4c:    d00c       beq.n 0x5b68
    5b4e:    7e1a       ldrb r2, [r3, #24]
    5b50:    b152       cbz r2, 0x5b68
    5b52:    2912       cmp r1, #18
    5b54:    d0f2       beq.n 0x5b3c
    5b56:    2913       cmp r1, #19
    5b58:    d0f0       beq.n 0x5b3c
    5b5a:    2000       movs r0, #0
    5b5c:    bd10       pop {r4, r15}
    5b5e:    2000       movs r0, #0
    5b60:    f883 0021  strb.w r0, [r3, #33]    ; 0x21
    5b64:    20e8       movs r0, #232    ; 0xe8
    5b66:    bd10       pop {r4, r15}
    5b68:    f893 0026  ldrb.w r0, [r3, #38]    ; 0x26
    5b6c:    2802       cmp r0, #2
    5b6e:    d001       beq.n 0x5b74
    5b70:    2039       movs r0, #57    ; 0x39
    5b72:    bd10       pop {r4, r15}
    5b74:    202a       movs r0, #42    ; 0x2a
    5b76:    bd10       pop {r4, r15}
    5b78:    1c49       adds r1, r1, #1
    5b7a:    b2c9       uxtb r1, r1
    5b7c:    2904       cmp r1, #4
    5b7e:    d3d7       bcc.n 0x5b30
    5b80:    bd10       pop {r4, r15}
    5b82:    0000       movs r0, r0
    5b84:    0058       lsls r0, r3, #1
    5b86:    2000       movs r0, #0
    5b88:    8b70       ldrh r0, [r6, #26]
    5b8a:    0000       movs r0, r0
    5b8c:    b510       push {r4, r14}
    5b8e:    eb02 02c1  add.w r2, r2, r1, lsl #3
    5b92:    4b18       ldr r3, [pc, #96]    ; (0x5bf4)
    5b94:    2a10       cmp r2, #16
    5b96:    d00c       beq.n 0x5bb2
    5b98:    f893 102c  ldrb.w r1, [r3, #44]    ; 0x2c
    5b9c:    2901       cmp r1, #1
    5b9e:    d107       bne.n 0x5bb0
    5ba0:    4b15       ldr r3, [pc, #84]    ; (0x5bf8)
    5ba2:    2100       movs r1, #0
    5ba4:    5c5c       ldrb r4, [r3, r1]
    5ba6:    42a2       cmp r2, r4
    5ba8:    d11f       bne.n 0x5bea
    5baa:    4813       ldr r0, [pc, #76]    ; (0x5bf8)
    5bac:    1d00       adds r0, r0, #4
    5bae:    5c40       ldrb r0, [r0, r1]
    5bb0:    bd10       pop {r4, r15}
    5bb2:    7fd9       ldrb r1, [r3, #31]
    5bb4:    2901       cmp r1, #1
    5bb6:    d00b       beq.n 0x5bd0
    5bb8:    f893 1024  ldrb.w r1, [r3, #36]    ; 0x24
    5bbc:    29ff       cmp r1, #255    ; 0xff
    5bbe:    d00c       beq.n 0x5bda
    5bc0:    7e1a       ldrb r2, [r3, #24]
    5bc2:    b152       cbz r2, 0x5bda
    5bc4:    2912       cmp r1, #18
    5bc6:    d0f3       beq.n 0x5bb0
    5bc8:    2913       cmp r1, #19
    5bca:    d0f1       beq.n 0x5bb0
    5bcc:    2000       movs r0, #0
    5bce:    bd10       pop {r4, r15}
    5bd0:    2001       movs r0, #1
    5bd2:    f883 0021  strb.w r0, [r3, #33]    ; 0x21
    5bd6:    20e8       movs r0, #232    ; 0xe8
    5bd8:    bd10       pop {r4, r15}
    5bda:    f893 0026  ldrb.w r0, [r3, #38]    ; 0x26
    5bde:    2802       cmp r0, #2
    5be0:    d001       beq.n 0x5be6
    5be2:    2039       movs r0, #57    ; 0x39
    5be4:    bd10       pop {r4, r15}
    5be6:    202a       movs r0, #42    ; 0x2a
    5be8:    bd10       pop {r4, r15}
    5bea:    1c49       adds r1, r1, #1
    5bec:    b2c9       uxtb r1, r1
    5bee:    2904       cmp r1, #4
    5bf0:    d3d8       bcc.n 0x5ba4
    5bf2:    bd10       pop {r4, r15}
    5bf4:    0058       lsls r0, r3, #1
    5bf6:    2000       movs r0, #0
    5bf8:    8b70       ldrh r0, [r6, #26]
    5bfa:    0000       movs r0, r0
    5bfc:    e92d 41f0  stmdb r13!, {r4, r5, r6, r7, r8, r14}
    5c00:    4d21       ldr r5, [pc, #132]    ; (0x5c88)
    5c02:    2001       movs r0, #1
    5c04:    4e21       ldr r6, [pc, #132]    ; (0x5c8c)
    5c06:    f895 1030  ldrb.w r1, [r5, #48]    ; 0x30
    5c0a:    4f21       ldr r7, [pc, #132]    ; (0x5c90)
    5c0c:    1e89       subs r1, r1, #2
    5c0e:    f44f 747a  mov.w r4, #1000    ; 0x3e8
    5c12:    f64f 78ff  movw r8, #65535    ; 0xffff
    5c16:    2905       cmp r1, #5
    5c18:    d224       bcs.n 0x5c64
    5c1a:    e8df f001  tbb [r15, r1]
    5c1e:    0503       lsls r3, r0, #20
    5c20:    250b       movs r5, #11
    5c22:    002b       movs r3, r5
    5c24:    2164       movs r1, #100    ; 0x64
    5c26:    e001       b.n 0x5c2c
    5c28:    f44f 71fa  mov.w r1, #500    ; 0x1f4
    5c2c:    f105 0538  add.w r5, r5, #56    ; 0x38
    5c30:    8229       strh r1, [r5, #16]
    5c32:    e002       b.n 0x5c3a
    5c34:    f105 0538  add.w r5, r5, #56    ; 0x38
    5c38:    822c       strh r4, [r5, #16]
    5c3a:    7068       strb r0, [r5, #1]
    5c3c:    f04f 0001  mov.w r0, #1
    5c40:    f7fb fba6  bl 0x1390
    5c44:    8a28       ldrh r0, [r5, #16]
    5c46:    f44f 71e1  mov.w r1, #450    ; 0x1c2
    5c4a:    ebc0 4000  rsb r0, r0, r0, lsl #16
    5c4e:    fbb0 f0f4  udiv r0, r0, r4
    5c52:    4348       muls r0, r1
    5c54:    fbb0 f0f8  udiv r0, r0, r8
    5c58:    f826 0f72  strh.w r0, [r6, #114]!
    5c5c:    f827 0f72  strh.w r0, [r7, #114]!
    5c60:    8270       strh r0, [r6, #18]
    5c62:    8278       strh r0, [r7, #18]
    5c64:    e8bd 81f0  ldmia.w r13!, {r4, r5, r6, r7, r8, r15}
    5c68:    f105 0538  add.w r5, r5, #56    ; 0x38
    5c6c:    f04f 0005  mov.w r0, #5
    5c70:    822c       strh r4, [r5, #16]
    5c72:    e004       b.n 0x5c7e
    5c74:    f105 0538  add.w r5, r5, #56    ; 0x38
    5c78:    f04f 0006  mov.w r0, #6
    5c7c:    822c       strh r4, [r5, #16]
    5c7e:    7068       strb r0, [r5, #1]
    5c80:    e8bd 41f0  ldmia.w r13!, {r4, r5, r6, r7, r8, r14}
    5c84:    f7fb bb84  b.w 0x1390
    5c88:    0058       lsls r0, r3, #1
    5c8a:    2000       movs r0, #0
    5c8c:    2e2c       cmp r6, #44    ; 0x2c
    5c8e:    2000       movs r0, #0
    5c90:    2ebc       cmp r6, #188    ; 0xbc
    5c92:    2000       movs r0, #0
    5c94:    b500       push {r14}
    5c96:    4908       ldr r1, [pc, #32]    ; (0x5cb8)
    5c98:    2000       movs r0, #0
    5c9a:    180a       adds r2, r1, r0
    5c9c:    7d12       ldrb r2, [r2, #20]
    5c9e:    2aff       cmp r2, #255    ; 0xff
    5ca0:    d001       beq.n 0x5ca6
    5ca2:    2000       movs r0, #0
    5ca4:    bd00       pop {r15}
    5ca6:    1c40       adds r0, r0, #1
    5ca8:    b2c0       uxtb r0, r0
    5caa:    2809       cmp r0, #9
    5cac:    d3f5       bcc.n 0x5c9a
    5cae:    f7fe ff67  bl 0x4b80                   ; call function_16
    5cb2:    2001       movs r0, #1
    5cb4:    bd00       pop {r15}
    5cb6:    0000       movs r0, r0
    5cb8:    2de4       cmp r5, #228    ; 0xe4
    5cba:    2000       movs r0, #0
    5cbc:    4a0a       ldr r2, [pc, #40]    ; (0x5ce8)
    5cbe:    2000       movs r0, #0
    5cc0:    21b8       movs r1, #184    ; 0xb8
    5cc2:    7a93       ldrb r3, [r2, #10]
    5cc4:    4399       bics r1, r3
    5cc6:    e001       b.n 0x5ccc
    5cc8:    2808       cmp r0, #8
    5cca:    d005       beq.n 0x5cd8
    5ccc:    1813       adds r3, r2, r0
    5cce:    789b       ldrb r3, [r3, #2]
    5cd0:    2bff       cmp r3, #255    ; 0xff
    5cd2:    d003       beq.n 0x5cdc
    5cd4:    2000       movs r0, #0
    5cd6:    4770       bx r14
    5cd8:    2900       cmp r1, #0
    5cda:    d1fb       bne.n 0x5cd4
    5cdc:    1c40       adds r0, r0, #1
    5cde:    b2c0       uxtb r0, r0
    5ce0:    2809       cmp r0, #9
    5ce2:    d3f1       bcc.n 0x5cc8
    5ce4:    2001       movs r0, #1
    5ce6:    4770       bx r14
    5ce8:    2de4       cmp r5, #228    ; 0xe4
    5cea:    2000       movs r0, #0
    5cec:    4910       ldr r1, [pc, #64]    ; (0x5d30)
    5cee:    b510       push {r4, r14}
    5cf0:    f891 203e  ldrb.w r2, [r1, #62]    ; 0x3e
    5cf4:    2000       movs r0, #0
    5cf6:    4c0d       ldr r4, [pc, #52]    ; (0x5d2c)
    5cf8:    2301       movs r3, #1
    5cfa:    f002 0107  and.w r1, r2, #7
    5cfe:    408b       lsls r3, r1
    5d00:    1821       adds r1, r4, r0
    5d02:    2808       cmp r0, #8
    5d04:    7889       ldrb r1, [r1, #2]
    5d06:    d101       bne.n 0x5d0c
    5d08:    f041 0147  orr.w r1, r1, #71    ; 0x47
    5d0c:    ebb0 0fd2  cmp.w r0, r2, lsr #3
    5d10:    d101       bne.n 0x5d16
    5d12:    4319       orrs r1, r3
    5d14:    b2c9       uxtb r1, r1
    5d16:    29ff       cmp r1, #255    ; 0xff
    5d18:    d001       beq.n 0x5d1e
    5d1a:    2000       movs r0, #0
    5d1c:    bd10       pop {r4, r15}
    5d1e:    1c40       adds r0, r0, #1
    5d20:    b2c0       uxtb r0, r0
    5d22:    2809       cmp r0, #9
    5d24:    d3ec       bcc.n 0x5d00
    5d26:    2001       movs r0, #1
    5d28:    bd10       pop {r4, r15}
    5d2a:    0000       movs r0, r0
    5d2c:    2de4       cmp r5, #228    ; 0xe4
    5d2e:    2000       movs r0, #0
    5d30:    0058       lsls r0, r3, #1
    5d32:    2000       movs r0, #0

function_11:
  0x5d34:    e92d 47f0  stmdb r13!, {r4, r5, r6, r7, r8, r9, r10, r14}
    5d38:    1a0c       subs r4, r1, r0
    5d3a:    4607       mov r7, r0
    5d3c:    4616       mov r6, r2
    5d3e:    1c64       adds r4, r4, #1
    5d40:    f7fe fc00  bl 0x4544                   ; call function_12
    5d44:    f3c7 050b  ubfx r5, r7, #0, #12
    5d48:    1b78       subs r0, r7, r5
    5d4a:    4680       mov r8, r0
    5d4c:    f44f 5980  mov.w r9, #4096             ; 0x1000
    5d50:    4601       mov r1, r0
    5d52:    464a       mov r2, r9
    5d54:    480f       ldr r0, [pc, #60]           ; (0x5d94)
    5d56:    f7fc fb37  bl 0x23c8                   ; call function_13
    5d5a:    f7fe fbf3  bl 0x4544                   ; call function_12
    5d5e:    4640       mov r0, r8
    5d60:    f7fc fb9e  bl 0x24a0                   ; call function_14
    5d64:    f7fe fbee  bl 0x4544                   ; call function_12
    5d68:    490a       ldr r1, [pc, #40]           ; (0x5d94)
    5d6a:    2000       movs r0, #0
    5d6c:    f501 5280  add.w r2, r1, #4096         ; 0x1000

; loop
    5d70:    e004       b.n 0x5d7c                  ; loop start
  0x5d72:    1983       adds r3, r0, r6
    5d74:    182f       adds r7, r5, r0
    5d76:    5cd3       ldrb r3, [r2, r3]
    5d78:    55cb       strb r3, [r1, r7]
    5d7a:    1c40       adds r0, r0, #1
  0x5d7c:    42a0       cmp r0, r4
    5d7e:    d3f8       bcc.n 0x5d72                ; loop condition
; loop end

    5d80:    464a       mov r2, r9
    5d82:    4641       mov r1, r8
    5d84:    4803       ldr r0, [pc, #12]    ; (0x5d94)
    5d86:    f7fc fbb3  bl 0x24f0                   ; call function_15
    5d8a:    e8bd 47f0  ldmia.w r13!, {r4, r5, r6, r7, r8, r9, r10, r14}
    5d8e:    f7fe bbd9  b.w 0x4544                  ; branch to function_12

    5d92:    0000       movs r0, r0
    5d94:    0cba       lsrs r2, r7, #18
    5d96:    2000       movs r0, #0
    5d98:    0105       lsls r5, r0, #4
    5d9a:    0609       lsls r1, r1, #24
    5d9c:    01a1       lsls r1, r4, #6
    5d9e:    0705       lsls r5, r0, #28
    5da0:    e019       b.n 0x5dd6
    5da2:    e729       b.n 0x5bf8
    5da4:    0015       movs r5, r2
    5da6:    0125       lsls r5, r4, #4
    5da8:    0175       lsls r5, r6, #5
    5daa:    0895       lsrs r5, r2, #2
    5dac:    0281       lsls r1, r0, #10
    5dae:    0195       lsls r5, r2, #6
    5db0:    0875       lsrs r5, r6, #1
    5db2:    0381       lsls r1, r0, #14
    5db4:    0395       lsls r5, r2, #14
    5db6:    0175       lsls r5, r6, #5
    5db8:    0805       lsrs r5, r0, #32
    5dba:    0119       lsls r1, r3, #4
    5dbc:    0329       lsls r1, r5, #12
    5dbe:    0291       lsls r1, r2, #10
    5dc0:    0195       lsls r5, r2, #6
    5dc2:    0575       lsls r5, r6, #21
    5dc4:    0391       lsls r1, r2, #14
    5dc6:    0695       lsls r5, r2, #26
    5dc8:    0875       lsrs r5, r6, #1
    5dca:    0015       movs r5, r2
    5dcc:    a426       add r4, pc, #152    ; (adr r4, 0x5e68)
    5dce:    0500       lsls r0, r0, #20
    5dd0:    1907       adds r7, r0, r4
    5dd2:    2900       cmp r1, #0
    5dd4:    81a4       strh r4, [r4, #12]
    5dd6:    c000       stmia r0!, {}
    5dd8:    0006       movs r6, r0
    5dda:    09ff       lsrs r7, r7, #7
    5ddc:    a101       add r1, pc, #4    ; (adr r1, 0x5de4)
    5dde:    0901       lsrs r1, r0, #4
    5de0:    1502       asrs r2, r0, #20
    5de2:    2600       movs r6, #0
    5de4:    00ff       lsls r7, r7, #3
    5de6:    0875       lsrs r5, r6, #1
    5de8:    4095       lsls r5, r2
    5dea:    0281       lsls r1, r0, #10
    5dec:    0309       lsls r1, r1, #12
    5dee:    0015       movs r5, r2
    5df0:    ff26 7500  vrshl.u32 d7, d0, d6
    5df4:    9508       str r5, [sp, #32]
    5df6:    9140       str r1, [sp, #256]    ; 0x100
    5df8:    c002       stmia r0!, {r1}
    5dfa:    0000       movs r0, r0
    5dfc:    0105       lsls r5, r0, #4
    5dfe:    8009       strh r1, [r1, #0]
    5e00:    01a1       lsls r1, r4, #6
    5e02:    0185       lsls r5, r0, #6
    5e04:    8119       strh r1, [r3, #8]
    5e06:    8329       strh r1, [r5, #24]
    5e08:    0015       movs r5, r2
    5e0a:    0125       lsls r5, r4, #4
    5e0c:    0395       lsls r5, r2, #14
    5e0e:    0175       lsls r5, r6, #5
    5e10:    0281       lsls r1, r0, #10
    5e12:    0195       lsls r5, r2, #6
    5e14:    0575       lsls r5, r6, #21
    5e16:    0181       lsls r1, r0, #6
    5e18:    05c0       lsls r0, r0, #23
    5e1a:    090c       lsrs r4, r1, #4
    5e1c:    a101       add r1, pc, #4    ; (adr r1, 0x5e24)
    5e1e:    8501       strh r1, [r0, #40]    ; 0x28
    5e20:    1502       asrs r2, r0, #20
    5e22:    2500       movs r5, #0
    5e24:    9501       str r5, [sp, #4]
    5e26:    7512       strb r2, [r2, #20]
    5e28:    0a01       lsrs r1, r0, #8
    5e2a:    0183       lsls r3, r0, #6
    5e2c:    8a0a       ldrh r2, [r1, #16]
    5e2e:    0a01       lsrs r1, r0, #8
    5e30:    0192       lsls r2, r2, #6
    5e32:    940a       str r4, [sp, #40]    ; 0x28
    5e34:    0901       lsrs r1, r0, #4
    5e36:    09cd       lsrs r5, r1, #7
    5e38:    09b7       lsrs r7, r6, #6
    5e3a:    09b6       lsrs r6, r6, #6
    5e3c:    09b5       lsrs r5, r6, #6
    5e3e:    09e2       lsrs r2, r4, #7
    5e40:    09ea       lsrs r2, r5, #7
    5e42:    0ae9       lsrs r1, r5, #11
    5e44:    0221       lsls r1, r4, #8
    5e46:    230a       movs r3, #10
    5e48:    0a02       lsrs r2, r0, #8
    5e4a:    0224       lsls r4, r4, #8
    5e4c:    250a       movs r5, #10
    5e4e:    0a02       lsrs r2, r0, #8
    5e50:    0226       lsls r6, r4, #8
    5e52:    270a       movs r7, #10
    5e54:    0a02       lsrs r2, r0, #8
    5e56:    022a       lsls r2, r5, #8
    5e58:    0281       lsls r1, r0, #10
    5e5a:    0195       lsls r5, r2, #6
    5e5c:    0e75       lsrs r5, r6, #25
    5e5e:    0181       lsls r1, r0, #6
    5e60:    05c0       lsls r0, r0, #23
    5e62:    0901       lsrs r1, r0, #4
    5e64:    a102       add r1, pc, #8    ; (adr r1, 0x5e70)
    5e66:    0901       lsrs r1, r0, #4
    5e68:    a101       add r1, pc, #4    ; (adr r1, 0x5e70)
    5e6a:    8500       strh r0, [r0, #40]    ; 0x28
    5e6c:    0503       lsls r3, r0, #20
    5e6e:    1909       adds r1, r1, r4
    5e70:    2901       cmp r1, #1
    5e72:    1503       asrs r3, r0, #20
    5e74:    2500       movs r5, #0
    5e76:    7501       strb r1, [r0, #20]
    5e78:    9501       str r5, [sp, #4]
    5e7a:    8103       strh r3, [r0, #8]
    5e7c:    9502       str r5, [sp, #8]
    5e7e:    7501       strb r1, [r0, #20]
    5e80:    8105       strh r5, [r0, #8]
    5e82:    0501       lsls r1, r0, #20
    5e84:    0901       lsrs r1, r0, #4
    5e86:    0930       lsrs r0, r6, #4
    5e88:    1531       asrs r1, r6, #20
    5e8a:    2581       movs r5, #129    ; 0x81
    5e8c:    757f       strb r7, [r7, #21]
    5e8e:    9508       str r5, [sp, #32]
    5e90:    8102       strh r2, [r0, #8]
    5e92:    0906       lsrs r6, r0, #4
    5e94:    1538       asrs r0, r7, #20
    5e96:    2581       movs r5, #129    ; 0x81
    5e98:    757f       strb r7, [r7, #21]
    5e9a:    9508       str r5, [sp, #32]
    5e9c:    8101       strh r1, [r0, #8]
    5e9e:    c006       stmia r0!, {r1, r2}
    5ea0:    05c0       lsls r0, r0, #23
    5ea2:    0901       lsrs r1, r0, #4
    5ea4:    a106       add r1, pc, #24    ; (adr r1, 0x5ec0)
    5ea6:    8501       strh r1, [r0, #40]    ; 0x28
    5ea8:    0504       lsls r4, r0, #20
    5eaa:    9507       str r5, [sp, #28]
    5eac:    7501       strb r1, [r0, #20]
    5eae:    8108       strh r0, [r1, #8]
    5eb0:    9503       str r5, [sp, #12]
    5eb2:    75e8       strb r0, [r5, #23]
    5eb4:    1501       asrs r1, r0, #20
    5eb6:    2500       movs r5, #0
    5eb8:    0501       lsls r1, r0, #20
    5eba:    1907       adds r7, r0, r4
    5ebc:    2900       cmp r1, #0
    5ebe:    81e7       strh r7, [r4, #14]
    5ec0:    c000       stmia r0!, {}
    5ec2:    0000       movs r0, r0
    5ec4:    0112       lsls r2, r2, #4
    5ec6:    0110       lsls r0, r2, #4
    5ec8:    0000       movs r0, r0
    5eca:    4000       ands r0, r0
    5ecc:    04d9       lsls r1, r3, #19
    5ece:    0141       lsls r1, r0, #5
    5ed0:    0117       lsls r7, r2, #4
    5ed2:    0200       lsls r0, r0, #8
    5ed4:    0100       lsls r0, r0, #4
    5ed6:    0000       movs r0, r0
    5ed8:    0209       lsls r1, r1, #8
    5eda:    005b       lsls r3, r3, #1
    5edc:    0103       lsls r3, r0, #4
    5ede:    a000       add r0, pc, #0    ; (adr r0, 0x5ee0)
    5ee0:    0932       lsrs r2, r6, #4
    5ee2:    0004       movs r4, r0
    5ee4:    0100       lsls r0, r0, #4
    5ee6:    0103       lsls r3, r0, #4
    5ee8:    0001       movs r1, r0
    5eea:    2109       movs r1, #9
    5eec:    0111       lsls r1, r2, #4
    5eee:    0100       lsls r0, r0, #4
    5ef0:    4022       ands r2, r4
    5ef2:    0700       lsls r0, r0, #28
    5ef4:    8105       strh r5, [r0, #8]
    5ef6:    0803       lsrs r3, r0, #32
    5ef8:    0100       lsls r0, r0, #4
    5efa:    0409       lsls r1, r1, #16
    5efc:    0001       movs r1, r0
    5efe:    0302       lsls r2, r0, #12
    5f00:    0000       movs r0, r0
    5f02:    0900       lsrs r0, r0, #4
    5f04:    1121       asrs r1, r4, #4
    5f06:    0001       movs r1, r0
    5f08:    2201       movs r2, #1
    5f0a:    0022       movs r2, r4
    5f0c:    0507       lsls r7, r0, #20
    5f0e:    0383       lsls r3, r0, #14
    5f10:    0040       lsls r0, r0, #1
    5f12:    0701       lsls r1, r0, #28
    5f14:    0405       lsls r5, r0, #16
    5f16:    4003       ands r3, r0
    5f18:    0100       lsls r0, r0, #4
    5f1a:    0409       lsls r1, r1, #16
    5f1c:    0002       movs r2, r0
    5f1e:    0301       lsls r1, r0, #12
    5f20:    0000       movs r0, r0
    5f22:    0900       lsrs r0, r0, #4
    5f24:    1121       asrs r1, r4, #4
    5f26:    0001       movs r1, r0
    5f28:    2201       movs r2, #1
    5f2a:    00c6       lsls r6, r0, #3
    5f2c:    0507       lsls r7, r0, #20
    5f2e:    0382       lsls r2, r0, #14
    5f30:    0040       lsls r0, r0, #1
    5f32:    0001       movs r1, r0
    5f34:    0304       lsls r4, r0, #12
    5f36:    0409       lsls r1, r1, #16
    5f38:    031a       lsls r2, r3, #12
    5f3a:    0055       lsls r5, r2, #1
    5f3c:    0053       lsls r3, r2, #1
    5f3e:    0042       lsls r2, r0, #1
    5f40:    0020       movs r0, r4
    5f42:    004b       lsls r3, r1, #1
    5f44:    0065       lsls r5, r4, #1
    5f46:    0079       lsls r1, r7, #1
    5f48:    0062       lsls r2, r4, #1
    5f4a:    006f       lsls r7, r5, #1
    5f4c:    0061       lsls r1, r4, #1
    5f4e:    0072       lsls r2, r6, #1
    5f50:    0064       lsls r4, r4, #1
    5f52:    0000       movs r0, r0
    5f54:    7179       strb r1, [r7, #5]
    5f56:    0000       movs r0, r0
    5f58:    71b9       strb r1, [r7, #6]
    5f5a:    0000       movs r0, r0
    5f5c:    7159       strb r1, [r3, #5]
    5f5e:    0000       movs r0, r0
    5f60:    729d       strb r5, [r3, #10]
    5f62:    0000       movs r0, r0
    5f64:    3069       adds r0, #105    ; 0x69
    5f66:    0000       movs r0, r0
    5f68:    7155       strb r5, [r2, #5]
    5f6a:    0000       movs r0, r0
    5f6c:    5971       ldr r1, [r6, r5]
    5f6e:    0000       movs r0, r0
    5f70:    473e       bx r7
    5f72:    4445       add r5, r8
    5f74:    4f52       ldr r7, [pc, #328]    ; (0x60c0)
    5f76:    5051       str r1, [r2, r1]
    5f78:    0000       movs r0, r0
    5f7a:    0000       movs r0, r0
    5f7c:    0000       movs r0, r0
    5f7e:    0100       lsls r0, r0, #4
    5f80:    0302       lsls r2, r0, #12
    5f82:    0504       lsls r4, r0, #20
    5f84:    0706       lsls r6, r0, #28
    5f86:    0007       movs r7, r0
    5f88:    0000       movs r0, r0
    5f8a:    0000       movs r0, r0
    5f8c:    0000       movs r0, r0
    5f8e:    0404       lsls r4, r0, #16
    5f90:    0404       lsls r4, r0, #16
    5f92:    0405       lsls r5, r0, #16
    5f94:    0501       lsls r1, r0, #20
    5f96:    0505       lsls r5, r0, #20
    5f98:    0605       lsls r5, r0, #24
    5f9a:    0602       lsls r2, r0, #24
    5f9c:    0606       lsls r6, r0, #24
    5f9e:    0306       lsls r6, r0, #12
    5fa0:    0703       lsls r3, r0, #28
    5fa2:    0707       lsls r7, r0, #28
    5fa4:    0002       movs r2, r0
    5fa6:    0301       lsls r1, r0, #12
    5fa8:    0208       lsls r0, r1, #8
    5faa:    0202       lsls r2, r0, #8
    5fac:    0101       lsls r1, r0, #4
    5fae:    0301       lsls r1, r0, #12
    5fb0:    0303       lsls r3, r0, #12
    5fb2:    0107       lsls r7, r0, #4
    5fb4:    0302       lsls r2, r0, #12
    5fb6:    0504       lsls r4, r0, #20
    5fb8:    0706       lsls r6, r0, #28
    5fba:    0403       lsls r3, r0, #16
    5fbc:    0605       lsls r5, r0, #24
    5fbe:    0702       lsls r2, r0, #28
    5fc0:    0307       lsls r7, r0, #12
    5fc2:    0504       lsls r4, r0, #20
    5fc4:    0206       lsls r6, r0, #8
    5fc6:    0307       lsls r7, r0, #12
    5fc8:    0504       lsls r4, r0, #20
    5fca:    0106       lsls r6, r0, #4
    5fcc:    0306       lsls r6, r0, #12
    5fce:    0504       lsls r4, r0, #20
    5fd0:    0006       movs r6, r0
    5fd2:    0706       lsls r6, r0, #28
    5fd4:    0207       lsls r7, r0, #8
    5fd6:    0403       lsls r3, r0, #16
    5fd8:    0201       lsls r1, r0, #8
    5fda:    0203       lsls r3, r0, #8
    5fdc:    0403       lsls r3, r0, #16
    5fde:    3a29       subs r2, #41    ; 0x29
    5fe0:    3c3b       subs r4, #59    ; 0x3b
    5fe2:    3e3d       subs r6, #61    ; 0x3d
    5fe4:    403f       ands r7, r7
    5fe6:    4241       negs r1, r0
    5fe8:    4443       add r3, r8
    5fea:    4c45       ldr r4, [pc, #276]    ; (0x6100)
    5fec:    524b       strh r3, [r1, r1]
    5fee:    464e       mov r6, r9
    5ff0:    4847       ldr r0, [pc, #284]    ; (0x6110)
    5ff2:    5150       str r0, [r2, r5]
    5ff4:    494f       ldr r1, [pc, #316]    ; (0x6134)
    5ff6:    654c       str r4, [r1, #84]    ; 0x54
    5ff8:    c14d       stmia r1!, {r0, r2, r3, r6}
    5ffa:    c3c2       stmia r3!, {r1, r6, r7}
    5ffc:    354a       adds r5, #74    ; 0x4a
    5ffe:    c0ee       stmia r0!, {r1, r2, r3, r5, r6, r7}
