Firmware v104 for Vortex CORE Disassemnbly:

vector_table:
  0x3400:   0x20002178  ; Stack Pointer     (stack_max)
    3404:   0x3555      ; PC Reset          (reset)
    3408:   0x3561      ; NMI               (nmi)
    340c:   0x3563      ; Hard Fault        (hard_fault)
    3410:   0x3565      ; MCU Fault         (mcu_fault)
    3414:   0x3567      ; Bus Fault         (bus_fault)
    3418:   0x3569      ; Usage Fault       (usage_fault)
    341c:   0x0000      ; Reserved
    3420:   0x0000      ; Reserved
    3424:   0x0000      ; Reserved
    3428:   0x0000      ; Reserved
    342c:   0x356b      ; SVCCall           (svccall_intr)
    3430:   0x356d      ; Debug Monitor     (debug_intr)
    3434:   0x0000      ; Reserved
    3438:   0x356f      ; PendSV            (pendsv_intr)
    343c:   0x3571      ; SySTick           (systick_intr)
    3440:   0x3573      ;  0 CKRDY          (generic_intr)
    3444:   0x3573      ;  1 LVD            (generic_intr)
    3448:   0x3573      ;  2 BOD            (generic_intr)
    344c:   0x3573      ;  3 WDT            (generic_intr)
    3450:   0x3573      ;  4 RTC            (generic_intr)
    3454:   0x3573      ;  5 FMC            (generic_intr)
    3458:   0x3573      ;  6 EVWUP          (generic_intr)
    345c:   0x3573      ;  7 LPWUP          (generic_intr)
    3460:   0x3573      ;  8 EXTI0          (generic_intr)
    3464:   0x3573      ;  9 EXTI1          (generic_intr)
    3468:   0x3573      ; 10 EXTI2          (generic_intr)
    346c:   0x3573      ; 11 EXTI3          (generic_intr)
    3470:   0x3573      ; 12 EXTI4          (generic_intr)
    3474:   0x3573      ; 13 EXTI5          (generic_intr)
    3478:   0x3573      ; 14 EXTI6          (generic_intr)
    347c:   0x3573      ; 15 EXTI7          (generic_intr)
    3480:   0x3573      ; 16 EXTI8          (generic_intr)
    3484:   0x3573      ; 17 EXTI9          (generic_intr)
    3488:   0x3573      ; 18 EXTI10         (generic_intr)
    348c:   0x3573      ; 19 EXTI11         (generic_intr)
    3490:   0x3573      ; 20 EXTI12         (generic_intr)
    3494:   0x3573      ; 21 EXTI13         (generic_intr)
    3498:   0x3573      ; 22 EXTI14         (generic_intr)
    349c:   0x3573      ; 23 EXTI15         (generic_intr)
    34a0:   0x3573      ; 24 COMP           (generic_intr)
    34a4:   0x3573      ; 25 ADC            (generic_intr)
    34a8:   0x0000      ; Reserved
    34ac:   0x3573      ; 27 MCTM0_BRK      (generic_intr)
    34b0:   0x3573      ; 28 MCTM0_UP       (generic_intr)
    34b4:   0x3573      ; 29 MCTM0_TR_UP2   (generic_intr)
    34b8:   0x3573      ; 30 MCTM0_CC       (generic_intr)
    34bc:   0x3573      ; 31 MCTM1_BRK      (generic_intr)
    34c0:   0x3573      ; 32 MCTM1_UP       (generic_intr)
    34c4:   0x3573      ; 33 MCTM1_TR_UP2   (generic_intr)
    34c8:   0x3573      ; 34 MCTM1_CC       (generic_intr)
    34cc:   0x3573      ; 35 GPTM0          (generic_intr)
    34d0:   0x3573      ; 36 GPTM1          (generic_intr)
    34d4:   0x0000      ; Reserved
    34d8:   0x0000      ; Reserved
    34dc:   0x0000      ; Reserved
    34e0:   0x0000      ; Reserved
    34e4:   0x36c5      ; 41 BFTM0          (bftm0_intr)
    34e8:   0x3755      ; 42 BFTM1          (bftm1_intr)
    34ec:   0x3573      ; 43 I2C0           (generic_intr)
    34f0:   0x3573      ; 44 I2C1           (i2c1_intr)
    34f4:   0x3573      ; 45 SPI0           (generic_intr)
    34f8:   0x3573      ; 46 SPI1           (generic_intr)
    34fc:   0x3573      ; 47 USART0         (generic_intr)
    3500:   0x3573      ; 48 USART1         (generic_intr)
    3504:   0x3573      ; 49 UART0          (generic_intr)
    3508:   0x3573      ; 50 UART1          (generic_intr)
    350c:   0x3573      ; 51 SCI            (generic_intr)
    3510:   0x3573      ; 52 I2S            (generic_intr)
    3514:   0x6eed      ; 53 USB            (usb_intr)
    3518:   0x0000      ; Reserved
    351c:   0x3573      ; 55 PDMA_CH0       (generic_intr)
    3520:   0x3573      ; 56 PDMA_CH1       (generic_intr)
    3524:   0x3573      ; 57 PDMA_CH2       (generic_intr)
    3528:   0x3573      ; 58 PDMA_CH3       (generic_intr)
    352c:   0x3573      ; 59 PDMA_CH4       (generic_intr)
    3530:   0x3573      ; 60 PDMA_CH5       (generic_intr)
    3534:   0x3573      ; 61 PDMA_CH6       (generic_intr)
    3538:   0x3573      ; 62 PDMA_CH7       (generic_intr)
    353c:   0x0000      ; Reserved
    3540:   0x0000      ; Reserved
    3544:   0x0000      ; Reserved
    3548:   0x0000      ; Reserved
    354c:   0x0000      ; Reserved
    3550:   0x3573      ; 68 EBI            (generic_intr)

.text:

reset:
  0x3554:   4807        ldr r0, [pc, #28]    ; (0x3574)
    3556:   4780        blx r0
    3558:   4807        ldr r0, [pc, #28]    ; (0x3578)
    355a:   4780        blx r0
    355c:   4807        ldr r0, [pc, #28]    ; (0x357c)
    355e:   4700        bx r0

nmi:
  0x3560:   e7fe        b.n 0x3560
hard_fault:
  0x3562:   e7fe        b.n 0x3562
mcu_fault:
  0x3564:   e7fe        b.n 0x3564
bus_fault:
  0x3566:   e7fe        b.n 0x3566
usage_fault:
  0x3568:   e7fe        b.n 0x3568
svccall_intr:
  0x356a:   e7fe        b.n 0x356a
debug_intr:
  0x356c:   e7fe        b.n 0x356c
pendsv_intr:
  0x356e:   e7fe        b.n 0x356e
systick_intr:
  0x3570:   e7fe        b.n 0x3570
generic_intr:
  0x3572:   e7fe        b.n 0x3572

  0x3574:   0x6ef9
  0x3578:   0x6875
  0x357c:   0x3581

entry:
  0x3580:   f8df d00c   ldr.w sp, [pc, #12]    ; 0x3590
    3584:   f000 f84a   bl 0x361c
    3588:   4800        ldr r0, [pc, #0]    ; (0x358c)
    358a:   4700        bx r0

    358c:   0x7b81      ; (main)
    3590:   0x20002178

    3594:   4906        ldr r1, [pc, #24]    ; (0x35b0)
    3596:   4a07        ldr r2, [pc, #28]    ; (0x35b4)
    3598:   6808        ldr r0, [r1, #0]
    359a:   4350        muls r0, r2
    359c:   f243 0239   movw r2, #12345    ; 0x3039
    35a0:   4410        add r0, r2
    35a2:   6008        str r0, [r1, #0]
    35a4:   0840        lsrs r0, r0, #1
    35a6:   4770        bx lr
    35a8:   4901        ldr r1, [pc, #4]    ; (0x35b0)
    35aa:   6008        str r0, [r1, #0]
    35ac:   4770        bx lr
    35ae:   0000        movs r0, r0
    35b0:   0074        lsls r4, r6, #1
    35b2:   2000        movs r0, #0
    35b4:   4e6d        ldr r6, [pc, #436]    ; (0x376c)
    35b6:   41c6        rors r6, r0
    35b8:   ea40 0301   orr.w r3, r0, r1
    35bc:   079b        lsls r3, r3, #30
    35be:   d003        beq.n 0x35c8
    35c0:   e009        b.n 0x35d6
    35c2:   c908        ldmia r1!, {r3}
    35c4:   1f12        subs r2, r2, #4
    35c6:   c008        stmia r0!, {r3}
    35c8:   2a04        cmp r2, #4
    35ca:   d2fa        bcs.n 0x35c2
    35cc:   e003        b.n 0x35d6
    35ce:   f811 3b01   ldrb.w r3, [r1], #1
    35d2:   f800 3b01   strb.w r3, [r0], #1
    35d6:   1e52        subs r2, r2, #1
    35d8:   d2f9        bcs.n 0x35ce
    35da:   4770        bx lr
    35dc:   b2d2        uxtb r2, r2
    35de:   e001        b.n 0x35e4
    35e0:   f800 2b01   strb.w r2, [r0], #1
    35e4:   1e49        subs r1, r1, #1
    35e6:   d2fb        bcs.n 0x35e0
    35e8:   4770        bx lr
    35ea:   2200        movs r2, #0
    35ec:   e7f6        b.n 0x35dc
    35ee:   b510        push {r4, lr}
    35f0:   4613        mov r3, r2
    35f2:   460a        mov r2, r1
    35f4:   4604        mov r4, r0
    35f6:   4619        mov r1, r3
    35f8:   f7ff fff0   bl 0x35dc
    35fc:   4620        mov r0, r4
    35fe:   bd10        pop {r4, pc}
    3600:   b530        push {r4, r5, lr}
    3602:   4604        mov r4, r0
    3604:   2000        movs r0, #0
    3606:   4603        mov r3, r0
    3608:   e000        b.n 0x360c
    360a:   1c5b        adds r3, r3, #1
    360c:   4293        cmp r3, r2
    360e:   d203        bcs.n 0x3618
    3610:   5ce0        ldrb r0, [r4, r3]
    3612:   5ccd        ldrb r5, [r1, r3]
    3614:   1b40        subs r0, r0, r5
    3616:   d0f8        beq.n 0x360a
    3618:   bd30        pop {r4, r5, pc}
    361a:   0000        movs r0, r0
    361c:   4c06        ldr r4, [pc, #24]    ; (0x3638)
    361e:   4d07        ldr r5, [pc, #28]    ; (0x363c)
    3620:   e006        b.n 0x3630
    3622:   68e0        ldr r0, [r4, #12]
    3624:   f040 0301   orr.w r3, r0, #1
    3628:   e894 0007   ldmia.w r4, {r0, r1, r2}
    362c:   4798        blx r3
    362e:   3410        adds r4, #16
    3630:   42ac        cmp r4, r5
    3632:   d3f6        bcc.n 0x3622
    3634:   f7ff ffa8   bl 0x3588
    3638:   8424        strh r4, [r4, #32]
    363a:   0000        movs r0, r0
    363c:   8444        strh r4, [r0, #34]    ; 0x22
    363e:   0000        movs r0, r0
    3640:   b570        push {r4, r5, r6, lr}
    3642:   188c        adds r4, r1, r2
    3644:   f810 5b01   ldrb.w r5, [r0], #1
    3648:   f015 0307   ands.w r3, r5, #7
    364c:   d101        bne.n 0x3652
    364e:   f810 3b01   ldrb.w r3, [r0], #1
    3652:   112a        asrs r2, r5, #4
    3654:   d106        bne.n 0x3664
    3656:   f810 2b01   ldrb.w r2, [r0], #1
    365a:   e003        b.n 0x3664
    365c:   f810 6b01   ldrb.w r6, [r0], #1
    3660:   f801 6b01   strb.w r6, [r1], #1
    3664:   1e5b        subs r3, r3, #1
    3666:   d1f9        bne.n 0x365c
    3668:   072b        lsls r3, r5, #28
    366a:   d405        bmi.n 0x3678
    366c:   2300        movs r3, #0
    366e:   1e52        subs r2, r2, #1
    3670:   d40d        bmi.n 0x368e
    3672:   f801 3b01   strb.w r3, [r1], #1
    3676:   e7fa        b.n 0x366e
    3678:   f810 3b01   ldrb.w r3, [r0], #1
    367c:   1acb        subs r3, r1, r3
    367e:   1c92        adds r2, r2, #2
    3680:   e003        b.n 0x368a
    3682:   f813 5b01   ldrb.w r5, [r3], #1
    3686:   f801 5b01   strb.w r5, [r1], #1
    368a:   1e52        subs r2, r2, #1
    368c:   d5f9        bpl.n 0x3682
    368e:   42a1        cmp r1, r4
    3690:   d3d8        bcc.n 0x3644
    3692:   2000        movs r0, #0
    3694:   bd70        pop {r4, r5, r6, pc}
    3696:   0000        movs r0, r0
    3698:   b510        push {r4, lr}
    369a:   2200        movs r2, #0
    369c:   2807        cmp r0, #7
    369e:   d902        bls.n 0x36a6
    36a0:   2201        movs r2, #1
    36a2:   3808        subs r0, #8
    36a4:   b2c0        uxtb r0, r0
    36a6:   0093        lsls r3, r2, #2
    36a8:   4a05        ldr r2, [pc, #20]    ; (0x36c0)
    36aa:   441a        add r2, r3
    36ac:   6813        ldr r3, [r2, #0]
    36ae:   0080        lsls r0, r0, #2
    36b0:   240f        movs r4, #15
    36b2:   4084        lsls r4, r0
    36b4:   43a3        bics r3, r4
    36b6:   4081        lsls r1, r0
    36b8:   4319        orrs r1, r3
    36ba:   6011        str r1, [r2, #0]
    36bc:   bd10        pop {r4, pc}
    36be:   0000        movs r0, r0
    36c0:   2000        movs r0, #0
    36c2:   4002        ands r2, r0
    36c4:   b510        push {r4, lr}
    36c6:   481b        ldr r0, [pc, #108]    ; (0x3734)
    36c8:   f000 f886   bl 0x37d8
    36cc:   f002 fdd2   bl 0x6274
    36d0:   4819        ldr r0, [pc, #100]    ; (0x3738)
    36d2:   6801        ldr r1, [r0, #0]
    36d4:   b111        cbz r1, 0x36dc
    36d6:   6801        ldr r1, [r0, #0]
    36d8:   1e49        subs r1, r1, #1
    36da:   6001        str r1, [r0, #0]
    36dc:   6841        ldr r1, [r0, #4]
    36de:   b111        cbz r1, 0x36e6
    36e0:   6841        ldr r1, [r0, #4]
    36e2:   1e49        subs r1, r1, #1
    36e4:   6041        str r1, [r0, #4]
    36e6:   4815        ldr r0, [pc, #84]    ; (0x373c)
    36e8:   8801        ldrh r1, [r0, #0]
    36ea:   1c49        adds r1, r1, #1
    36ec:   8001        strh r1, [r0, #0]
    36ee:   4814        ldr r0, [pc, #80]    ; (0x3740)
    36f0:   6801        ldr r1, [r0, #0]
    36f2:   b111        cbz r1, 0x36fa
    36f4:   6801        ldr r1, [r0, #0]
    36f6:   1c49        adds r1, r1, #1
    36f8:   6001        str r1, [r0, #0]
    36fa:   4812        ldr r0, [pc, #72]    ; (0x3744)
    36fc:   6801        ldr r1, [r0, #0]
    36fe:   b111        cbz r1, 0x3706
    3700:   6801        ldr r1, [r0, #0]
    3702:   1e49        subs r1, r1, #1
    3704:   6001        str r1, [r0, #0]
    3706:   4810        ldr r0, [pc, #64]    ; (0x3748)
    3708:   7801        ldrb r1, [r0, #0]
    370a:   1c49        adds r1, r1, #1
    370c:   7001        strb r1, [r0, #0]
    370e:   490f        ldr r1, [pc, #60]    ; (0x374c)
    3710:   8808        ldrh r0, [r1, #0]
    3712:   2801        cmp r0, #1
    3714:   d901        bls.n 0x371a
    3716:   1e40        subs r0, r0, #1
    3718:   8008        strh r0, [r1, #0]
    371a:   480d        ldr r0, [pc, #52]    ; (0x3750)
    371c:   8801        ldrh r1, [r0, #0]
    371e:   2900        cmp r1, #0
    3720:   d006        beq.n 0x3730
    3722:   8801        ldrh r1, [r0, #0]
    3724:   f5b1 4f7f   cmp.w r1, #65280    ; 0xff00
    3728:   d202        bcs.n 0x3730
    372a:   8801        ldrh r1, [r0, #0]
    372c:   1c49        adds r1, r1, #1
    372e:   8001        strh r1, [r0, #0]
    3730:   bd10        pop {r4, pc}
    3732:   0000        movs r0, r0
    3734:   6000        str r0, [r0, #0]
    3736:   4007        ands r7, r0
    3738:   0694        lsls r4, r2, #26
    373a:   2000        movs r0, #0
    373c:   001a        movs r2, r3
    373e:   2000        movs r0, #0
    3740:   0014        movs r4, r2
    3742:   2000        movs r0, #0
    3744:   0070        lsls r0, r6, #1
    3746:   2000        movs r0, #0
    3748:   0030        movs r0, r6
    374a:   2000        movs r0, #0
    374c:   0006        movs r6, r0
    374e:   2000        movs r0, #0
    3750:   0028        movs r0, r5
    3752:   2000        movs r0, #0
    3754:   b570        push {r4, r5, r6, lr}
    3756:   481b        ldr r0, [pc, #108]    ; (0x37c4)
    3758:   f000 f83e   bl 0x37d8
    375c:   4d1a        ldr r5, [pc, #104]    ; (0x37c8)
    375e:   2102        movs r1, #2
    3760:   4628        mov r0, r5
    3762:   f000 ff5d   bl 0x4620
    3766:   200a        movs r0, #10
    3768:   f000 f86a   bl 0x3840
    376c:   2002        movs r0, #2
    376e:   f003 fed3   bl 0x7518
    3772:   4916        ldr r1, [pc, #88]    ; (0x37cc)
    3774:   f44f 4000   mov.w r0, #32768    ; 0x8000
    3778:   6248        str r0, [r1, #36]    ; 0x24
    377a:   4c15        ldr r4, [pc, #84]    ; (0x37d0)
    377c:   4e15        ldr r6, [pc, #84]    ; (0x37d4)
    377e:   78a1        ldrb r1, [r4, #2]
    3780:   7061        strb r1, [r4, #1]
    3782:   f001 0201   and.w r2, r1, #1
    3786:   2110        movs r1, #16
    3788:   4630        mov r0, r6
    378a:   f000 ff4b   bl 0x4624
    378e:   7860        ldrb r0, [r4, #1]
    3790:   2120        movs r1, #32
    3792:   f3c0 0240   ubfx r2, r0, #1, #1
    3796:   4630        mov r0, r6
    3798:   f000 ff44   bl 0x4624
    379c:   7860        ldrb r0, [r4, #1]
    379e:   2140        movs r1, #64    ; 0x40
    37a0:   f3c0 0280   ubfx r2, r0, #2, #1
    37a4:   4630        mov r0, r6
    37a6:   f000 ff3d   bl 0x4624
    37aa:   2102        movs r1, #2
    37ac:   4628        mov r0, r5
    37ae:   f000 fa21   bl 0x3bf4
    37b2:   78a0        ldrb r0, [r4, #2]
    37b4:   1c40        adds r0, r0, #1
    37b6:   f000 0007   and.w r0, r0, #7
    37ba:   70a0        strb r0, [r4, #2]
    37bc:   e8bd 4070   ldmia.w sp!, {r4, r5, r6, lr}
    37c0:   f002 bfc0   b.w 0x6744
    37c4:   7000        strb r0, [r0, #0]
    37c6:   4007        ands r7, r0
    37c8:   2000        movs r0, #0
    37ca:   400b        ands r3, r1
    37cc:   0000        movs r0, r0
    37ce:   400b        ands r3, r1
    37d0:   002a        movs r2, r5
    37d2:   2000        movs r0, #0
    37d4:   4000        ands r0, r0
    37d6:   400b        ands r3, r1
    37d8:   6841        ldr r1, [r0, #4]
    37da:   f021 0101   bic.w r1, r1, #1
    37de:   6041        str r1, [r0, #4]
    37e0:   f3bf 8f4f   dsb sy
    37e4:   4770        bx lr
    37e6:   2900        cmp r1, #0
    37e8:   6801        ldr r1, [r0, #0]
    37ea:   d002        beq.n 0x37f2
    37ec:   f041 0104   orr.w r1, r1, #4
    37f0:   e001        b.n 0x37f6
    37f2:   f021 0104   bic.w r1, r1, #4
    37f6:   6001        str r1, [r0, #0]
    37f8:   4770        bx lr
    37fa:   2900        cmp r1, #0
    37fc:   6801        ldr r1, [r0, #0]
    37fe:   d002        beq.n 0x3806
    3800:   f041 0101   orr.w r1, r1, #1
    3804:   e001        b.n 0x380a
    3806:   f021 0101   bic.w r1, r1, #1
    380a:   6001        str r1, [r0, #0]
    380c:   4770        bx lr
    380e:   60c1        str r1, [r0, #12]
    3810:   4770        bx lr
    3812:   6081        str r1, [r0, #8]
    3814:   4770        bx lr
    3816:   0000        movs r0, r0
    3818:   00c0        lsls r0, r0, #3
    381a:   08cb        lsrs r3, r1, #3
    381c:   eb00 0083   add.w r0, r0, r3, lsl #2
    3820:   4b06        ldr r3, [pc, #24]    ; (0x383c)
    3822:   b510        push {r4, lr}
    3824:   4418        add r0, r3
    3826:   0749        lsls r1, r1, #29
    3828:   6803        ldr r3, [r0, #0]
    382a:   0ec9        lsrs r1, r1, #27
    382c:   240f        movs r4, #15
    382e:   408c        lsls r4, r1
    3830:   43a3        bics r3, r4
    3832:   408a        lsls r2, r1
    3834:   4313        orrs r3, r2
    3836:   6003        str r3, [r0, #0]
    3838:   bd10        pop {r4, pc}
    383a:   0000        movs r0, r0
    383c:   2020        movs r0, #32
    383e:   4002        ands r2, r0
    3840:   eb00 0080   add.w r0, r0, r0, lsl #2
    3844:   0080        lsls r0, r0, #2
    3846:   1e40        subs r0, r0, #1
    3848:   d2fd        bcs.n 0x3846
    384a:   4770        bx lr
    384c:   e92d 41f0   stmdb sp!, {r4, r5, r6, r7, r8, lr}
    3850:   f44f 4580   mov.w r5, #16384    ; 0x4000
    3854:   2400        movs r4, #0
    3856:   00a8        lsls r0, r5, #2
    3858:   4622        mov r2, r4
    385a:   4680        mov r8, r0
    385c:   2301        movs r3, #1
    385e:   4629        mov r1, r5
    3860:   f000 f850   bl 0x3904
    3864:   4e25        ldr r6, [pc, #148]    ; (0x38fc)
    3866:   2200        movs r2, #0
    3868:   4629        mov r1, r5
    386a:   4630        mov r0, r6
    386c:   f000 feb4   bl 0x45d8
    3870:   006f        lsls r7, r5, #1
    3872:   2200        movs r2, #0
    3874:   4639        mov r1, r7
    3876:   4630        mov r0, r6
    3878:   f000 feae   bl 0x45d8
    387c:   2202        movs r2, #2
    387e:   4629        mov r1, r5
    3880:   4630        mov r0, r6
    3882:   f000 feb9   bl 0x45f8
    3886:   2202        movs r2, #2
    3888:   4639        mov r1, r7
    388a:   4630        mov r0, r6
    388c:   f000 feb4   bl 0x45f8
    3890:   10ed        asrs r5, r5, #3
    3892:   2200        movs r2, #0
    3894:   4629        mov r1, r5
    3896:   4630        mov r0, r6
    3898:   f000 fe9e   bl 0x45d8
    389c:   2202        movs r2, #2
    389e:   4629        mov r1, r5
    38a0:   4630        mov r0, r6
    38a2:   f000 fea9   bl 0x45f8
    38a6:   2201        movs r2, #1
    38a8:   210b        movs r1, #11
    38aa:   2000        movs r0, #0
    38ac:   f7ff ffb4   bl 0x3818
    38b0:   2201        movs r2, #1
    38b2:   210d        movs r1, #13
    38b4:   2002        movs r0, #2
    38b6:   f7ff ffaf   bl 0x3818
    38ba:   2201        movs r2, #1
    38bc:   210e        movs r1, #14
    38be:   2002        movs r0, #2
    38c0:   f7ff ffaa   bl 0x3818
    38c4:   2201        movs r2, #1
    38c6:   210f        movs r1, #15
    38c8:   2002        movs r0, #2
    38ca:   f7ff ffa5   bl 0x3818
    38ce:   480c        ldr r0, [pc, #48]    ; (0x3900)
    38d0:   6840        ldr r0, [r0, #4]
    38d2:   0540        lsls r0, r0, #21
    38d4:   d409        bmi.n 0x38ea
    38d6:   2201        movs r2, #1
    38d8:   210e        movs r1, #14
    38da:   4610        mov r0, r2
    38dc:   f7ff ff9c   bl 0x3818
    38e0:   2201        movs r2, #1
    38e2:   210f        movs r1, #15
    38e4:   4610        mov r0, r2
    38e6:   f7ff ff97   bl 0x3818
    38ea:   4621        mov r1, r4
    38ec:   2300        movs r3, #0
    38ee:   4622        mov r2, r4
    38f0:   4640        mov r0, r8
    38f2:   f000 f807   bl 0x3904
    38f6:   2001        movs r0, #1
    38f8:   e8bd 81f0   ldmia.w sp!, {r4, r5, r6, r7, r8, pc}
    38fc:   0000        movs r0, r0
    38fe:   400b        ands r3, r1
    3900:   8000        strh r0, [r0, #0]
    3902:   4008        ands r0, r1
    3904:   b5f0        push {r4, r5, r6, r7, lr}
    3906:   4f07        ldr r7, [pc, #28]    ; (0x3924)
    3908:   6a7c        ldr r4, [r7, #36]    ; 0x24
    390a:   6afd        ldr r5, [r7, #44]    ; 0x2c
    390c:   6b3e        ldr r6, [r7, #48]    ; 0x30
    390e:   4384        bics r4, r0
    3910:   438d        bics r5, r1
    3912:   4396        bics r6, r2
    3914:   b113        cbz r3, 0x391c
    3916:   4304        orrs r4, r0
    3918:   430d        orrs r5, r1
    391a:   4316        orrs r6, r2
    391c:   627c        str r4, [r7, #36]    ; 0x24
    391e:   62fd        str r5, [r7, #44]    ; 0x2c
    3920:   633e        str r6, [r7, #48]    ; 0x30
    3922:   bdf0        pop {r4, r5, r6, r7, pc}
    3924:   8000        strh r0, [r0, #0]
    3926:   4008        ands r0, r1
    3928:   4903        ldr r1, [pc, #12]    ; (0x3938)
    392a:   680a        ldr r2, [r1, #0]
    392c:   f422 0240   bic.w r2, r2, #12582912    ; 0xc00000
    3930:   ea42 5080   orr.w r0, r2, r0, lsl #22
    3934:   6008        str r0, [r1, #0]
    3936:   4770        bx lr
    3938:   8000        strh r0, [r0, #0]
    393a:   4008        ands r0, r1
    393c:   b570        push {r4, r5, r6, lr}
    393e:   492f        ldr r1, [pc, #188]    ; (0x39fc)
    3940:   7988        ldrb r0, [r1, #6]
    3942:   2800        cmp r0, #0
    3944:   d033        beq.n 0x39ae
    3946:   4d2e        ldr r5, [pc, #184]    ; (0x3a00)
    3948:   2201        movs r2, #1
    394a:   606a        str r2, [r5, #4]
    394c:   482d        ldr r0, [pc, #180]    ; (0x3a04)
    394e:   78c0        ldrb r0, [r0, #3]
    3950:   0780        lsls r0, r0, #30
    3952:   d52c        bpl.n 0x39ae
    3954:   482b        ldr r0, [pc, #172]    ; (0x3a04)
    3956:   7a0b        ldrb r3, [r1, #8]
    3958:   7800        ldrb r0, [r0, #0]
    395a:   b19b        cbz r3, 0x3984
    395c:   2814        cmp r0, #20
    395e:   d02d        beq.n 0x39bc
    3960:   dc08        bgt.n 0x3974
    3962:   2808        cmp r0, #8
    3964:   d02a        beq.n 0x39bc
    3966:   280c        cmp r0, #12
    3968:   d024        beq.n 0x39b4
    396a:   2812        cmp r0, #18
    396c:   d022        beq.n 0x39b4
    396e:   2813        cmp r0, #19
    3970:   d11d        bne.n 0x39ae
    3972:   e01f        b.n 0x39b4
    3974:   2818        cmp r0, #24
    3976:   d01d        beq.n 0x39b4
    3978:   281a        cmp r0, #26
    397a:   d01f        beq.n 0x39bc
    397c:   2829        cmp r0, #41    ; 0x29
    397e:   d017        beq.n 0x39b0
    3980:   28cf        cmp r0, #207    ; 0xcf
    3982:   d114        bne.n 0x39ae
    3984:   4920        ldr r1, [pc, #128]    ; (0x3a08)
    3986:   4a21        ldr r2, [pc, #132]    ; (0x3a0c)
    3988:   78cb        ldrb r3, [r1, #3]
    398a:   5c10        ldrb r0, [r2, r0]
    398c:   2b05        cmp r3, #5
    398e:   d028        beq.n 0x39e2
    3990:   eb00 0040   add.w r0, r0, r0, lsl #1
    3994:   1844        adds r4, r0, r1
    3996:   f504 74be   add.w r4, r4, #380    ; 0x17c
    399a:   2203        movs r2, #3
    399c:   4621        mov r1, r4
    399e:   4818        ldr r0, [pc, #96]    ; (0x3a00)
    39a0:   f7ff fe2e   bl 0x3600
    39a4:   b338        cbz r0, 0x39f6
    39a6:   8828        ldrh r0, [r5, #0]
    39a8:   8020        strh r0, [r4, #0]
    39aa:   78a8        ldrb r0, [r5, #2]
    39ac:   70a0        strb r0, [r4, #2]
    39ae:   bd70        pop {r4, r5, r6, pc}
    39b0:   708a        strb r2, [r1, #2]
    39b2:   bd70        pop {r4, r5, r6, pc}
    39b4:   e8bd 4070   ldmia.w sp!, {r4, r5, r6, lr}
    39b8:   f003 babe   b.w 0x6f38
    39bc:   2814        cmp r0, #20
    39be:   d003        beq.n 0x39c8
    39c0:   281a        cmp r0, #26
    39c2:   d00a        beq.n 0x39da
    39c4:   2808        cmp r0, #8
    39c6:   d00a        beq.n 0x39de
    39c8:   2100        movs r1, #0
    39ca:   480d        ldr r0, [pc, #52]    ; (0x3a00)
    39cc:   2201        movs r2, #1
    39ce:   1844        adds r4, r0, r1
    39d0:   7820        ldrb r0, [r4, #0]
    39d2:   f001 fd07   bl 0x53e4
    39d6:   7020        strb r0, [r4, #0]
    39d8:   bd70        pop {r4, r5, r6, pc}
    39da:   2101        movs r1, #1
    39dc:   e7f5        b.n 0x39ca
    39de:   2102        movs r1, #2
    39e0:   e7f3        b.n 0x39ca
    39e2:   4a0b        ldr r2, [pc, #44]    ; (0x3a10)
    39e4:   5c10        ldrb r0, [r2, r0]
    39e6:   f000 0007   and.w r0, r0, #7
    39ea:   eb00 0040   add.w r0, r0, r0, lsl #1
    39ee:   1844        adds r4, r0, r1
    39f0:   f504 7415   add.w r4, r4, #596    ; 0x254
    39f4:   e7d1        b.n 0x399a
    39f6:   2000        movs r0, #0
    39f8:   8020        strh r0, [r4, #0]
    39fa:   e7d7        b.n 0x39ac
    39fc:   0644        lsls r4, r0, #25
    39fe:   2000        movs r0, #0
    3a00:   0010        movs r0, r2
    3a02:   2000        movs r0, #0
    3a04:   0038        movs r0, r7
    3a06:   2000        movs r0, #0
    3a08:   0708        lsls r0, r1, #28
    3a0a:   2000        movs r0, #0
    3a0c:   01de        lsls r6, r3, #7
    3a0e:   2000        movs r0, #0
    3a10:   7e95        ldrb r5, [r2, #26]
    3a12:   0000        movs r0, r0
    3a14:   2103        movs r1, #3
    3a16:   4a04        ldr r2, [pc, #16]    ; (0x3a28)
    3a18:   e001        b.n 0x3a1e
    3a1a:   5c43        ldrb r3, [r0, r1]
    3a1c:   5453        strb r3, [r2, r1]
    3a1e:   1e49        subs r1, r1, #1
    3a20:   b2c9        uxtb r1, r1
    3a22:   d2fa        bcs.n 0x3a1a
    3a24:   4770        bx lr
    3a26:   0000        movs r0, r0
    3a28:   0010        movs r0, r2
    3a2a:   2000        movs r0, #0
    3a2c:   4806        ldr r0, [pc, #24]    ; (0x3a48)
    3a2e:   7980        ldrb r0, [r0, #6]
    3a30:   2800        cmp r0, #0
    3a32:   d007        beq.n 0x3a44
    3a34:   4805        ldr r0, [pc, #20]    ; (0x3a4c)
    3a36:   6840        ldr r0, [r0, #4]
    3a38:   f649 4140   movw r1, #40000    ; 0x9c40
    3a3c:   4288        cmp r0, r1
    3a3e:   d301        bcc.n 0x3a44
    3a40:   f003 ba7a   b.w 0x6f38
    3a44:   4770        bx lr
    3a46:   0000        movs r0, r0
    3a48:   0644        lsls r4, r0, #25
    3a4a:   2000        movs r0, #0
    3a4c:   0010        movs r0, r2
    3a4e:   2000        movs r0, #0
    3a50:   b570        push {r4, r5, r6, lr}
    3a52:   b198        cbz r0, 0x3a7c
    3a54:   4d0f        ldr r5, [pc, #60]    ; (0x3a94)
    3a56:   2448        movs r4, #72    ; 0x48
    3a58:   4e0f        ldr r6, [pc, #60]    ; (0x3a98)
    3a5a:   e00b        b.n 0x3a74
    3a5c:   f815 0901   ldrb.w r0, [r5], #-1
    3a60:   f000 0007   and.w r0, r0, #7
    3a64:   eb00 0040   add.w r0, r0, r0, lsl #1
    3a68:   1981        adds r1, r0, r6
    3a6a:   4620        mov r0, r4
    3a6c:   f501 7115   add.w r1, r1, #596    ; 0x254
    3a70:   f000 fb58   bl 0x4124
    3a74:   1e64        subs r4, r4, #1
    3a76:   b2e4        uxtb r4, r4
    3a78:   d2f0        bcs.n 0x3a5c
    3a7a:   bd70        pop {r4, r5, r6, pc}
    3a7c:   4d07        ldr r5, [pc, #28]    ; (0x3a9c)
    3a7e:   2448        movs r4, #72    ; 0x48
    3a80:   e004        b.n 0x3a8c
    3a82:   4629        mov r1, r5
    3a84:   4620        mov r0, r4
    3a86:   f000 fb4d   bl 0x4124
    3a8a:   1eed        subs r5, r5, #3
    3a8c:   1e64        subs r4, r4, #1
    3a8e:   b2e4        uxtb r4, r4
    3a90:   d2f7        bcs.n 0x3a82
    3a92:   bd70        pop {r4, r5, r6, pc}
    3a94:   7edc        ldrb r4, [r3, #27]
    3a96:   0000        movs r0, r0
    3a98:   0708        lsls r0, r1, #28
    3a9a:   2000        movs r0, #0
    3a9c:   0959        lsrs r1, r3, #5
    3a9e:   2000        movs r0, #0
    3aa0:   2801        cmp r0, #1
    3aa2:   d004        beq.n 0x3aae
    3aa4:   2005        movs r0, #5
    3aa6:   4903        ldr r1, [pc, #12]    ; (0x3ab4)
    3aa8:   70c8        strb r0, [r1, #3]
    3aaa:   f000 ba9f   b.w 0x3fec
    3aae:   2004        movs r0, #4
    3ab0:   e7f9        b.n 0x3aa6
    3ab2:   0000        movs r0, r0
    3ab4:   0708        lsls r0, r1, #28
    3ab6:   2000        movs r0, #0
    3ab8:   b510        push {r4, lr}
    3aba:   f7ff fff1   bl 0x3aa0
    3abe:   4805        ldr r0, [pc, #20]    ; (0x3ad4)
    3ac0:   2101        movs r1, #1
    3ac2:   7181        strb r1, [r0, #6]
    3ac4:   4804        ldr r0, [pc, #16]    ; (0x3ad8)
    3ac6:   6041        str r1, [r0, #4]
    3ac8:   4904        ldr r1, [pc, #16]    ; (0x3adc)
    3aca:   880a        ldrh r2, [r1, #0]
    3acc:   8002        strh r2, [r0, #0]
    3ace:   7889        ldrb r1, [r1, #2]
    3ad0:   7081        strb r1, [r0, #2]
    3ad2:   bd10        pop {r4, pc}
    3ad4:   0644        lsls r4, r0, #25
    3ad6:   2000        movs r0, #0
    3ad8:   0010        movs r0, r2
    3ada:   2000        movs r0, #0
    3adc:   7e09        ldrb r1, [r1, #24]
    3ade:   0000        movs r0, r0
    3ae0:   b570        push {r4, r5, r6, lr}
    3ae2:   4817        ldr r0, [pc, #92]    ; (0x3b40)
    3ae4:   7ac0        ldrb r0, [r0, #11]
    3ae6:   b1d0        cbz r0, 0x3b1e
    3ae8:   4816        ldr r0, [pc, #88]    ; (0x3b44)
    3aea:   f000 fb2b   bl 0x4144
    3aee:   202e        movs r0, #46    ; 0x2e
    3af0:   2100        movs r1, #0
    3af2:   4a15        ldr r2, [pc, #84]    ; (0x3b48)
    3af4:   4b15        ldr r3, [pc, #84]    ; (0x3b4c)
    3af6:   4d16        ldr r5, [pc, #88]    ; (0x3b50)
    3af8:   e002        b.n 0x3b00
    3afa:   5c14        ldrb r4, [r2, r0]
    3afc:   5d1c        ldrb r4, [r3, r4]
    3afe:   5561        strb r1, [r4, r5]
    3b00:   1e40        subs r0, r0, #1
    3b02:   b2c0        uxtb r0, r0
    3b04:   d2f9        bcs.n 0x3afa
    3b06:   4c13        ldr r4, [pc, #76]    ; (0x3b54)
    3b08:   490e        ldr r1, [pc, #56]    ; (0x3b44)
    3b0a:   f814 0fe8   ldrb.w r0, [r4, #232]!
    3b0e:   1cc9        adds r1, r1, #3
    3b10:   f000 fb08   bl 0x4124
    3b14:   490b        ldr r1, [pc, #44]    ; (0x3b44)
    3b16:   7860        ldrb r0, [r4, #1]
    3b18:   1d89        adds r1, r1, #6
    3b1a:   f000 fb03   bl 0x4124
    3b1e:   480e        ldr r0, [pc, #56]    ; (0x3b58)
    3b20:   8840        ldrh r0, [r0, #2]
    3b22:   0540        lsls r0, r0, #21
    3b24:   d506        bpl.n 0x3b34
    3b26:   4907        ldr r1, [pc, #28]    ; (0x3b44)
    3b28:   e8bd 4070   ldmia.w sp!, {r4, r5, r6, lr}
    3b2c:   1d89        adds r1, r1, #6
    3b2e:   2032        movs r0, #50    ; 0x32
    3b30:   f000 baf8   b.w 0x4124
    3b34:   e8bd 4070   ldmia.w sp!, {r4, r5, r6, lr}
    3b38:   2100        movs r1, #0
    3b3a:   2032        movs r0, #50    ; 0x32
    3b3c:   f000 bb14   b.w 0x4168
    3b40:   0644        lsls r4, r0, #25
    3b42:   2000        movs r0, #0
    3b44:   7e0c        ldrb r4, [r1, #24]
    3b46:   0000        movs r0, r0
    3b48:   7d54        ldrb r4, [r2, #21]
    3b4a:   0000        movs r0, r0
    3b4c:   01de        lsls r6, r3, #7
    3b4e:   2000        movs r0, #0
    3b50:   03bc        lsls r4, r7, #14
    3b52:   2000        movs r0, #0
    3b54:   0708        lsls r0, r1, #28
    3b56:   2000        movs r0, #0
    3b58:   0018        movs r0, r3
    3b5a:   2000        movs r0, #0
    3b5c:   4813        ldr r0, [pc, #76]    ; (0x3bac)
    3b5e:   b510        push {r4, lr}
    3b60:   79c0        ldrb r0, [r0, #7]
    3b62:   2804        cmp r0, #4
    3b64:   d003        beq.n 0x3b6e
    3b66:   2805        cmp r0, #5
    3b68:   d001        beq.n 0x3b6e
    3b6a:   4911        ldr r1, [pc, #68]    ; (0x3bb0)
    3b6c:   e005        b.n 0x3b7a
    3b6e:   4811        ldr r0, [pc, #68]    ; (0x3bb4)
    3b70:   8840        ldrh r0, [r0, #2]
    3b72:   0540        lsls r0, r0, #21
    3b74:   d505        bpl.n 0x3b82
    3b76:   490e        ldr r1, [pc, #56]    ; (0x3bb0)
    3b78:   1cc9        adds r1, r1, #3
    3b7a:   2032        movs r0, #50    ; 0x32
    3b7c:   f000 fad2   bl 0x4124
    3b80:   e003        b.n 0x3b8a
    3b82:   2100        movs r1, #0
    3b84:   2032        movs r0, #50    ; 0x32
    3b86:   f000 faef   bl 0x4168
    3b8a:   2100        movs r1, #0
    3b8c:   2031        movs r0, #49    ; 0x31
    3b8e:   f000 faeb   bl 0x4168
    3b92:   4809        ldr r0, [pc, #36]    ; (0x3bb8)
    3b94:   7880        ldrb r0, [r0, #2]
    3b96:   2800        cmp r0, #0
    3b98:   d007        beq.n 0x3baa
    3b9a:   4a08        ldr r2, [pc, #32]    ; (0x3bbc)
    3b9c:   eb00 00c0   add.w r0, r0, r0, lsl #3
    3ba0:   eb02 00c0   add.w r0, r2, r0, lsl #3
    3ba4:   21ff        movs r1, #255    ; 0xff
    3ba6:   f800 1c17   strb.w r1, [r0, #-23]
    3baa:   bd10        pop {r4, pc}
    3bac:   196c        adds r4, r5, r5
    3bae:   2000        movs r0, #0
    3bb0:   7e0c        ldrb r4, [r1, #24]
    3bb2:   0000        movs r0, r0
    3bb4:   0018        movs r0, r3
    3bb6:   2000        movs r0, #0
    3bb8:   006c        lsls r4, r5, #1
    3bba:   2000        movs r0, #0
    3bbc:   032c        lsls r4, r5, #12
    3bbe:   2000        movs r0, #0
    3bc0:   b510        push {r4, lr}
    3bc2:   f002 f933   bl 0x5e2c
    3bc6:   2100        movs r1, #0
    3bc8:   2031        movs r0, #49    ; 0x31
    3bca:   f000 facd   bl 0x4168
    3bce:   2100        movs r1, #0
    3bd0:   e8bd 4010   ldmia.w sp!, {r4, lr}
    3bd4:   2032        movs r0, #50    ; 0x32
    3bd6:   f000 bac7   b.w 0x4168
    3bda:   0000        movs r0, r0
    3bdc:   4904        ldr r1, [pc, #16]    ; (0x3bf0)
    3bde:   f248 0201   movw r2, #32769    ; 0x8001
    3be2:   800a        strh r2, [r1, #0]
    3be4:   7088        strb r0, [r1, #2]
    3be6:   20ff        movs r0, #255    ; 0xff
    3be8:   70c8        strb r0, [r1, #3]
    3bea:   f000 ba0f   b.w 0x400c
    3bee:   0000        movs r0, r0
    3bf0:   006c        lsls r4, r5, #1
    3bf2:   2000        movs r0, #0
    3bf4:   6281        str r1, [r0, #40]    ; 0x28
    3bf6:   4770        bx lr
    3bf8:   5040        str r0, [r0, r1]
    3bfa:   0304        lsls r4, r0, #12
    3bfc:   0001        movs r1, r0
    3bfe:   3400        adds r4, #0
    3c00:   0004        movs r4, r0
    3c02:   0002        movs r2, r0
    3c04:   b5f8        push {r3, r4, r5, r6, r7, lr}
    3c06:   4e45        ldr r6, [pc, #276]    ; (0x3d1c)
    3c08:   2400        movs r4, #0
    3c0a:   4d45        ldr r5, [pc, #276]    ; (0x3d20)
    3c0c:   7b30        ldrb r0, [r6, #12]
    3c0e:   2808        cmp r0, #8
    3c10:   d24a        bcs.n 0x3ca8
    3c12:   e8df f000   tbb [pc, r0]
    3c16:   0449        lsls r1, r1, #17
    3c18:   0404        lsls r4, r0, #16
    3c1a:   0f0d        lsrs r5, r1, #28
    3c1c:   164a        asrs r2, r1, #25
    3c1e:   4941        ldr r1, [pc, #260]    ; (0x3d24)
    3c20:   eb00 00c0   add.w r0, r0, r0, lsl #3
    3c24:   eb01 00c0   add.w r0, r1, r0, lsl #3
    3c28:   22ff        movs r2, #255    ; 0xff
    3c2a:   2148        movs r1, #72    ; 0x48
    3c2c:   3848        subs r0, #72    ; 0x48
    3c2e:   e004        b.n 0x3c3a
    3c30:   2280        movs r2, #128    ; 0x80
    3c32:   e000        b.n 0x3c36
    3c34:   22ff        movs r2, #255    ; 0xff
    3c36:   483b        ldr r0, [pc, #236]    ; (0x3d24)
    3c38:   21d8        movs r1, #216    ; 0xd8
    3c3a:   e8bd 40f8   ldmia.w sp!, {r3, r4, r5, r6, r7, lr}
    3c3e:   f7ff bccd   b.w 0x35dc
    3c42:   1de8        adds r0, r5, #7
    3c44:   f000 fa5a   bl 0x40fc
    3c48:   4837        ldr r0, [pc, #220]    ; (0x3d28)
    3c4a:   7800        ldrb r0, [r0, #0]
    3c4c:   282a        cmp r0, #42    ; 0x2a
    3c4e:   d00d        beq.n 0x3c6c
    3c50:   4836        ldr r0, [pc, #216]    ; (0x3d2c)
    3c52:   8801        ldrh r1, [r0, #0]
    3c54:   f5b1 7f00   cmp.w r1, #512    ; 0x200
    3c58:   d908        bls.n 0x3c6c
    3c5a:   7ab1        ldrb r1, [r6, #10]
    3c5c:   b119        cbz r1, 0x3c66
    3c5e:   8800        ldrh r0, [r0, #0]
    3c60:   0540        lsls r0, r0, #21
    3c62:   1200        asrs r0, r0, #8
    3c64:   0e01        lsrs r1, r0, #24
    3c66:   2031        movs r0, #49    ; 0x31
    3c68:   f000 fa7e   bl 0x4168
    3c6c:   2300        movs r3, #0
    3c6e:   2203        movs r2, #3
    3c70:   eb03 0043   add.w r0, r3, r3, lsl #1
    3c74:   1941        adds r1, r0, r5
    3c76:   79c8        ldrb r0, [r1, #7]
    3c78:   4290        cmp r0, r2
    3c7a:   d902        bls.n 0x3c82
    3c7c:   1a80        subs r0, r0, r2
    3c7e:   71c8        strb r0, [r1, #7]
    3c80:   e000        b.n 0x3c84
    3c82:   71cc        strb r4, [r1, #7]
    3c84:   7a08        ldrb r0, [r1, #8]
    3c86:   4290        cmp r0, r2
    3c88:   d902        bls.n 0x3c90
    3c8a:   1a80        subs r0, r0, r2
    3c8c:   7208        strb r0, [r1, #8]
    3c8e:   e000        b.n 0x3c92
    3c90:   720c        strb r4, [r1, #8]
    3c92:   7a48        ldrb r0, [r1, #9]
    3c94:   4290        cmp r0, r2
    3c96:   d902        bls.n 0x3c9e
    3c98:   1a80        subs r0, r0, r2
    3c9a:   7248        strb r0, [r1, #9]
    3c9c:   e000        b.n 0x3ca0
    3c9e:   724c        strb r4, [r1, #9]
    3ca0:   1c5b        adds r3, r3, #1
    3ca2:   b2db        uxtb r3, r3
    3ca4:   2b48        cmp r3, #72    ; 0x48
    3ca6:   d3e3        bcc.n 0x3c70
    3ca8:   bdf8        pop {r3, r4, r5, r6, r7, pc}
    3caa:   21d8        movs r1, #216    ; 0xd8
    3cac:   481d        ldr r0, [pc, #116]    ; (0x3d24)
    3cae:   f7ff fc9c   bl 0x35ea
    3cb2:   9400        str r4, [sp, #0]
    3cb4:   7928        ldrb r0, [r5, #4]
    3cb6:   b138        cbz r0, 0x3cc8
    3cb8:   2000        movs r0, #0
    3cba:   f000 f8cf   bl 0x3e5c
    3cbe:   21ff        movs r1, #255    ; 0xff
    3cc0:   b128        cbz r0, 0x3cce
    3cc2:   f88d 1001   strb.w r1, [sp, #1]
    3cc6:   e004        b.n 0x3cd2
    3cc8:   2001        movs r0, #1
    3cca:   7128        strb r0, [r5, #4]
    3ccc:   e7f5        b.n 0x3cba
    3cce:   f88d 1000   strb.w r1, [sp]
    3cd2:   4669        mov r1, sp
    3cd4:   2008        movs r0, #8
    3cd6:   f000 fa25   bl 0x4124
    3cda:   4d15        ldr r5, [pc, #84]    ; (0x3d30)
    3cdc:   4c15        ldr r4, [pc, #84]    ; (0x3d34)
    3cde:   7828        ldrb r0, [r5, #0]
    3ce0:   07c0        lsls r0, r0, #31
    3ce2:   d003        beq.n 0x3cec
    3ce4:   7fa0        ldrb r0, [r4, #30]
    3ce6:   21b4        movs r1, #180    ; 0xb4
    3ce8:   f000 fa3e   bl 0x4168
    3cec:   7828        ldrb r0, [r5, #0]
    3cee:   0780        lsls r0, r0, #30
    3cf0:   d503        bpl.n 0x3cfa
    3cf2:   7fe0        ldrb r0, [r4, #31]
    3cf4:   21b4        movs r1, #180    ; 0xb4
    3cf6:   f000 fa37   bl 0x4168
    3cfa:   7828        ldrb r0, [r5, #0]
    3cfc:   0740        lsls r0, r0, #29
    3cfe:   d504        bpl.n 0x3d0a
    3d00:   f894 0020   ldrb.w r0, [r4, #32]
    3d04:   21b4        movs r1, #180    ; 0xb4
    3d06:   f000 fa2f   bl 0x4168
    3d0a:   7828        ldrb r0, [r5, #0]
    3d0c:   0700        lsls r0, r0, #28
    3d0e:   d5cb        bpl.n 0x3ca8
    3d10:   f894 0021   ldrb.w r0, [r4, #33]    ; 0x21
    3d14:   21b4        movs r1, #180    ; 0xb4
    3d16:   f000 fa27   bl 0x4168
    3d1a:   bdf8        pop {r3, r4, r5, r6, r7, pc}
    3d1c:   0644        lsls r4, r0, #25
    3d1e:   2000        movs r0, #0
    3d20:   00ac        lsls r4, r5, #2
    3d22:   2000        movs r0, #0
    3d24:   032c        lsls r4, r5, #12
    3d26:   2000        movs r0, #0
    3d28:   0038        movs r0, r7
    3d2a:   2000        movs r0, #0
    3d2c:   0028        movs r0, r5
    3d2e:   2000        movs r0, #0
    3d30:   000d        movs r5, r1
    3d32:   2000        movs r0, #0
    3d34:   01de        lsls r6, r3, #7
    3d36:   2000        movs r0, #0
    3d38:   b570        push {r4, r5, r6, lr}
    3d3a:   f003 f933   bl 0x6fa4
    3d3e:   4d2b        ldr r5, [pc, #172]    ; (0x3dec)
    3d40:   4c2b        ldr r4, [pc, #172]    ; (0x3df0)
    3d42:   7a28        ldrb r0, [r5, #8]
    3d44:   b1e8        cbz r0, 0x3d82
    3d46:   79a8        ldrb r0, [r5, #6]
    3d48:   b910        cbnz r0, 0x3d50
    3d4a:   f001 fc19   bl 0x5580
    3d4e:   b1c0        cbz r0, 0x3d82
    3d50:   79a8        ldrb r0, [r5, #6]
    3d52:   b108        cbz r0, 0x3d58
    3d54:   4827        ldr r0, [pc, #156]    ; (0x3df4)
    3d56:   e001        b.n 0x3d5c
    3d58:   4827        ldr r0, [pc, #156]    ; (0x3df8)
    3d5a:   6800        ldr r0, [r0, #0]
    3d5c:   7801        ldrb r1, [r0, #0]
    3d5e:   70e1        strb r1, [r4, #3]
    3d60:   2100        movs r1, #0
    3d62:   f884 104b   strb.w r1, [r4, #75]    ; 0x4b
    3d66:   f884 1093   strb.w r1, [r4, #147]    ; 0x93
    3d6a:   72a1        strb r1, [r4, #10]
    3d6c:   7842        ldrb r2, [r0, #1]
    3d6e:   f884 2052   strb.w r2, [r4, #82]    ; 0x52
    3d72:   f884 109a   strb.w r1, [r4, #154]    ; 0x9a
    3d76:   72e1        strb r1, [r4, #11]
    3d78:   f884 1053   strb.w r1, [r4, #83]    ; 0x53
    3d7c:   7880        ldrb r0, [r0, #2]
    3d7e:   f884 009b   strb.w r0, [r4, #155]    ; 0x9b
    3d82:   79a8        ldrb r0, [r5, #6]
    3d84:   b118        cbz r0, 0x3d8e
    3d86:   491b        ldr r1, [pc, #108]    ; (0x3df4)
    3d88:   2008        movs r0, #8
    3d8a:   f000 f9cb   bl 0x4124
    3d8e:   7aa8        ldrb r0, [r5, #10]
    3d90:   4d1a        ldr r5, [pc, #104]    ; (0x3dfc)
    3d92:   b140        cbz r0, 0x3da6
    3d94:   481a        ldr r0, [pc, #104]    ; (0x3e00)
    3d96:   8800        ldrh r0, [r0, #0]
    3d98:   0540        lsls r0, r0, #21
    3d9a:   1200        asrs r0, r0, #8
    3d9c:   0e01        lsrs r1, r0, #24
    3d9e:   2031        movs r0, #49    ; 0x31
    3da0:   f000 f9e2   bl 0x4168
    3da4:   e00c        b.n 0x3dc0
    3da6:   2100        movs r1, #0
    3da8:   2031        movs r0, #49    ; 0x31
    3daa:   f000 f9dd   bl 0x4168
    3dae:   78a8        ldrb r0, [r5, #2]
    3db0:   b130        cbz r0, 0x3dc0
    3db2:   eb00 00c0   add.w r0, r0, r0, lsl #3
    3db6:   eb04 00c0   add.w r0, r4, r0, lsl #3
    3dba:   21ff        movs r1, #255    ; 0xff
    3dbc:   f800 1c17   strb.w r1, [r0, #-23]
    3dc0:   4810        ldr r0, [pc, #64]    ; (0x3e04)
    3dc2:   7800        ldrb r0, [r0, #0]
    3dc4:   07c0        lsls r0, r0, #31
    3dc6:   d00b        beq.n 0x3de0
    3dc8:   78a8        ldrb r0, [r5, #2]
    3dca:   b148        cbz r0, 0x3de0
    3dcc:   480e        ldr r0, [pc, #56]    ; (0x3e08)
    3dce:   8840        ldrh r0, [r0, #2]
    3dd0:   0540        lsls r0, r0, #21
    3dd2:   d505        bpl.n 0x3de0
    3dd4:   e8bd 4070   ldmia.w sp!, {r4, r5, r6, lr}
    3dd8:   490c        ldr r1, [pc, #48]    ; (0x3e0c)
    3dda:   2032        movs r0, #50    ; 0x32
    3ddc:   f000 b9a2   b.w 0x4124
    3de0:   e8bd 4070   ldmia.w sp!, {r4, r5, r6, lr}
    3de4:   2100        movs r1, #0
    3de6:   2032        movs r0, #50    ; 0x32
    3de8:   f000 b9be   b.w 0x4168
    3dec:   0644        lsls r4, r0, #25
    3dee:   2000        movs r0, #0
    3df0:   032c        lsls r4, r5, #12
    3df2:   2000        movs r0, #0
    3df4:   0010        movs r0, r2
    3df6:   2000        movs r0, #0
    3df8:   00ac        lsls r4, r5, #2
    3dfa:   2000        movs r0, #0
    3dfc:   006c        lsls r4, r5, #1
    3dfe:   2000        movs r0, #0
    3e00:   0028        movs r0, r5
    3e02:   2000        movs r0, #0
    3e04:   0003        movs r3, r0
    3e06:   2000        movs r0, #0
    3e08:   0018        movs r0, r3
    3e0a:   2000        movs r0, #0
    3e0c:   7e12        ldrb r2, [r2, #24]
    3e0e:   0000        movs r0, r0
    3e10:   460b        mov r3, r1
    3e12:   4910        ldr r1, [pc, #64]    ; (0x3e54)
    3e14:   b510        push {r4, lr}
    3e16:   7889        ldrb r1, [r1, #2]
    3e18:   2900        cmp r1, #0
    3e1a:   d01a        beq.n 0x3e52
    3e1c:   eb01 0141   add.w r1, r1, r1, lsl #1
    3e20:   eb00 1441   add.w r4, r0, r1, lsl #5
    3e24:   3c60        subs r4, #96    ; 0x60
    3e26:   08a0        lsrs r0, r4, #2
    3e28:   0301        lsls r1, r0, #12
    3e2a:   480b        ldr r0, [pc, #44]    ; (0x3e58)
    3e2c:   f44f 5280   mov.w r2, #4096    ; 0x1000
    3e30:   f501 41a0   add.w r1, r1, #20480    ; 0x5000
    3e34:   b11b        cbz r3, 0x3e3e
    3e36:   e8bd 4010   ldmia.w sp!, {r4, lr}
    3e3a:   f003 b88d   b.w 0x6f58
    3e3e:   f000 fadd   bl 0x43fc
    3e42:   4905        ldr r1, [pc, #20]    ; (0x3e58)
    3e44:   f004 0003   and.w r0, r4, #3
    3e48:   eb01 2080   add.w r0, r1, r0, lsl #10
    3e4c:   4901        ldr r1, [pc, #4]    ; (0x3e54)
    3e4e:   1f09        subs r1, r1, #4
    3e50:   6008        str r0, [r1, #0]
    3e52:   bd10        pop {r4, pc}
    3e54:   006c        lsls r4, r5, #1
    3e56:   2000        movs r0, #0
    3e58:   0968        lsrs r0, r5, #5
    3e5a:   2000        movs r0, #0
    3e5c:   b538        push {r3, r4, r5, lr}
    3e5e:   4605        mov r5, r0
    3e60:   2202        movs r2, #2
    3e62:   2100        movs r1, #0
    3e64:   4668        mov r0, sp
    3e66:   f000 fac9   bl 0x43fc
    3e6a:   f8bd 1000   ldrh.w r1, [sp]
    3e6e:   f248 0401   movw r4, #32769    ; 0x8001
    3e72:   42a1        cmp r1, r4
    3e74:   d00f        beq.n 0x3e96
    3e76:   b165        cbz r5, 0x3e92
    3e78:   4808        ldr r0, [pc, #32]    ; (0x3e9c)
    3e7a:   7880        ldrb r0, [r0, #2]
    3e7c:   f7ff feae   bl 0x3bdc
    3e80:   2202        movs r2, #2
    3e82:   2100        movs r1, #0
    3e84:   4668        mov r0, sp
    3e86:   f000 fab9   bl 0x43fc
    3e8a:   f8bd 0000   ldrh.w r0, [sp]
    3e8e:   42a0        cmp r0, r4
    3e90:   d001        beq.n 0x3e96
    3e92:   2000        movs r0, #0
    3e94:   bd38        pop {r3, r4, r5, pc}
    3e96:   2001        movs r0, #1
    3e98:   bd38        pop {r3, r4, r5, pc}
    3e9a:   0000        movs r0, r0
    3e9c:   006c        lsls r4, r5, #1
    3e9e:   2000        movs r0, #0
    3ea0:   b570        push {r4, r5, r6, lr}
    3ea2:   4604        mov r4, r0
    3ea4:   2204        movs r2, #4
    3ea6:   2100        movs r1, #0
    3ea8:   481b        ldr r0, [pc, #108]    ; (0x3f18)
    3eaa:   f000 faa7   bl 0x43fc
    3eae:   4d1a        ldr r5, [pc, #104]    ; (0x3f18)
    3eb0:   f248 0101   movw r1, #32769    ; 0x8001
    3eb4:   8828        ldrh r0, [r5, #0]
    3eb6:   4288        cmp r0, r1
    3eb8:   d00b        beq.n 0x3ed2
    3eba:   f5b0 5f80   cmp.w r0, #4096    ; 0x1000
    3ebe:   d201        bcs.n 0x3ec4
    3ec0:   78ac        ldrb r4, [r5, #2]
    3ec2:   e002        b.n 0x3eca
    3ec4:   2cff        cmp r4, #255    ; 0xff
    3ec6:   d100        bne.n 0x3eca
    3ec8:   2400        movs r4, #0
    3eca:   4620        mov r0, r4
    3ecc:   f7ff fe86   bl 0x3bdc
    3ed0:   e007        b.n 0x3ee2
    3ed2:   2cff        cmp r4, #255    ; 0xff
    3ed4:   d005        beq.n 0x3ee2
    3ed6:   78a8        ldrb r0, [r5, #2]
    3ed8:   42a0        cmp r0, r4
    3eda:   d002        beq.n 0x3ee2
    3edc:   70ac        strb r4, [r5, #2]
    3ede:   f000 f895   bl 0x400c
    3ee2:   78a8        ldrb r0, [r5, #2]
    3ee4:   2202        movs r2, #2
    3ee6:   0301        lsls r1, r0, #12
    3ee8:   480c        ldr r0, [pc, #48]    ; (0x3f1c)
    3eea:   f501 5180   add.w r1, r1, #4096    ; 0x1000
    3eee:   f000 fa85   bl 0x43fc
    3ef2:   480a        ldr r0, [pc, #40]    ; (0x3f1c)
    3ef4:   8800        ldrh r0, [r0, #0]
    3ef6:   280d        cmp r0, #13
    3ef8:   d003        beq.n 0x3f02
    3efa:   e8bd 4070   ldmia.w sp!, {r4, r5, r6, lr}
    3efe:   f000 b80f   b.w 0x3f20
    3f02:   78a8        ldrb r0, [r5, #2]
    3f04:   e8bd 4070   ldmia.w sp!, {r4, r5, r6, lr}
    3f08:   0301        lsls r1, r0, #12
    3f0a:   f44f 7218   mov.w r2, #608    ; 0x260
    3f0e:   4803        ldr r0, [pc, #12]    ; (0x3f1c)
    3f10:   f501 5180   add.w r1, r1, #4096    ; 0x1000
    3f14:   f000 ba72   b.w 0x43fc
    3f18:   006c        lsls r4, r5, #1
    3f1a:   2000        movs r0, #0
    3f1c:   0708        lsls r0, r1, #28
    3f1e:   2000        movs r0, #0
    3f20:   490a        ldr r1, [pc, #40]    ; (0x3f4c)
    3f22:   b510        push {r4, lr}
    3f24:   200d        movs r0, #13
    3f26:   8008        strh r0, [r1, #0]
    3f28:   4808        ldr r0, [pc, #32]    ; (0x3f4c)
    3f2a:   22ff        movs r2, #255    ; 0xff
    3f2c:   21c0        movs r1, #192    ; 0xc0
    3f2e:   3028        adds r0, #40    ; 0x28
    3f30:   f7ff fb54   bl 0x35dc
    3f34:   4805        ldr r0, [pc, #20]    ; (0x3f4c)
    3f36:   22ff        movs r2, #255    ; 0xff
    3f38:   218c        movs r1, #140    ; 0x8c
    3f3a:   30f0        adds r0, #240    ; 0xf0
    3f3c:   f7ff fb4e   bl 0x35dc
    3f40:   f000 f820   bl 0x3f84
    3f44:   e8bd 4010   ldmia.w sp!, {r4, lr}
    3f48:   f000 b850   b.w 0x3fec
    3f4c:   0708        lsls r0, r1, #28
    3f4e:   2000        movs r0, #0
    3f50:   b510        push {r4, lr}
    3f52:   4c0b        ldr r4, [pc, #44]    ; (0x3f80)
    3f54:   2000        movs r0, #0
    3f56:   70a0        strb r0, [r4, #2]
    3f58:   f7ff ffe2   bl 0x3f20
    3f5c:   78a0        ldrb r0, [r4, #2]
    3f5e:   1c40        adds r0, r0, #1
    3f60:   b2c0        uxtb r0, r0
    3f62:   70a0        strb r0, [r4, #2]
    3f64:   2804        cmp r0, #4
    3f66:   d202        bcs.n 0x3f6e
    3f68:   f000 f840   bl 0x3fec
    3f6c:   e7f6        b.n 0x3f5c
    3f6e:   2000        movs r0, #0
    3f70:   f7ff fe34   bl 0x3bdc
    3f74:   e8bd 4010   ldmia.w sp!, {r4, lr}
    3f78:   20ff        movs r0, #255    ; 0xff
    3f7a:   f7ff bf91   b.w 0x3ea0
    3f7e:   0000        movs r0, r0
    3f80:   006c        lsls r4, r5, #1
    3f82:   2000        movs r0, #0
    3f84:   b570        push {r4, r5, r6, lr}
    3f86:   4c15        ldr r4, [pc, #84]    ; (0x3fdc)
    3f88:   4915        ldr r1, [pc, #84]    ; (0x3fe0)
    3f8a:   2500        movs r5, #0
    3f8c:   70a5        strb r5, [r4, #2]
    3f8e:   f104 0080   add.w r0, r4, #128    ; 0x80
    3f92:   680a        ldr r2, [r1, #0]
    3f94:   6682        str r2, [r0, #104]    ; 0x68
    3f96:   6849        ldr r1, [r1, #4]
    3f98:   66c1        str r1, [r0, #108]    ; 0x6c
    3f9a:   2007        movs r0, #7
    3f9c:   70e0        strb r0, [r4, #3]
    3f9e:   1d22        adds r2, r4, #4
    3fa0:   4603        mov r3, r0
    3fa2:   e009        b.n 0x3fb8
    3fa4:   490f        ldr r1, [pc, #60]    ; (0x3fe4)
    3fa6:   2005        movs r0, #5
    3fa8:   e003        b.n 0x3fb2
    3faa:   f811 6b01   ldrb.w r6, [r1], #1
    3fae:   f802 6b01   strb.w r6, [r2], #1
    3fb2:   1e40        subs r0, r0, #1
    3fb4:   b2c0        uxtb r0, r0
    3fb6:   d2f8        bcs.n 0x3faa
    3fb8:   1e5b        subs r3, r3, #1
    3fba:   b2db        uxtb r3, r3
    3fbc:   d2f2        bcs.n 0x3fa4
    3fbe:   2000        movs r0, #0
    3fc0:   f002 f9da   bl 0x6378
    3fc4:   2003        movs r0, #3
    3fc6:   7460        strb r0, [r4, #17]
    3fc8:   21d8        movs r1, #216    ; 0xd8
    3fca:   4807        ldr r0, [pc, #28]    ; (0x3fe8)
    3fcc:   f7ff fb0d   bl 0x35ea
    3fd0:   4805        ldr r0, [pc, #20]    ; (0x3fe8)
    3fd2:   3084        adds r0, #132    ; 0x84
    3fd4:   6545        str r5, [r0, #84]    ; 0x54
    3fd6:   6585        str r5, [r0, #88]    ; 0x58
    3fd8:   65c5        str r5, [r0, #92]    ; 0x5c
    3fda:   bd70        pop {r4, r5, r6, pc}
    3fdc:   0708        lsls r0, r1, #28
    3fde:   2000        movs r0, #0
    3fe0:   7d88        ldrb r0, [r1, #22]
    3fe2:   0000        movs r0, r0
    3fe4:   841c        strh r4, [r3, #32]
    3fe6:   0000        movs r0, r0
    3fe8:   0884        lsrs r4, r0, #2
    3fea:   2000        movs r0, #0
    3fec:   4801        ldr r0, [pc, #4]    ; (0x3ff4)
    3fee:   7880        ldrb r0, [r0, #2]
    3ff0:   f000 b802   b.w 0x3ff8
    3ff4:   006c        lsls r4, r5, #1
    3ff6:   2000        movs r0, #0
    3ff8:   0301        lsls r1, r0, #12
    3ffa:   f44f 7218   mov.w r2, #608    ; 0x260
    3ffe:   4802        ldr r0, [pc, #8]    ; (0x4008)
    4000:   f501 5180   add.w r1, r1, #4096    ; 0x1000
    4004:   f002 bfa8   b.w 0x6f58
    4008:   0708        lsls r0, r1, #28
    400a:   2000        movs r0, #0
    400c:   2204        movs r2, #4
    400e:   2100        movs r1, #0
    4010:   4801        ldr r0, [pc, #4]    ; (0x4018)
    4012:   f002 bfa1   b.w 0x6f58
    4016:   0000        movs r0, r0
    4018:   006c        lsls r4, r5, #1
    401a:   2000        movs r0, #0
    401c:   b510        push {r4, lr}
    401e:   4602        mov r2, r0
    4020:   2100        movs r1, #0
    4022:   4b06        ldr r3, [pc, #24]    ; (0x403c)
    4024:   4608        mov r0, r1
    4026:   f813 4011   ldrb.w r4, [r3, r1, lsl #1]
    402a:   4294        cmp r4, r2
    402c:   d100        bne.n 0x4030
    402e:   4608        mov r0, r1
    4030:   1c49        adds r1, r1, #1
    4032:   b2c9        uxtb r1, r1
    4034:   291f        cmp r1, #31
    4036:   d3f6        bcc.n 0x4026
    4038:   bd10        pop {r4, pc}
    403a:   0000        movs r0, r0
    403c:   7dc9        ldrb r1, [r1, #23]
    403e:   0000        movs r0, r0
    4040:   eb00 00d1   add.w r0, r0, r1, lsr #3
    4044:   f001 0307   and.w r3, r1, #7
    4048:   2101        movs r1, #1
    404a:   4099        lsls r1, r3
    404c:   2a00        cmp r2, #0
    404e:   7802        ldrb r2, [r0, #0]
    4050:   b2c9        uxtb r1, r1
    4052:   d001        beq.n 0x4058
    4054:   430a        orrs r2, r1
    4056:   e000        b.n 0x405a
    4058:   438a        bics r2, r1
    405a:   7002        strb r2, [r0, #0]
    405c:   4770        bx lr
    405e:   b570        push {r4, r5, r6, lr}
    4060:   4606        mov r6, r0
    4062:   2500        movs r5, #0
    4064:   2403        movs r4, #3
    4066:   e005        b.n 0x4074
    4068:   f7ff fa94   bl 0x3594
    406c:   b2c0        uxtb r0, r0
    406e:   5530        strb r0, [r6, r4]
    4070:   4428        add r0, r5
    4072:   b285        uxth r5, r0
    4074:   1e64        subs r4, r4, #1
    4076:   b2e4        uxtb r4, r4
    4078:   d2f6        bcs.n 0x4068
    407a:   2de0        cmp r5, #224    ; 0xe0
    407c:   d3f1        bcc.n 0x4062
    407e:   bd70        pop {r4, r5, r6, pc}
    4080:   b530        push {r4, r5, lr}
    4082:   004b        lsls r3, r1, #1
    4084:   2bff        cmp r3, #255    ; 0xff
    4086:   d902        bls.n 0x408e
    4088:   f5c3 73ff   rsb r3, r3, #510    ; 0x1fe
    408c:   b29b        uxth r3, r3
    408e:   242b        movs r4, #43    ; 0x2b
    4090:   fbb0 f4f4   udiv r4, r0, r4
    4094:   2555        movs r5, #85    ; 0x55
    4096:   fb04 0005   mla r0, r4, r5, r0
    409a:   eba1 0153   sub.w r1, r1, r3, lsr #1
    409e:   b2c9        uxtb r1, r1
    40a0:   eb00 0040   add.w r0, r0, r0, lsl #1
    40a4:   7011        strb r1, [r2, #0]
    40a6:   0640        lsls r0, r0, #25
    40a8:   7051        strb r1, [r2, #1]
    40aa:   0e00        lsrs r0, r0, #24
    40ac:   7091        strb r1, [r2, #2]
    40ae:   07e5        lsls r5, r4, #31
    40b0:   d001        beq.n 0x40b6
    40b2:   f1c0 00ff   rsb r0, r0, #255    ; 0xff
    40b6:   4358        muls r0, r3
    40b8:   f3c0 2007   ubfx r0, r0, #8, #8
    40bc:   2c05        cmp r4, #5
    40be:   d219        bcs.n 0x40f4
    40c0:   e8df f004   tbb [pc, r4]
    40c4:   0703        lsls r3, r0, #28
    40c6:   100c        asrs r4, r1, #32
    40c8:   0013        movs r3, r2
    40ca:   440b        add r3, r1
    40cc:   7013        strb r3, [r2, #0]
    40ce:   4408        add r0, r1
    40d0:   e002        b.n 0x40d8
    40d2:   4408        add r0, r1
    40d4:   7010        strb r0, [r2, #0]
    40d6:   18c8        adds r0, r1, r3
    40d8:   7050        strb r0, [r2, #1]
    40da:   bd30        pop {r4, r5, pc}
    40dc:   440b        add r3, r1
    40de:   7053        strb r3, [r2, #1]
    40e0:   4408        add r0, r1
    40e2:   e005        b.n 0x40f0
    40e4:   4408        add r0, r1
    40e6:   7050        strb r0, [r2, #1]
    40e8:   e001        b.n 0x40ee
    40ea:   4408        add r0, r1
    40ec:   7010        strb r0, [r2, #0]
    40ee:   18c8        adds r0, r1, r3
    40f0:   7090        strb r0, [r2, #2]
    40f2:   bd30        pop {r4, r5, pc}
    40f4:   440b        add r3, r1
    40f6:   7013        strb r3, [r2, #0]
    40f8:   e7f2        b.n 0x40e0
    40fa:   0000        movs r0, r0
    40fc:   b510        push {r4, lr}
    40fe:   4908        ldr r1, [pc, #32]    ; (0x4120)
    4100:   2348        movs r3, #72    ; 0x48
    4102:   e009        b.n 0x4118
    4104:   2203        movs r2, #3
    4106:   e003        b.n 0x4110
    4108:   f810 4b01   ldrb.w r4, [r0], #1
    410c:   f801 4b48   strb.w r4, [r1], #72
    4110:   1e52        subs r2, r2, #1
    4112:   b2d2        uxtb r2, r2
    4114:   d2f8        bcs.n 0x4108
    4116:   39d7        subs r1, #215    ; 0xd7
    4118:   1e5b        subs r3, r3, #1
    411a:   b2db        uxtb r3, r3
    411c:   d2f2        bcs.n 0x4104
    411e:   bd10        pop {r4, pc}
    4120:   032c        lsls r4, r5, #12
    4122:   2000        movs r0, #0
    4124:   28ff        cmp r0, #255    ; 0xff
    4126:   d00a        beq.n 0x413e
    4128:   4a05        ldr r2, [pc, #20]    ; (0x4140)
    412a:   4402        add r2, r0
    412c:   2000        movs r0, #0
    412e:   1c40        adds r0, r0, #1
    4130:   f811 3b01   ldrb.w r3, [r1], #1
    4134:   b2c0        uxtb r0, r0
    4136:   f802 3b48   strb.w r3, [r2], #72
    413a:   2803        cmp r0, #3
    413c:   d3f7        bcc.n 0x412e
    413e:   4770        bx lr
    4140:   032c        lsls r4, r5, #12
    4142:   2000        movs r0, #0
    4144:   b570        push {r4, r5, r6, lr}
    4146:   4605        mov r5, r0
    4148:   4e06        ldr r6, [pc, #24]    ; (0x4164)
    414a:   2403        movs r4, #3
    414c:   e006        b.n 0x415c
    414e:   782a        ldrb r2, [r5, #0]
    4150:   2148        movs r1, #72    ; 0x48
    4152:   4630        mov r0, r6
    4154:   f7ff fa42   bl 0x35dc
    4158:   1c6d        adds r5, r5, #1
    415a:   3648        adds r6, #72    ; 0x48
    415c:   1e64        subs r4, r4, #1
    415e:   b2e4        uxtb r4, r4
    4160:   d2f5        bcs.n 0x414e
    4162:   bd70        pop {r4, r5, r6, pc}
    4164:   032c        lsls r4, r5, #12
    4166:   2000        movs r0, #0
    4168:   28ff        cmp r0, #255    ; 0xff
    416a:   d008        beq.n 0x417e
    416c:   4a04        ldr r2, [pc, #16]    ; (0x4180)
    416e:   4410        add r0, r2
    4170:   2203        movs r2, #3
    4172:   e001        b.n 0x4178
    4174:   f800 1b48   strb.w r1, [r0], #72
    4178:   1e52        subs r2, r2, #1
    417a:   b2d2        uxtb r2, r2
    417c:   d2fa        bcs.n 0x4174
    417e:   4770        bx lr
    4180:   032c        lsls r4, r5, #12
    4182:   2000        movs r0, #0
    4184:   b57c        push {r2, r3, r4, r5, r6, lr}
    4186:   2005        movs r0, #5
    4188:   4c06        ldr r4, [pc, #24]    ; (0x41a4)
    418a:   f8ad 0000   strh.w r0, [sp]
    418e:   2540        movs r5, #64    ; 0x40
    4190:   62a5        str r5, [r4, #40]    ; 0x28
    4192:   2202        movs r2, #2
    4194:   a901        add r1, sp, #4
    4196:   4668        mov r0, sp
    4198:   f000 f950   bl 0x443c
    419c:   6265        str r5, [r4, #36]    ; 0x24
    419e:   f89d 0005   ldrb.w r0, [sp, #5]
    41a2:   bd7c        pop {r2, r3, r4, r5, r6, pc}
    41a4:   2000        movs r0, #0
    41a6:   400b        ands r3, r1
    41a8:   b530        push {r4, r5, lr}
    41aa:   b08b        sub sp, #44    ; 0x2c
    41ac:   f000 f83e   bl 0x422c
    41b0:   4d18        ldr r5, [pc, #96]    ; (0x4214)
    41b2:   7828        ldrb r0, [r5, #0]
    41b4:   2801        cmp r0, #1
    41b6:   d12a        bne.n 0x420e
    41b8:   2400        movs r4, #0
    41ba:   4622        mov r2, r4
    41bc:   2120        movs r1, #32
    41be:   2301        movs r3, #1
    41c0:   4610        mov r0, r2
    41c2:   f7ff fb9f   bl 0x3904
    41c6:   f44f 4080   mov.w r0, #16384    ; 0x4000
    41ca:   9000        str r0, [sp, #0]
    41cc:   1100        asrs r0, r0, #4
    41ce:   9001        str r0, [sp, #4]
    41d0:   2008        movs r0, #8
    41d2:   e9cd 0402   strd r0, r4, [sp, #8]
    41d6:   9404        str r4, [sp, #16]
    41d8:   9405        str r4, [sp, #20]
    41da:   2004        movs r0, #4
    41dc:   9406        str r4, [sp, #24]
    41de:   e9cd 4007   strd r4, r0, [sp, #28]
    41e2:   4c0d        ldr r4, [pc, #52]    ; (0x4218)
    41e4:   9009        str r0, [sp, #36]    ; 0x24
    41e6:   900a        str r0, [sp, #40]    ; 0x28
    41e8:   4669        mov r1, sp
    41ea:   4620        mov r0, r4
    41ec:   f002 faf4   bl 0x67d8
    41f0:   2101        movs r1, #1
    41f2:   4620        mov r0, r4
    41f4:   f002 fb15   bl 0x6822
    41f8:   4a08        ldr r2, [pc, #32]    ; (0x421c)
    41fa:   2140        movs r1, #64    ; 0x40
    41fc:   6251        str r1, [r2, #36]    ; 0x24
    41fe:   2101        movs r1, #1
    4200:   4620        mov r0, r4
    4202:   f002 fadf   bl 0x67c4
    4206:   f000 f85b   bl 0x42c0
    420a:   2002        movs r0, #2
    420c:   7028        strb r0, [r5, #0]
    420e:   b00b        add sp, #44    ; 0x2c
    4210:   2001        movs r0, #1
    4212:   bd30        pop {r4, r5, pc}
    4214:   0024        movs r4, r4
    4216:   2000        movs r0, #0
    4218:   4000        ands r0, r0
    421a:   4004        ands r4, r0
    421c:   2000        movs r0, #0
    421e:   400b        ands r3, r1
    4220:   b510        push {r4, lr}
    4222:   f7ff ffaf   bl 0x4184
    4226:   f3c0 0000   ubfx r0, r0, #0, #1
    422a:   bd10        pop {r4, pc}
    422c:   b570        push {r4, r5, r6, lr}
    422e:   4c11        ldr r4, [pc, #68]    ; (0x4274)
    4230:   7820        ldrb r0, [r4, #0]
    4232:   b9e8        cbnz r0, 0x4270
    4234:   2100        movs r1, #0
    4236:   f44f 3000   mov.w r0, #131072    ; 0x20000
    423a:   2301        movs r3, #1
    423c:   460a        mov r2, r1
    423e:   f7ff fb61   bl 0x3904
    4242:   4d0d        ldr r5, [pc, #52]    ; (0x4278)
    4244:   2200        movs r2, #0
    4246:   2140        movs r1, #64    ; 0x40
    4248:   4628        mov r0, r5
    424a:   f000 f9d5   bl 0x45f8
    424e:   2201        movs r2, #1
    4250:   2140        movs r1, #64    ; 0x40
    4252:   4628        mov r0, r5
    4254:   f000 f9b8   bl 0x45c8
    4258:   2201        movs r2, #1
    425a:   2180        movs r1, #128    ; 0x80
    425c:   4628        mov r0, r5
    425e:   f000 f9b3   bl 0x45c8
    4262:   2201        movs r2, #1
    4264:   0211        lsls r1, r2, #8
    4266:   4628        mov r0, r5
    4268:   f000 f9ae   bl 0x45c8
    426c:   2001        movs r0, #1
    426e:   7020        strb r0, [r4, #0]
    4270:   2001        movs r0, #1
    4272:   bd70        pop {r4, r5, r6, pc}
    4274:   0024        movs r4, r4
    4276:   2000        movs r0, #0
    4278:   2000        movs r0, #0
    427a:   400b        ands r3, r1
    427c:   b510        push {r4, lr}
    427e:   f000 f8a9   bl 0x43d4
    4282:   4c0e        ldr r4, [pc, #56]    ; (0x42bc)
    4284:   2200        movs r2, #0
    4286:   2140        movs r1, #64    ; 0x40
    4288:   4620        mov r0, r4
    428a:   f000 f9b5   bl 0x45f8
    428e:   2200        movs r2, #0
    4290:   2140        movs r1, #64    ; 0x40
    4292:   4620        mov r0, r4
    4294:   f000 f990   bl 0x45b8
    4298:   2200        movs r2, #0
    429a:   2107        movs r1, #7
    429c:   2001        movs r0, #1
    429e:   f7ff fabb   bl 0x3818
    42a2:   2200        movs r2, #0
    42a4:   2108        movs r1, #8
    42a6:   2001        movs r0, #1
    42a8:   f7ff fab6   bl 0x3818
    42ac:   2200        movs r2, #0
    42ae:   2109        movs r1, #9
    42b0:   e8bd 4010   ldmia.w sp!, {r4, lr}
    42b4:   2001        movs r0, #1
    42b6:   f7ff baaf   b.w 0x3818
    42ba:   0000        movs r0, r0
    42bc:   2000        movs r0, #0
    42be:   400b        ands r3, r1
    42c0:   b510        push {r4, lr}
    42c2:   4c0f        ldr r4, [pc, #60]    ; (0x4300)
    42c4:   2201        movs r2, #1
    42c6:   2140        movs r1, #64    ; 0x40
    42c8:   4620        mov r0, r4
    42ca:   f000 f975   bl 0x45b8
    42ce:   2202        movs r2, #2
    42d0:   2140        movs r1, #64    ; 0x40
    42d2:   4620        mov r0, r4
    42d4:   f000 f990   bl 0x45f8
    42d8:   2205        movs r2, #5
    42da:   2107        movs r1, #7
    42dc:   2001        movs r0, #1
    42de:   f7ff fa9b   bl 0x3818
    42e2:   2205        movs r2, #5
    42e4:   2108        movs r1, #8
    42e6:   2001        movs r0, #1
    42e8:   f7ff fa96   bl 0x3818
    42ec:   2205        movs r2, #5
    42ee:   2109        movs r1, #9
    42f0:   2001        movs r0, #1
    42f2:   f7ff fa91   bl 0x3818
    42f6:   e8bd 4010   ldmia.w sp!, {r4, lr}
    42fa:   f000 b8eb   b.w 0x44d4
    42fe:   0000        movs r0, r0
    4300:   2000        movs r0, #0
    4302:   400b        ands r3, r1
    4304:   e92d 43f8   stmdb sp!, {r3, r4, r5, r6, r7, r8, r9, lr}
    4308:   4617        mov r7, r2
    430a:   460c        mov r4, r1
    430c:   4680        mov r8, r0
    430e:   f000 f931   bl 0x4574
    4312:   4e0d        ldr r6, [pc, #52]    ; (0x4348)
    4314:   2540        movs r5, #64    ; 0x40
    4316:   62b5        str r5, [r6, #40]    ; 0x28
    4318:   2002        movs r0, #2
    431a:   f88d 0000   strb.w r0, [sp]
    431e:   0c20        lsrs r0, r4, #16
    4320:   f88d 0001   strb.w r0, [sp, #1]
    4324:   0a20        lsrs r0, r4, #8
    4326:   f88d 0002   strb.w r0, [sp, #2]
    432a:   f88d 4003   strb.w r4, [sp, #3]
    432e:   2204        movs r2, #4
    4330:   2100        movs r1, #0
    4332:   4668        mov r0, sp
    4334:   f000 f882   bl 0x443c
    4338:   463a        mov r2, r7
    433a:   2100        movs r1, #0
    433c:   4640        mov r0, r8
    433e:   f000 f87d   bl 0x443c
    4342:   6275        str r5, [r6, #36]    ; 0x24
    4344:   e8bd 83f8   ldmia.w sp!, {r3, r4, r5, r6, r7, r8, r9, pc}
    4348:   2000        movs r0, #0
    434a:   400b        ands r3, r1
    434c:   b5f8        push {r3, r4, r5, r6, r7, lr}
    434e:   4604        mov r4, r0
    4350:   f000 f910   bl 0x4574
    4354:   4e0a        ldr r6, [pc, #40]    ; (0x4380)
    4356:   2540        movs r5, #64    ; 0x40
    4358:   62b5        str r5, [r6, #40]    ; 0x28
    435a:   2020        movs r0, #32
    435c:   f88d 0000   strb.w r0, [sp]
    4360:   0c20        lsrs r0, r4, #16
    4362:   f88d 0001   strb.w r0, [sp, #1]
    4366:   0a20        lsrs r0, r4, #8
    4368:   f88d 0002   strb.w r0, [sp, #2]
    436c:   f88d 4003   strb.w r4, [sp, #3]
    4370:   2204        movs r2, #4
    4372:   2100        movs r1, #0
    4374:   4668        mov r0, sp
    4376:   f000 f861   bl 0x443c
    437a:   6275        str r5, [r6, #36]    ; 0x24
    437c:   bdf8        pop {r3, r4, r5, r6, r7, pc}
    437e:   0000        movs r0, r0
    4380:   2000        movs r0, #0
    4382:   400b        ands r3, r1
    4384:   b5f8        push {r3, r4, r5, r6, r7, lr}
    4386:   4606        mov r6, r0
    4388:   f000 f8f4   bl 0x4574
    438c:   4c07        ldr r4, [pc, #28]    ; (0x43ac)
    438e:   2540        movs r5, #64    ; 0x40
    4390:   62a5        str r5, [r4, #40]    ; 0x28
    4392:   2001        movs r0, #1
    4394:   f88d 0000   strb.w r0, [sp]
    4398:   f88d 6001   strb.w r6, [sp, #1]
    439c:   2202        movs r2, #2
    439e:   2100        movs r1, #0
    43a0:   4668        mov r0, sp
    43a2:   f000 f84b   bl 0x443c
    43a6:   6265        str r5, [r4, #36]    ; 0x24
    43a8:   bdf8        pop {r3, r4, r5, r6, r7, pc}
    43aa:   0000        movs r0, r0
    43ac:   2000        movs r0, #0
    43ae:   400b        ands r3, r1
    43b0:   b510        push {r4, lr}
    43b2:   243c        movs r4, #60    ; 0x3c
    43b4:   f7ff ffa6   bl 0x4304
    43b8:   e005        b.n 0x43c6
    43ba:   2064        movs r0, #100    ; 0x64
    43bc:   f7ff fa40   bl 0x3840
    43c0:   f7ff ff2e   bl 0x4220
    43c4:   b118        cbz r0, 0x43ce
    43c6:   4620        mov r0, r4
    43c8:   1e64        subs r4, r4, #1
    43ca:   d2f6        bcs.n 0x43ba
    43cc:   bd10        pop {r4, pc}
    43ce:   2001        movs r0, #1
    43d0:   bd10        pop {r4, pc}
    43d2:   0000        movs r0, r0
    43d4:   b538        push {r3, r4, r5, lr}
    43d6:   20b9        movs r0, #185    ; 0xb9
    43d8:   4c07        ldr r4, [pc, #28]    ; (0x43f8)
    43da:   f88d 0000   strb.w r0, [sp]
    43de:   2540        movs r5, #64    ; 0x40
    43e0:   62a5        str r5, [r4, #40]    ; 0x28
    43e2:   2201        movs r2, #1
    43e4:   2100        movs r1, #0
    43e6:   4668        mov r0, sp
    43e8:   f000 f828   bl 0x443c
    43ec:   6265        str r5, [r4, #36]    ; 0x24
    43ee:   200a        movs r0, #10
    43f0:   f7ff fa26   bl 0x3840
    43f4:   bd38        pop {r3, r4, r5, pc}
    43f6:   0000        movs r0, r0
    43f8:   2000        movs r0, #0
    43fa:   400b        ands r3, r1
    43fc:   b5f8        push {r3, r4, r5, r6, r7, lr}
    43fe:   4d0e        ldr r5, [pc, #56]    ; (0x4438)
    4400:   2440        movs r4, #64    ; 0x40
    4402:   4617        mov r7, r2
    4404:   4606        mov r6, r0
    4406:   62ac        str r4, [r5, #40]    ; 0x28
    4408:   2003        movs r0, #3
    440a:   f88d 0000   strb.w r0, [sp]
    440e:   0c08        lsrs r0, r1, #16
    4410:   f88d 0001   strb.w r0, [sp, #1]
    4414:   0a08        lsrs r0, r1, #8
    4416:   f88d 0002   strb.w r0, [sp, #2]
    441a:   f88d 1003   strb.w r1, [sp, #3]
    441e:   2204        movs r2, #4
    4420:   2100        movs r1, #0
    4422:   4668        mov r0, sp
    4424:   f000 f80a   bl 0x443c
    4428:   463a        mov r2, r7
    442a:   4631        mov r1, r6
    442c:   2000        movs r0, #0
    442e:   f000 f805   bl 0x443c
    4432:   626c        str r4, [r5, #36]    ; 0x24
    4434:   bdf8        pop {r3, r4, r5, r6, r7, pc}
    4436:   0000        movs r0, r0
    4438:   2000        movs r0, #0
    443a:   400b        ands r3, r1
    443c:   b5f0        push {r4, r5, r6, r7, lr}
    443e:   2300        movs r3, #0
    4440:   2a08        cmp r2, #8
    4442:   d901        bls.n 0x4448
    4444:   2408        movs r4, #8
    4446:   e000        b.n 0x444a
    4448:   4614        mov r4, r2
    444a:   2500        movs r5, #0
    444c:   462f        mov r7, r5
    444e:   4e16        ldr r6, [pc, #88]    ; (0x44a8)
    4450:   e005        b.n 0x445e
    4452:   b138        cbz r0, 0x4464
    4454:   f810 c005   ldrb.w ip, [r0, r5]
    4458:   f8c6 c010   str.w ip, [r6, #16]
    445c:   1c6d        adds r5, r5, #1
    445e:   42a5        cmp r5, r4
    4460:   d3f7        bcc.n 0x4452
    4462:   e010        b.n 0x4486
    4464:   6137        str r7, [r6, #16]
    4466:   e7f9        b.n 0x445c
    4468:   69f5        ldr r5, [r6, #28]
    446a:   f015 0ff0   tst.w r5, #240    ; 0xf0
    446e:   d0fb        beq.n 0x4468
    4470:   6935        ldr r5, [r6, #16]
    4472:   b2ed        uxtb r5, r5
    4474:   b150        cbz r0, 0x448c
    4476:   f810 c004   ldrb.w ip, [r0, r4]
    447a:   f8c6 c010   str.w ip, [r6, #16]
    447e:   1c64        adds r4, r4, #1
    4480:   b101        cbz r1, 0x4484
    4482:   54cd        strb r5, [r1, r3]
    4484:   1c5b        adds r3, r3, #1
    4486:   4294        cmp r4, r2
    4488:   d3ee        bcc.n 0x4468
    448a:   e00a        b.n 0x44a2
    448c:   6137        str r7, [r6, #16]
    448e:   e7f6        b.n 0x447e
    4490:   69f0        ldr r0, [r6, #28]
    4492:   f010 0ff0   tst.w r0, #240    ; 0xf0
    4496:   d0fb        beq.n 0x4490
    4498:   6930        ldr r0, [r6, #16]
    449a:   b2c0        uxtb r0, r0
    449c:   b101        cbz r1, 0x44a0
    449e:   54c8        strb r0, [r1, r3]
    44a0:   1c5b        adds r3, r3, #1
    44a2:   4293        cmp r3, r2
    44a4:   d3f4        bcc.n 0x4490
    44a6:   bdf0        pop {r4, r5, r6, r7, pc}
    44a8:   4000        ands r0, r0
    44aa:   4004        ands r4, r0
    44ac:   b570        push {r4, r5, r6, lr}
    44ae:   f240 142d   movw r4, #301    ; 0x12d
    44b2:   f7ff ff4b   bl 0x434c
    44b6:   f44f 757a   mov.w r5, #1000    ; 0x3e8
    44ba:   e005        b.n 0x44c8
    44bc:   4628        mov r0, r5
    44be:   f7ff f9bf   bl 0x3840
    44c2:   f7ff fead   bl 0x4220
    44c6:   b118        cbz r0, 0x44d0
    44c8:   4620        mov r0, r4
    44ca:   1e64        subs r4, r4, #1
    44cc:   d2f6        bcs.n 0x44bc
    44ce:   bd70        pop {r4, r5, r6, pc}
    44d0:   2001        movs r0, #1
    44d2:   bd70        pop {r4, r5, r6, pc}
    44d4:   b538        push {r3, r4, r5, lr}
    44d6:   20ab        movs r0, #171    ; 0xab
    44d8:   4c07        ldr r4, [pc, #28]    ; (0x44f8)
    44da:   f88d 0000   strb.w r0, [sp]
    44de:   2540        movs r5, #64    ; 0x40
    44e0:   62a5        str r5, [r4, #40]    ; 0x28
    44e2:   2201        movs r2, #1
    44e4:   2100        movs r1, #0
    44e6:   4668        mov r0, sp
    44e8:   f7ff ffa8   bl 0x443c
    44ec:   6265        str r5, [r4, #36]    ; 0x24
    44ee:   200a        movs r0, #10
    44f0:   f7ff f9a6   bl 0x3840
    44f4:   bd38        pop {r3, r4, r5, pc}
    44f6:   0000        movs r0, r0
    44f8:   2000        movs r0, #0
    44fa:   400b        ands r3, r1
    44fc:   e92d 47f0   stmdb sp!, {r4, r5, r6, r7, r8, r9, sl, lr}
    4500:   460d        mov r5, r1
    4502:   4606        mov r6, r0
    4504:   4268        negs r0, r5
    4506:   b2c4        uxtb r4, r0
    4508:   4294        cmp r4, r2
    450a:   d204        bcs.n 0x4516
    450c:   1b10        subs r0, r2, r4
    450e:   f3c0 270f   ubfx r7, r0, #8, #16
    4512:   b2c0        uxtb r0, r0
    4514:   e002        b.n 0x451c
    4516:   2700        movs r7, #0
    4518:   b294        uxth r4, r2
    451a:   4638        mov r0, r7
    451c:   4680        mov r8, r0
    451e:   b13c        cbz r4, 0x4530
    4520:   4622        mov r2, r4
    4522:   4630        mov r0, r6
    4524:   f7ff ff44   bl 0x43b0
    4528:   2801        cmp r0, #1
    452a:   d11d        bne.n 0x4568
    452c:   4425        add r5, r4
    452e:   4426        add r6, r4
    4530:   2400        movs r4, #0
    4532:   f44f 7980   mov.w r9, #256    ; 0x100
    4536:   e00b        b.n 0x4550
    4538:   464a        mov r2, r9
    453a:   4629        mov r1, r5
    453c:   4630        mov r0, r6
    453e:   f7ff ff37   bl 0x43b0
    4542:   2801        cmp r0, #1
    4544:   d110        bne.n 0x4568
    4546:   1c64        adds r4, r4, #1
    4548:   f505 7580   add.w r5, r5, #256    ; 0x100
    454c:   f506 7680   add.w r6, r6, #256    ; 0x100
    4550:   42bc        cmp r4, r7
    4552:   dbf1        blt.n 0x4538
    4554:   f1b8 0000   subs.w r0, r8, #0
    4558:   d009        beq.n 0x456e
    455a:   4602        mov r2, r0
    455c:   4629        mov r1, r5
    455e:   4630        mov r0, r6
    4560:   f7ff ff26   bl 0x43b0
    4564:   2801        cmp r0, #1
    4566:   d002        beq.n 0x456e
    4568:   2000        movs r0, #0
    456a:   e8bd 87f0   ldmia.w sp!, {r4, r5, r6, r7, r8, r9, sl, pc}
    456e:   2001        movs r0, #1
    4570:   e7fb        b.n 0x456a
    4572:   0000        movs r0, r0
    4574:   b538        push {r3, r4, r5, lr}
    4576:   2006        movs r0, #6
    4578:   4c05        ldr r4, [pc, #20]    ; (0x4590)
    457a:   f88d 0000   strb.w r0, [sp]
    457e:   2540        movs r5, #64    ; 0x40
    4580:   62a5        str r5, [r4, #40]    ; 0x28
    4582:   2201        movs r2, #1
    4584:   2100        movs r1, #0
    4586:   4668        mov r0, sp
    4588:   f7ff ff58   bl 0x443c
    458c:   6265        str r5, [r4, #36]    ; 0x24
    458e:   bd38        pop {r3, r4, r5, pc}
    4590:   2000        movs r0, #0
    4592:   400b        ands r3, r1
    4594:   b510        push {r4, lr}
    4596:   f44f 74cd   mov.w r4, #410    ; 0x19a
    459a:   f7ff fef3   bl 0x4384
    459e:   e005        b.n 0x45ac
    45a0:   2064        movs r0, #100    ; 0x64
    45a2:   f7ff f94d   bl 0x3840
    45a6:   f7ff fe3b   bl 0x4220
    45aa:   b118        cbz r0, 0x45b4
    45ac:   4620        mov r0, r4
    45ae:   1e64        subs r4, r4, #1
    45b0:   d2f6        bcs.n 0x45a0
    45b2:   bd10        pop {r4, pc}
    45b4:   2001        movs r0, #1
    45b6:   bd10        pop {r4, pc}
    45b8:   2a00        cmp r2, #0
    45ba:   6802        ldr r2, [r0, #0]
    45bc:   d001        beq.n 0x45c2
    45be:   430a        orrs r2, r1
    45c0:   e000        b.n 0x45c4
    45c2:   438a        bics r2, r1
    45c4:   6002        str r2, [r0, #0]
    45c6:   4770        bx lr
    45c8:   2a00        cmp r2, #0
    45ca:   6942        ldr r2, [r0, #20]
    45cc:   d001        beq.n 0x45d2
    45ce:   430a        orrs r2, r1
    45d0:   e000        b.n 0x45d4
    45d2:   438a        bics r2, r1
    45d4:   6142        str r2, [r0, #20]
    45d6:   4770        bx lr
    45d8:   2a00        cmp r2, #0
    45da:   6842        ldr r2, [r0, #4]
    45dc:   d001        beq.n 0x45e2
    45de:   430a        orrs r2, r1
    45e0:   e000        b.n 0x45e4
    45e2:   438a        bics r2, r1
    45e4:   6042        str r2, [r0, #4]
    45e6:   4770        bx lr
    45e8:   2a00        cmp r2, #0
    45ea:   6902        ldr r2, [r0, #16]
    45ec:   d001        beq.n 0x45f2
    45ee:   430a        orrs r2, r1
    45f0:   e000        b.n 0x45f4
    45f2:   438a        bics r2, r1
    45f4:   6102        str r2, [r0, #16]
    45f6:   4770        bx lr
    45f8:   b142        cbz r2, 0x460c
    45fa:   2a01        cmp r2, #1
    45fc:   d009        beq.n 0x4612
    45fe:   6882        ldr r2, [r0, #8]
    4600:   438a        bics r2, r1
    4602:   6082        str r2, [r0, #8]
    4604:   68c2        ldr r2, [r0, #12]
    4606:   438a        bics r2, r1
    4608:   60c2        str r2, [r0, #12]
    460a:   4770        bx lr
    460c:   6882        ldr r2, [r0, #8]
    460e:   430a        orrs r2, r1
    4610:   e7f7        b.n 0x4602
    4612:   68c2        ldr r2, [r0, #12]
    4614:   430a        orrs r2, r1
    4616:   60c2        str r2, [r0, #12]
    4618:   6882        ldr r2, [r0, #8]
    461a:   438a        bics r2, r1
    461c:   6082        str r2, [r0, #8]
    461e:   4770        bx lr
    4620:   6241        str r1, [r0, #36]    ; 0x24
    4622:   4770        bx lr
    4624:   b10a        cbz r2, 0x462a
    4626:   6241        str r1, [r0, #36]    ; 0x24
    4628:   4770        bx lr
    462a:   6281        str r1, [r0, #40]    ; 0x28
    462c:   4770        bx lr
    462e:   2900        cmp r1, #0
    4630:   6901        ldr r1, [r0, #16]
    4632:   d002        beq.n 0x463a
    4634:   f041 0101   orr.w r1, r1, #1
    4638:   e001        b.n 0x463e
    463a:   f021 0101   bic.w r1, r1, #1
    463e:   6101        str r1, [r0, #16]
    4640:   4770        bx lr
    4642:   b5f0        push {r4, r5, r6, r7, lr}
    4644:   780b        ldrb r3, [r1, #0]
    4646:   6d07        ldr r7, [r0, #80]    ; 0x50
    4648:   eb00 0483   add.w r4, r0, r3, lsl #2
    464c:   f104 0240   add.w r2, r4, #64    ; 0x40
    4650:   f104 0590   add.w r5, r4, #144    ; 0x90
    4654:   f104 06a0   add.w r6, r4, #160    ; 0xa0
    4658:   005b        lsls r3, r3, #1
    465a:   2401        movs r4, #1
    465c:   409c        lsls r4, r3
    465e:   43e4        mvns r4, r4
    4660:   4027        ands r7, r4
    4662:   6507        str r7, [r0, #80]    ; 0x50
    4664:   6d47        ldr r7, [r0, #84]    ; 0x54
    4666:   4027        ands r7, r4
    4668:   6547        str r7, [r0, #84]    ; 0x54
    466a:   6d44        ldr r4, [r0, #84]    ; 0x54
    466c:   794f        ldrb r7, [r1, #5]
    466e:   409f        lsls r7, r3
    4670:   433c        orrs r4, r7
    4672:   6544        str r4, [r0, #84]    ; 0x54
    4674:   6814        ldr r4, [r2, #0]
    4676:   f240 1707   movw r7, #263    ; 0x107
    467a:   43bc        bics r4, r7
    467c:   6014        str r4, [r2, #0]
    467e:   6814        ldr r4, [r2, #0]
    4680:   884f        ldrh r7, [r1, #2]
    4682:   433c        orrs r4, r7
    4684:   6014        str r4, [r2, #0]
    4686:   88ca        ldrh r2, [r1, #6]
    4688:   602a        str r2, [r5, #0]
    468a:   890a        ldrh r2, [r1, #8]
    468c:   6032        str r2, [r6, #0]
    468e:   6d02        ldr r2, [r0, #80]    ; 0x50
    4690:   7909        ldrb r1, [r1, #4]
    4692:   4099        lsls r1, r3
    4694:   430a        orrs r2, r1
    4696:   6502        str r2, [r0, #80]    ; 0x50
    4698:   bdf0        pop {r4, r5, r6, r7, pc}
    469a:   880a        ldrh r2, [r1, #0]
    469c:   f8c0 2088   str.w r2, [r0, #136]    ; 0x88
    46a0:   884a        ldrh r2, [r1, #2]
    46a2:   f8c0 2084   str.w r2, [r0, #132]    ; 0x84
    46a6:   6802        ldr r2, [r0, #0]
    46a8:   f422 3240   bic.w r2, r2, #196608    ; 0x30000
    46ac:   6002        str r2, [r0, #0]
    46ae:   6802        ldr r2, [r0, #0]
    46b0:   f022 7280   bic.w r2, r2, #16777216    ; 0x1000000
    46b4:   6002        str r2, [r0, #0]
    46b6:   6802        ldr r2, [r0, #0]
    46b8:   684b        ldr r3, [r1, #4]
    46ba:   431a        orrs r2, r3
    46bc:   6002        str r2, [r0, #0]
    46be:   8909        ldrh r1, [r1, #8]
    46c0:   6781        str r1, [r0, #120]    ; 0x78
    46c2:   4770        bx lr
    46c4:   480a        ldr r0, [pc, #40]    ; (0x46f0)
    46c6:   7881        ldrb r1, [r0, #2]
    46c8:   b109        cbz r1, 0x46ce
    46ca:   2000        movs r0, #0
    46cc:   4770        bx lr
    46ce:   7b01        ldrb r1, [r0, #12]
    46d0:   b109        cbz r1, 0x46d6
    46d2:   2001        movs r0, #1
    46d4:   4770        bx lr
    46d6:   7ac0        ldrb r0, [r0, #11]
    46d8:   b108        cbz r0, 0x46de
    46da:   2002        movs r0, #2
    46dc:   4770        bx lr
    46de:   4805        ldr r0, [pc, #20]    ; (0x46f4)
    46e0:   7980        ldrb r0, [r0, #6]
    46e2:   2801        cmp r0, #1
    46e4:   d001        beq.n 0x46ea
    46e6:   2005        movs r0, #5
    46e8:   4770        bx lr
    46ea:   2003        movs r0, #3
    46ec:   4770        bx lr
    46ee:   0000        movs r0, r0
    46f0:   0644        lsls r4, r0, #25
    46f2:   2000        movs r0, #0
    46f4:   196c        adds r4, r5, r5
    46f6:   2000        movs r0, #0
    46f8:   4806        ldr r0, [pc, #24]    ; (0x4714)
    46fa:   7b00        ldrb r0, [r0, #12]
    46fc:   2807        cmp r0, #7
    46fe:   d107        bne.n 0x4710
    4700:   4805        ldr r0, [pc, #20]    ; (0x4718)
    4702:   2108        movs r1, #8
    4704:   f850 2b07   ldr.w r2, [r0], #7
    4708:   70d1        strb r1, [r2, #3]
    470a:   21d8        movs r1, #216    ; 0xd8
    470c:   f7fe bf6d   b.w 0x35ea
    4710:   4770        bx lr
    4712:   0000        movs r0, r0
    4714:   0644        lsls r4, r0, #25
    4716:   2000        movs r0, #0
    4718:   00ac        lsls r4, r5, #2
    471a:   2000        movs r0, #0
    471c:   b510        push {r4, lr}
    471e:   b180        cbz r0, 0x4742
    4720:   f000 fa08   bl 0x4b34
    4724:   2800        cmp r0, #0
    4726:   d017        beq.n 0x4758
    4728:   490c        ldr r1, [pc, #48]    ; (0x475c)
    472a:   2000        movs r0, #0
    472c:   6048        str r0, [r1, #4]
    472e:   8108        strh r0, [r1, #8]
    4730:   7288        strb r0, [r1, #10]
    4732:   784a        ldrb r2, [r1, #1]
    4734:   6008        str r0, [r1, #0]
    4736:   0652        lsls r2, r2, #25
    4738:   d503        bpl.n 0x4742
    473a:   7848        ldrb r0, [r1, #1]
    473c:   f040 0040   orr.w r0, r0, #64    ; 0x40
    4740:   7048        strb r0, [r1, #1]
    4742:   f002 f8c7   bl 0x68d4
    4746:   4906        ldr r1, [pc, #24]    ; (0x4760)
    4748:   2001        movs r0, #1
    474a:   7008        strb r0, [r1, #0]
    474c:   4905        ldr r1, [pc, #20]    ; (0x4764)
    474e:   7008        strb r0, [r1, #0]
    4750:   4905        ldr r1, [pc, #20]    ; (0x4768)
    4752:   7008        strb r0, [r1, #0]
    4754:   4905        ldr r1, [pc, #20]    ; (0x476c)
    4756:   7008        strb r0, [r1, #0]
    4758:   bd10        pop {r4, pc}
    475a:   0000        movs r0, r0
    475c:   0038        movs r0, r7
    475e:   2000        movs r0, #0
    4760:   0044        lsls r4, r0, #1
    4762:   2000        movs r0, #0
    4764:   0047        lsls r7, r0, #1
    4766:   2000        movs r0, #0
    4768:   0045        lsls r5, r0, #1
    476a:   2000        movs r0, #0
    476c:   0046        lsls r6, r0, #1
    476e:   2000        movs r0, #0
    4770:   2138        movs r1, #56    ; 0x38
    4772:   4a06        ldr r2, [pc, #24]    ; (0x478c)
    4774:   e004        b.n 0x4780
    4776:   5c53        ldrb r3, [r2, r1]
    4778:   4283        cmp r3, r0
    477a:   d101        bne.n 0x4780
    477c:   b2c8        uxtb r0, r1
    477e:   4770        bx lr
    4780:   1e49        subs r1, r1, #1
    4782:   b289        uxth r1, r1
    4784:   d2f7        bcs.n 0x4776
    4786:   2000        movs r0, #0
    4788:   4770        bx lr
    478a:   0000        movs r0, r0
    478c:   065c        lsls r4, r3, #25
    478e:   2000        movs r0, #0
    4790:   4b0b        ldr r3, [pc, #44]    ; (0x47c0)
    4792:   b510        push {r4, lr}
    4794:   5c1a        ldrb r2, [r3, r0]
    4796:   b17a        cbz r2, 0x47b8
    4798:   b101        cbz r1, 0x479c
    479a:   700a        strb r2, [r1, #0]
    479c:   4a08        ldr r2, [pc, #32]    ; (0x47c0)
    479e:   0941        lsrs r1, r0, #5
    47a0:   3a08        subs r2, #8
    47a2:   f000 041f   and.w r4, r0, #31
    47a6:   f852 1021   ldr.w r1, [r2, r1, lsl #2]
    47aa:   2201        movs r2, #1
    47ac:   40a2        lsls r2, r4
    47ae:   4211        tst r1, r2
    47b0:   d002        beq.n 0x47b8
    47b2:   5c18        ldrb r0, [r3, r0]
    47b4:   282f        cmp r0, #47    ; 0x2f
    47b6:   d301        bcc.n 0x47bc
    47b8:   2001        movs r0, #1
    47ba:   bd10        pop {r4, pc}
    47bc:   2000        movs r0, #0
    47be:   bd10        pop {r4, pc}
    47c0:   065c        lsls r4, r3, #25
    47c2:   2000        movs r0, #0
    47c4:   e92d 41f0   stmdb sp!, {r4, r5, r6, r7, r8, lr}
    47c8:   460d        mov r5, r1
    47ca:   4604        mov r4, r0
    47cc:   2138        movs r1, #56    ; 0x38
    47ce:   4810        ldr r0, [pc, #64]    ; (0x4810)
    47d0:   f7fe ff0b   bl 0x35ea
    47d4:   4a0e        ldr r2, [pc, #56]    ; (0x4810)
    47d6:   2000        movs r0, #0
    47d8:   3a08        subs r2, #8
    47da:   4e0d        ldr r6, [pc, #52]    ; (0x4810)
    47dc:   6010        str r0, [r2, #0]
    47de:   2301        movs r3, #1
    47e0:   6050        str r0, [r2, #4]
    47e2:   e010        b.n 0x4806
    47e4:   7821        ldrb r1, [r4, #0]
    47e6:   7860        ldrb r0, [r4, #1]
    47e8:   5470        strb r0, [r6, r1]
    47ea:   78a0        ldrb r0, [r4, #2]
    47ec:   b150        cbz r0, 0x4804
    47ee:   7821        ldrb r1, [r4, #0]
    47f0:   0948        lsrs r0, r1, #5
    47f2:   f001 011f   and.w r1, r1, #31
    47f6:   f852 7020   ldr.w r7, [r2, r0, lsl #2]
    47fa:   fa03 f101   lsl.w r1, r3, r1
    47fe:   430f        orrs r7, r1
    4800:   f842 7020   str.w r7, [r2, r0, lsl #2]
    4804:   1ce4        adds r4, r4, #3
    4806:   1e6d        subs r5, r5, #1
    4808:   b2ed        uxtb r5, r5
    480a:   d2eb        bcs.n 0x47e4
    480c:   e8bd 81f0   ldmia.w sp!, {r4, r5, r6, r7, r8, pc}
    4810:   065c        lsls r4, r3, #25
    4812:   2000        movs r0, #0
    4814:   e92d 41f0   stmdb sp!, {r4, r5, r6, r7, r8, lr}
    4818:   0a01        lsrs r1, r0, #8
    481a:   07c9        lsls r1, r1, #31
    481c:   d002        beq.n 0x4824
    481e:   f000 fbd1   bl 0x4fc4
    4822:   e05f        b.n 0x48e4
    4824:   b2c3        uxtb r3, r0
    4826:   0e02        lsrs r2, r0, #24
    4828:   2401        movs r4, #1
    482a:   2be8        cmp r3, #232    ; 0xe8
    482c:   d914        bls.n 0x4858
    482e:   0e00        lsrs r0, r0, #24
    4830:   f3c0 0240   ubfx r2, r0, #1, #1
    4834:   2bec        cmp r3, #236    ; 0xec
    4836:   d206        bcs.n 0x4846
    4838:   3be9        subs r3, #233    ; 0xe9
    483a:   b2d9        uxtb r1, r3
    483c:   482b        ldr r0, [pc, #172]    ; (0x48ec)
    483e:   f7ff fbff   bl 0x4040
    4842:   482b        ldr r0, [pc, #172]    ; (0x48f0)
    4844:   e04d        b.n 0x48e2
    4846:   2bfd        cmp r3, #253    ; 0xfd
    4848:   d84c        bhi.n 0x48e4
    484a:   3bec        subs r3, #236    ; 0xec
    484c:   b2d9        uxtb r1, r3
    484e:   4829        ldr r0, [pc, #164]    ; (0x48f4)
    4850:   f7ff fbf6   bl 0x4040
    4854:   4828        ldr r0, [pc, #160]    ; (0x48f8)
    4856:   e044        b.n 0x48e2
    4858:   f000 0107   and.w r1, r0, #7
    485c:   2601        movs r6, #1
    485e:   f1a3 0ce0   sub.w ip, r3, #224    ; 0xe0
    4862:   408e        lsls r6, r1
    4864:   4f25        ldr r7, [pc, #148]    ; (0x48fc)
    4866:   4d26        ldr r5, [pc, #152]    ; (0x4900)
    4868:   f1bc 0f07   cmp.w ip, #7
    486c:   d80a        bhi.n 0x4884
    486e:   4628        mov r0, r5
    4870:   b2f1        uxtb r1, r6
    4872:   7800        ldrb r0, [r0, #0]
    4874:   0792        lsls r2, r2, #30
    4876:   d501        bpl.n 0x487c
    4878:   4308        orrs r0, r1
    487a:   e000        b.n 0x487e
    487c:   4388        bics r0, r1
    487e:   7028        strb r0, [r5, #0]
    4880:   703c        strb r4, [r7, #0]
    4882:   e02f        b.n 0x48e4
    4884:   2100        movs r1, #0
    4886:   eb05 0c01   add.w ip, r5, r1
    488a:   f89c c002   ldrb.w ip, [ip, #2]
    488e:   459c        cmp ip, r3
    4890:   d105        bne.n 0x489e
    4892:   0790        lsls r0, r2, #30
    4894:   d4f4        bmi.n 0x4880
    4896:   4429        add r1, r5
    4898:   2000        movs r0, #0
    489a:   7088        strb r0, [r1, #2]
    489c:   e7f0        b.n 0x4880
    489e:   1c49        adds r1, r1, #1
    48a0:   b2c9        uxtb r1, r1
    48a2:   2906        cmp r1, #6
    48a4:   d3ef        bcc.n 0x4886
    48a6:   0791        lsls r1, r2, #30
    48a8:   d50b        bpl.n 0x48c2
    48aa:   2100        movs r1, #0
    48ac:   eb05 0c01   add.w ip, r5, r1
    48b0:   f89c c002   ldrb.w ip, [ip, #2]
    48b4:   f1bc 0f00   cmp.w ip, #0
    48b8:   d00d        beq.n 0x48d6
    48ba:   1c49        adds r1, r1, #1
    48bc:   b2c9        uxtb r1, r1
    48be:   2906        cmp r1, #6
    48c0:   d3f4        bcc.n 0x48ac
    48c2:   0793        lsls r3, r2, #30
    48c4:   4a0f        ldr r2, [pc, #60]    ; (0x4904)
    48c6:   f3c0 00c4   ubfx r0, r0, #3, #5
    48ca:   4410        add r0, r2
    48cc:   b2f1        uxtb r1, r6
    48ce:   7882        ldrb r2, [r0, #2]
    48d0:   d504        bpl.n 0x48dc
    48d2:   430a        orrs r2, r1
    48d4:   e003        b.n 0x48de
    48d6:   1868        adds r0, r5, r1
    48d8:   7083        strb r3, [r0, #2]
    48da:   e7d1        b.n 0x4880
    48dc:   438a        bics r2, r1
    48de:   7082        strb r2, [r0, #2]
    48e0:   4809        ldr r0, [pc, #36]    ; (0x4908)
    48e2:   7004        strb r4, [r0, #0]
    48e4:   2001        movs r0, #1
    48e6:   e8bd 81f0   ldmia.w sp!, {r4, r5, r6, r7, r8, pc}
    48ea:   0000        movs r0, r0
    48ec:   004d        lsls r5, r1, #1
    48ee:   2000        movs r0, #0
    48f0:   0045        lsls r5, r0, #1
    48f2:   2000        movs r0, #0
    48f4:   0059        lsls r1, r3, #1
    48f6:   2000        movs r0, #0
    48f8:   0046        lsls r6, r0, #1
    48fa:   2000        movs r0, #0
    48fc:   0044        lsls r4, r0, #1
    48fe:   2000        movs r0, #0
    4900:   0060        lsls r0, r4, #1
    4902:   2000        movs r0, #0
    4904:   06ac        lsls r4, r5, #26
    4906:   2000        movs r0, #0
    4908:   0047        lsls r7, r0, #1
    490a:   2000        movs r0, #0
    490c:   e92d 43f8   stmdb sp!, {r3, r4, r5, r6, r7, r8, r9, lr}
    4910:   4c5c        ldr r4, [pc, #368]    ; (0x4a84)
    4912:   4a5d        ldr r2, [pc, #372]    ; (0x4a88)
    4914:   08c5        lsrs r5, r0, #3
    4916:   70a0        strb r0, [r4, #2]
    4918:   5c13        ldrb r3, [r2, r0]
    491a:   7023        strb r3, [r4, #0]
    491c:   78e2        ldrb r2, [r4, #3]
    491e:   f000 0607   and.w r6, r0, #7
    4922:   f022 0201   bic.w r2, r2, #1
    4926:   f361 0241   bfi r2, r1, #1, #1
    492a:   70e2        strb r2, [r4, #3]
    492c:   4622        mov r2, r4
    492e:   f04f 0801   mov.w r8, #1
    4932:   7852        ldrb r2, [r2, #1]
    4934:   2be8        cmp r3, #232    ; 0xe8
    4936:   d010        beq.n 0x495a
    4938:   fa08 f706   lsl.w r7, r8, r6
    493c:   261c        movs r6, #28
    493e:   b2ff        uxtb r7, r7
    4940:   ebb6 0fd3   cmp.w r6, r3, lsr #3
    4944:   d118        bne.n 0x4978
    4946:   f013 0603   ands.w r6, r3, #3
    494a:   d009        beq.n 0x4960
    494c:   2e01        cmp r6, #1
    494e:   d00a        beq.n 0x4966
    4950:   2e02        cmp r6, #2
    4952:   d00b        beq.n 0x496c
    4954:   2e03        cmp r6, #3
    4956:   d114        bne.n 0x4982
    4958:   e00b        b.n 0x4972
    495a:   f361 1286   bfi r2, r1, #6, #1
    495e:   e039        b.n 0x49d4
    4960:   f361 0282   bfi r2, r1, #2, #1
    4964:   e00c        b.n 0x4980
    4966:   f361 1204   bfi r2, r1, #4, #1
    496a:   e009        b.n 0x4980
    496c:   f361 02c3   bfi r2, r1, #3, #1
    4970:   e006        b.n 0x4980
    4972:   f361 1245   bfi r2, r1, #5, #1
    4976:   e003        b.n 0x4980
    4978:   2b39        cmp r3, #57    ; 0x39
    497a:   d102        bne.n 0x4982
    497c:   f361 12c7   bfi r2, r1, #7, #1
    4980:   7062        strb r2, [r4, #1]
    4982:   4e40        ldr r6, [pc, #256]    ; (0x4a84)
    4984:   1d36        adds r6, r6, #4
    4986:   b1d9        cbz r1, 0x49c0
    4988:   7862        ldrb r2, [r4, #1]
    498a:   ea5f 6c42   movs.w ip, r2, lsl #25
    498e:   d521        bpl.n 0x49d4
    4990:   f816 c005   ldrb.w ip, [r6, r5]
    4994:   ea4c 0c07   orr.w ip, ip, r7
    4998:   f806 c005   strb.w ip, [r6, r5]
    499c:   e016        b.n 0x49cc
    499e:   4d3b        ldr r5, [pc, #236]    ; (0x4a8c)
    49a0:   7062        strb r2, [r4, #1]
    49a2:   2600        movs r6, #0
    49a4:   78aa        ldrb r2, [r5, #2]
    49a6:   b1da        cbz r2, 0x49e0
    49a8:   b1d1        cbz r1, 0x49e0
    49aa:   70ae        strb r6, [r5, #2]
    49ac:   4669        mov r1, sp
    49ae:   f001 fa59   bl 0x5e64
    49b2:   79a8        ldrb r0, [r5, #6]
    49b4:   2800        cmp r0, #0
    49b6:   4668        mov r0, sp
    49b8:   d00f        beq.n 0x49da
    49ba:   f7ff f82b   bl 0x3a14
    49be:   e02a        b.n 0x4a16
    49c0:   5d72        ldrb r2, [r6, r5]
    49c2:   423a        tst r2, r7
    49c4:   d005        beq.n 0x49d2
    49c6:   43ba        bics r2, r7
    49c8:   5572        strb r2, [r6, r5]
    49ca:   7862        ldrb r2, [r4, #1]
    49cc:   f042 0201   orr.w r2, r2, #1
    49d0:   e7e5        b.n 0x499e
    49d2:   7862        ldrb r2, [r4, #1]
    49d4:   f022 0201   bic.w r2, r2, #1
    49d8:   e7e1        b.n 0x499e
    49da:   f000 fcc3   bl 0x5364
    49de:   e01a        b.n 0x4a16
    49e0:   b1cb        cbz r3, 0x4a16
    49e2:   6820        ldr r0, [r4, #0]
    49e4:   f000 fe86   bl 0x56f4
    49e8:   f000 fb58   bl 0x509c
    49ec:   b140        cbz r0, 0x4a00
    49ee:   7820        ldrb r0, [r4, #0]
    49f0:   b188        cbz r0, 0x4a16
    49f2:   f000 fc79   bl 0x52e8
    49f6:   6820        ldr r0, [r4, #0]
    49f8:   e8bd 43f8   ldmia.w sp!, {r3, r4, r5, r6, r7, r8, r9, lr}
    49fc:   f7ff bf0a   b.w 0x4814
    4a00:   79a8        ldrb r0, [r5, #6]
    4a02:   b110        cbz r0, 0x4a0a
    4a04:   f7fe ff9a   bl 0x393c
    4a08:   e005        b.n 0x4a16
    4a0a:   7820        ldrb r0, [r4, #0]
    4a0c:   28e8        cmp r0, #232    ; 0xe8
    4a0e:   d002        beq.n 0x4a16
    4a10:   f001 f8ba   bl 0x5b88
    4a14:   b110        cbz r0, 0x4a1c
    4a16:   2001        movs r0, #1
    4a18:   e8bd 83f8   ldmia.w sp!, {r3, r4, r5, r6, r7, r8, r9, pc}
    4a1c:   7861        ldrb r1, [r4, #1]
    4a1e:   07c8        lsls r0, r1, #31
    4a20:   78e0        ldrb r0, [r4, #3]
    4a22:   ea4f 70c0   mov.w r0, r0, lsl #31
    4a26:   d021        beq.n 0x4a6c
    4a28:   2800        cmp r0, #0
    4a2a:   d1e2        bne.n 0x49f2
    4a2c:   78a0        ldrb r0, [r4, #2]
    4a2e:   4a18        ldr r2, [pc, #96]    ; (0x4a90)
    4a30:   5c12        ldrb r2, [r2, r0]
    4a32:   b192        cbz r2, 0x4a5a
    4a34:   4d16        ldr r5, [pc, #88]    ; (0x4a90)
    4a36:   0943        lsrs r3, r0, #5
    4a38:   3d08        subs r5, #8
    4a3a:   f855 3023   ldr.w r3, [r5, r3, lsl #2]
    4a3e:   f000 051f   and.w r5, r0, #31
    4a42:   fa08 f005   lsl.w r0, r8, r5
    4a46:   4203        tst r3, r0
    4a48:   d002        beq.n 0x4a50
    4a4a:   f041 0001   orr.w r0, r1, #1
    4a4e:   e001        b.n 0x4a54
    4a50:   f021 0001   bic.w r0, r1, #1
    4a54:   7060        strb r0, [r4, #1]
    4a56:   7022        strb r2, [r4, #0]
    4a58:   e7cb        b.n 0x49f2
    4a5a:   f001 f87b   bl 0x5b54
    4a5e:   b958        cbnz r0, 0x4a78
    4a60:   7860        ldrb r0, [r4, #1]
    4a62:   f020 0001   bic.w r0, r0, #1
    4a66:   7060        strb r0, [r4, #1]
    4a68:   7026        strb r6, [r4, #0]
    4a6a:   e7c2        b.n 0x49f2
    4a6c:   2800        cmp r0, #0
    4a6e:   d1c0        bne.n 0x49f2
    4a70:   f001 f870   bl 0x5b54
    4a74:   2800        cmp r0, #0
    4a76:   d0bc        beq.n 0x49f2
    4a78:   78e0        ldrb r0, [r4, #3]
    4a7a:   f040 0001   orr.w r0, r0, #1
    4a7e:   70e0        strb r0, [r4, #3]
    4a80:   e7b7        b.n 0x49f2
    4a82:   0000        movs r0, r0
    4a84:   0038        movs r0, r7
    4a86:   2000        movs r0, #0
    4a88:   02de        lsls r6, r3, #11
    4a8a:   2000        movs r0, #0
    4a8c:   0644        lsls r4, r0, #25
    4a8e:   2000        movs r0, #0
    4a90:   065c        lsls r4, r3, #25
    4a92:   2000        movs r0, #0
    4a94:   880a        ldrh r2, [r1, #0]
    4a96:   f360 0208   bfi r2, r0, #0, #9
    4a9a:   800a        strh r2, [r1, #0]
    4a9c:   4770        bx lr
    4a9e:   f3c0 0008   ubfx r0, r0, #0, #9
    4aa2:   4770        bx lr
    4aa4:   b5f0        push {r4, r5, r6, r7, lr}
    4aa6:   2500        movs r5, #0
    4aa8:   e00f        b.n 0x4aca
    4aaa:   2400        movs r4, #0
    4aac:   e005        b.n 0x4aba
    4aae:   5d46        ldrb r6, [r0, r5]
    4ab0:   5d0f        ldrb r7, [r1, r4]
    4ab2:   42be        cmp r6, r7
    4ab4:   d003        beq.n 0x4abe
    4ab6:   1c64        adds r4, r4, #1
    4ab8:   b2e4        uxtb r4, r4
    4aba:   429c        cmp r4, r3
    4abc:   d3f7        bcc.n 0x4aae
    4abe:   429c        cmp r4, r3
    4ac0:   d101        bne.n 0x4ac6
    4ac2:   2000        movs r0, #0
    4ac4:   bdf0        pop {r4, r5, r6, r7, pc}
    4ac6:   1c6d        adds r5, r5, #1
    4ac8:   b2ed        uxtb r5, r5
    4aca:   4295        cmp r5, r2
    4acc:   d3ed        bcc.n 0x4aaa
    4ace:   2001        movs r0, #1
    4ad0:   bdf0        pop {r4, r5, r6, r7, pc}
    4ad2:   0000        movs r0, r0
    4ad4:   e92d 43f0   stmdb sp!, {r4, r5, r6, r7, r8, r9, lr}
    4ad8:   2307        movs r3, #7
    4ada:   2400        movs r4, #0
    4adc:   f8df 904c   ldr.w r9, [pc, #76]    ; 0x4b2c
    4ae0:   f04f 0c01   mov.w ip, #1
    4ae4:   f8df 8048   ldr.w r8, [pc, #72]    ; 0x4b30
    4ae8:   e017        b.n 0x4b1a
    4aea:   f819 5003   ldrb.w r5, [r9, r3]
    4aee:   2dff        cmp r5, #255    ; 0xff
    4af0:   d013        beq.n 0x4b1a
    4af2:   2208        movs r2, #8
    4af4:   eb08 07c3   add.w r7, r8, r3, lsl #3
    4af8:   e00c        b.n 0x4b14
    4afa:   fa0c f602   lsl.w r6, ip, r2
    4afe:   b2f6        uxtb r6, r6
    4b00:   4235        tst r5, r6
    4b02:   d107        bne.n 0x4b14
    4b04:   b179        cbz r1, 0x4b26
    4b06:   1e49        subs r1, r1, #1
    4b08:   5cbe        ldrb r6, [r7, r2]
    4b0a:   1c64        adds r4, r4, #1
    4b0c:   f800 6b01   strb.w r6, [r0], #1
    4b10:   b2c9        uxtb r1, r1
    4b12:   b2e4        uxtb r4, r4
    4b14:   1e52        subs r2, r2, #1
    4b16:   b2d2        uxtb r2, r2
    4b18:   d2ef        bcs.n 0x4afa
    4b1a:   1e5b        subs r3, r3, #1
    4b1c:   b2db        uxtb r3, r3
    4b1e:   d2e4        bcs.n 0x4aea
    4b20:   4620        mov r0, r4
    4b22:   e8bd 83f0   ldmia.w sp!, {r4, r5, r6, r7, r8, r9, pc}
    4b26:   20ff        movs r0, #255    ; 0xff
    4b28:   e7fb        b.n 0x4b22
    4b2a:   0000        movs r0, r0
    4b2c:   01d0        lsls r0, r2, #7
    4b2e:   2000        movs r0, #0
    4b30:   02de        lsls r6, r3, #11
    4b32:   2000        movs r0, #0
    4b34:   b510        push {r4, lr}
    4b36:   f001 fc07   bl 0x6348
    4b3a:   2800        cmp r0, #0
    4b3c:   d007        beq.n 0x4b4e
    4b3e:   2107        movs r1, #7
    4b40:   4806        ldr r0, [pc, #24]    ; (0x4b5c)
    4b42:   e005        b.n 0x4b50
    4b44:   f810 2d01   ldrb.w r2, [r0, #-1]!
    4b48:   2aff        cmp r2, #255    ; 0xff
    4b4a:   d001        beq.n 0x4b50
    4b4c:   2000        movs r0, #0
    4b4e:   bd10        pop {r4, pc}
    4b50:   1e49        subs r1, r1, #1
    4b52:   b2c9        uxtb r1, r1
    4b54:   d2f6        bcs.n 0x4b44
    4b56:   2001        movs r0, #1
    4b58:   bd10        pop {r4, pc}
    4b5a:   0000        movs r0, r0
    4b5c:   01d7        lsls r7, r2, #7
    4b5e:   2000        movs r0, #0
    4b60:   4770        bx lr
    4b62:   0000        movs r0, r0
    4b64:   4901        ldr r1, [pc, #4]    ; (0x4b6c)
    4b66:   2001        movs r0, #1
    4b68:   71c8        strb r0, [r1, #7]
    4b6a:   4770        bx lr
    4b6c:   0644        lsls r4, r0, #25
    4b6e:   2000        movs r0, #0
    4b70:   e92d 5ffc   stmdb sp!, {r2, r3, r4, r5, r6, r7, r8, r9, sl, fp, ip, lr}
    4b74:   4d55        ldr r5, [pc, #340]    ; (0x4ccc)
    4b76:   212e        movs r1, #46    ; 0x2e
    4b78:   2000        movs r0, #0
    4b7a:   7069        strb r1, [r5, #1]
    4b7c:   2119        movs r1, #25
    4b7e:   4a54        ldr r2, [pc, #336]    ; (0x4cd0)
    4b80:   4b54        ldr r3, [pc, #336]    ; (0x4cd4)
    4b82:   70a9        strb r1, [r5, #2]
    4b84:   1811        adds r1, r2, r0
    4b86:   f891 10e8   ldrb.w r1, [r1, #232]    ; 0xe8
    4b8a:   292e        cmp r1, #46    ; 0x2e
    4b8c:   d002        beq.n 0x4b94
    4b8e:   2919        cmp r1, #25
    4b90:   d003        beq.n 0x4b9a
    4b92:   e004        b.n 0x4b9e
    4b94:   5c19        ldrb r1, [r3, r0]
    4b96:   7069        strb r1, [r5, #1]
    4b98:   e001        b.n 0x4b9e
    4b9a:   5c19        ldrb r1, [r3, r0]
    4b9c:   70a9        strb r1, [r5, #2]
    4b9e:   1c40        adds r0, r0, #1
    4ba0:   b2c0        uxtb r0, r0
    4ba2:   2806        cmp r0, #6
    4ba4:   d3ee        bcc.n 0x4b84
    4ba6:   4c4c        ldr r4, [pc, #304]    ; (0x4cd8)
    4ba8:   7b20        ldrb r0, [r4, #12]
    4baa:   b108        cbz r0, 0x4bb0
    4bac:   2807        cmp r0, #7
    4bae:   d170        bne.n 0x4c92
    4bb0:   4e4a        ldr r6, [pc, #296]    ; (0x4cdc)
    4bb2:   8831        ldrh r1, [r6, #0]
    4bb4:   f5a1 407f   sub.w r0, r1, #65280    ; 0xff00
    4bb8:   38ff        subs r0, #255    ; 0xff
    4bba:   d06a        beq.n 0x4c92
    4bbc:   f04f 0800   mov.w r8, #0
    4bc0:   2102        movs r1, #2
    4bc2:   a801        add r0, sp, #4
    4bc4:   f8cd 8004   str.w r8, [sp, #4]
    4bc8:   f7ff ff84   bl 0x4ad4
    4bcc:   2701        movs r7, #1
    4bce:   f241 7970   movw r9, #6000    ; 0x1770
    4bd2:   f242 7a10   movw sl, #10000    ; 0x2710
    4bd6:   2802        cmp r0, #2
    4bd8:   d006        beq.n 0x4be8
    4bda:   2103        movs r1, #3
    4bdc:   a801        add r0, sp, #4
    4bde:   f7ff ff79   bl 0x4ad4
    4be2:   2803        cmp r0, #3
    4be4:   d056        beq.n 0x4c94
    4be6:   e066        b.n 0x4cb6
    4be8:   2312        movs r3, #18
    4bea:   222e        movs r2, #46    ; 0x2e
    4bec:   2102        movs r1, #2
    4bee:   a801        add r0, sp, #4
    4bf0:   f8cd 8000   str.w r8, [sp]
    4bf4:   f002 ffae   bl 0x7b54
    4bf8:   b120        cbz r0, 0x4c04
    4bfa:   8831        ldrh r1, [r6, #0]
    4bfc:   4551        cmp r1, sl
    4bfe:   d910        bls.n 0x4c22
    4c00:   70e7        strb r7, [r4, #3]
    4c02:   e058        b.n 0x4cb6
    4c04:   2301        movs r3, #1
    4c06:   2210        movs r2, #16
    4c08:   2102        movs r1, #2
    4c0a:   a801        add r0, sp, #4
    4c0c:   f8cd 8000   str.w r8, [sp]
    4c10:   f002 ffa0   bl 0x7b54
    4c14:   b138        cbz r0, 0x4c26
    4c16:   8831        ldrh r1, [r6, #0]
    4c18:   4551        cmp r1, sl
    4c1a:   d902        bls.n 0x4c22
    4c1c:   2002        movs r0, #2
    4c1e:   70e0        strb r0, [r4, #3]
    4c20:   e049        b.n 0x4cb6
    4c22:   72a7        strb r7, [r4, #10]
    4c24:   e049        b.n 0x4cba
    4c26:   f8cd 8000   str.w r8, [sp]
    4c2a:   2306        movs r3, #6
    4c2c:   786a        ldrb r2, [r5, #1]
    4c2e:   2102        movs r1, #2
    4c30:   a801        add r0, sp, #4
    4c32:   f002 ff8f   bl 0x7b54
    4c36:   f8df b094   ldr.w fp, [pc, #148]    ; 0x4ccc
    4c3a:   f10b 0b03   add.w fp, fp, #3
    4c3e:   b158        cbz r0, 0x4c58
    4c40:   4827        ldr r0, [pc, #156]    ; (0x4ce0)
    4c42:   7880        ldrb r0, [r0, #2]
    4c44:   b320        cbz r0, 0x4c90
    4c46:   8831        ldrh r1, [r6, #0]
    4c48:   4549        cmp r1, r9
    4c4a:   d936        bls.n 0x4cba
    4c4c:   f8a6 8000   strh.w r8, [r6]
    4c50:   4658        mov r0, fp
    4c52:   f88b 8001   strb.w r8, [fp, #1]
    4c56:   e013        b.n 0x4c80
    4c58:   f8cd 8000   str.w r8, [sp]
    4c5c:   2306        movs r3, #6
    4c5e:   78aa        ldrb r2, [r5, #2]
    4c60:   2102        movs r1, #2
    4c62:   a801        add r0, sp, #4
    4c64:   f002 ff76   bl 0x7b54
    4c68:   b328        cbz r0, 0x4cb6
    4c6a:   481d        ldr r0, [pc, #116]    ; (0x4ce0)
    4c6c:   7880        ldrb r0, [r0, #2]
    4c6e:   b178        cbz r0, 0x4c90
    4c70:   8831        ldrh r1, [r6, #0]
    4c72:   4549        cmp r1, r9
    4c74:   d921        bls.n 0x4cba
    4c76:   f8a6 8000   strh.w r8, [r6]
    4c7a:   4658        mov r0, fp
    4c7c:   f88b 7001   strb.w r7, [fp, #1]
    4c80:   7801        ldrb r1, [r0, #0]
    4c82:   f247 5030   movw r0, #30000    ; 0x7530
    4c86:   f041 0101   orr.w r1, r1, #1
    4c8a:   f88b 1000   strb.w r1, [fp]
    4c8e:   80e8        strh r0, [r5, #6]
    4c90:   e013        b.n 0x4cba
    4c92:   e018        b.n 0x4cc6
    4c94:   2013        movs r0, #19
    4c96:   9000        str r0, [sp, #0]
    4c98:   2319        movs r3, #25
    4c9a:   2210        movs r2, #16
    4c9c:   2103        movs r1, #3
    4c9e:   a801        add r0, sp, #4
    4ca0:   f002 ff58   bl 0x7b54
    4ca4:   b148        cbz r0, 0x4cba
    4ca6:   8831        ldrh r1, [r6, #0]
    4ca8:   4549        cmp r1, r9
    4caa:   d906        bls.n 0x4cba
    4cac:   f8a6 8000   strh.w r8, [r6]
    4cb0:   7327        strb r7, [r4, #12]
    4cb2:   7027        strb r7, [r4, #0]
    4cb4:   e001        b.n 0x4cba
    4cb6:   f884 800a   strb.w r8, [r4, #10]
    4cba:   8831        ldrh r1, [r6, #0]
    4cbc:   4551        cmp r1, sl
    4cbe:   d902        bls.n 0x4cc6
    4cc0:   f64f 70ff   movw r0, #65535    ; 0xffff
    4cc4:   8030        strh r0, [r6, #0]
    4cc6:   e8bd 9ffc   ldmia.w sp!, {r2, r3, r4, r5, r6, r7, r8, r9, sl, fp, ip, pc}
    4cca:   0000        movs r0, r0
    4ccc:   0000        movs r0, r0
    4cce:   2000        movs r0, #0
    4cd0:   0708        lsls r0, r1, #28
    4cd2:   2000        movs r0, #0
    4cd4:   7d88        ldrb r0, [r1, #22]
    4cd6:   0000        movs r0, r0
    4cd8:   0644        lsls r4, r0, #25
    4cda:   2000        movs r0, #0
    4cdc:   0028        movs r0, r5
    4cde:   2000        movs r0, #0
    4ce0:   006c        lsls r4, r5, #1
    4ce2:   2000        movs r0, #0
    4ce4:   e92d 47f0   stmdb sp!, {r4, r5, r6, r7, r8, r9, sl, lr}
    4ce8:   488c        ldr r0, [pc, #560]    ; (0x4f1c)
    4cea:   f8df c234   ldr.w ip, [pc, #564]    ; 0x4f20
    4cee:   2500        movs r5, #0
    4cf0:   7b00        ldrb r0, [r0, #12]
    4cf2:   f89c 1004   ldrb.w r1, [ip, #4]
    4cf6:   b190        cbz r0, 0x4d1e
    4cf8:   f89c 2006   ldrb.w r2, [ip, #6]
    4cfc:   1c52        adds r2, r2, #1
    4cfe:   b2d2        uxtb r2, r2
    4d00:   f88c 2006   strb.w r2, [ip, #6]
    4d04:   2a03        cmp r2, #3
    4d06:   d950        bls.n 0x4daa
    4d08:   f88c 5006   strb.w r5, [ip, #6]
    4d0c:   2806        cmp r0, #6
    4d0e:   d14c        bne.n 0x4daa
    4d10:   2018        movs r0, #24
    4d12:   1c49        adds r1, r1, #1
    4d14:   fbb1 f2f0   udiv r2, r1, r0
    4d18:   fb00 1012   mls r0, r0, r2, r1
    4d1c:   e047        b.n 0x4dae
    4d1e:   4881        ldr r0, [pc, #516]    ; (0x4f24)
    4d20:   4a7f        ldr r2, [pc, #508]    ; (0x4f20)
    4d22:   4f81        ldr r7, [pc, #516]    ; (0x4f28)
    4d24:   78c0        ldrb r0, [r0, #3]
    4d26:   6813        ldr r3, [r2, #0]
    4d28:   f107 040e   add.w r4, r7, #14
    4d2c:   f102 06db   add.w r6, r2, #219    ; 0xdb
    4d30:   f04f 0901   mov.w r9, #1
    4d34:   2803        cmp r0, #3
    4d36:   d85d        bhi.n 0x4df4
    4d38:   5c3a        ldrb r2, [r7, r0]
    4d3a:   2801        cmp r0, #1
    4d3c:   eb02 0242   add.w r2, r2, r2, lsl #1
    4d40:   eb04 0242   add.w r2, r4, r2, lsl #1
    4d44:   791c        ldrb r4, [r3, #4]
    4d46:   f004 040f   and.w r4, r4, #15
    4d4a:   5d14        ldrb r4, [r2, r4]
    4d4c:   d004        beq.n 0x4d58
    4d4e:   2802        cmp r0, #2
    4d50:   d02c        beq.n 0x4dac
    4d52:   2803        cmp r0, #3
    4d54:   d1db        bne.n 0x4d0e
    4d56:   e02d        b.n 0x4db4
    4d58:   2103        movs r1, #3
    4d5a:   f10c 0007   add.w r0, ip, #7
    4d5e:   1cdb        adds r3, r3, #3
    4d60:   e020        b.n 0x4da4
    4d62:   fa09 f201   lsl.w r2, r9, r1
    4d66:   f89c 6007   ldrb.w r6, [ip, #7]
    4d6a:   b2d2        uxtb r2, r2
    4d6c:   1e5b        subs r3, r3, #1
    4d6e:   4216        tst r6, r2
    4d70:   f810 6d01   ldrb.w r6, [r0, #-1]!
    4d74:   d008        beq.n 0x4d88
    4d76:   42a6        cmp r6, r4
    4d78:   d804        bhi.n 0x4d84
    4d7a:   7005        strb r5, [r0, #0]
    4d7c:   f89c 6007   ldrb.w r6, [ip, #7]
    4d80:   4396        bics r6, r2
    4d82:   e00a        b.n 0x4d9a
    4d84:   1b32        subs r2, r6, r4
    4d86:   e00c        b.n 0x4da2
    4d88:   781f        ldrb r7, [r3, #0]
    4d8a:   eba7 0804   sub.w r8, r7, r4
    4d8e:   4546        cmp r6, r8
    4d90:   db06        blt.n 0x4da0
    4d92:   7007        strb r7, [r0, #0]
    4d94:   f89c 6007   ldrb.w r6, [ip, #7]
    4d98:   4316        orrs r6, r2
    4d9a:   f88c 6007   strb.w r6, [ip, #7]
    4d9e:   e001        b.n 0x4da4
    4da0:   1932        adds r2, r6, r4
    4da2:   7002        strb r2, [r0, #0]
    4da4:   1e49        subs r1, r1, #1
    4da6:   b2c9        uxtb r1, r1
    4da8:   d2db        bcs.n 0x4d62
    4daa:   e0b2        b.n 0x4f12
    4dac:   1908        adds r0, r1, r4
    4dae:   f88c 0004   strb.w r0, [ip, #4]
    4db2:   e0ae        b.n 0x4f12
    4db4:   2748        movs r7, #72    ; 0x48
    4db6:   e019        b.n 0x4dec
    4db8:   f7fe fbec   bl 0x3594
    4dbc:   fb90 f1f4   sdiv r1, r0, r4
    4dc0:   fb04 0011   mls r0, r4, r1, r0
    4dc4:   b108        cbz r0, 0x4dca
    4dc6:   2003        movs r0, #3
    4dc8:   e00d        b.n 0x4de6
    4dca:   1eb0        subs r0, r6, #2
    4dcc:   2100        movs r1, #0
    4dce:   f002 f9d3   bl 0x7178
    4dd2:   1ef6        subs r6, r6, #3
    4dd4:   e00a        b.n 0x4dec
    4dd6:   7831        ldrb r1, [r6, #0]
    4dd8:   2902        cmp r1, #2
    4dda:   d801        bhi.n 0x4de0
    4ddc:   7035        strb r5, [r6, #0]
    4dde:   e001        b.n 0x4de4
    4de0:   1e89        subs r1, r1, #2
    4de2:   7031        strb r1, [r6, #0]
    4de4:   1e76        subs r6, r6, #1
    4de6:   1e40        subs r0, r0, #1
    4de8:   b2c0        uxtb r0, r0
    4dea:   d2f4        bcs.n 0x4dd6
    4dec:   1e7f        subs r7, r7, #1
    4dee:   b2ff        uxtb r7, r7
    4df0:   d2e2        bcs.n 0x4db8
    4df2:   e08e        b.n 0x4f12
    4df4:   2807        cmp r0, #7
    4df6:   d93b        bls.n 0x4e70
    4df8:   5c39        ldrb r1, [r7, r0]
    4dfa:   791a        ldrb r2, [r3, #4]
    4dfc:   eb01 0141   add.w r1, r1, r1, lsl #1
    4e00:   eb04 0141   add.w r1, r4, r1, lsl #1
    4e04:   f002 020f   and.w r2, r2, #15
    4e08:   f020 0001   bic.w r0, r0, #1
    4e0c:   5c8a        ldrb r2, [r1, r2]
    4e0e:   2808        cmp r0, #8
    4e10:   d004        beq.n 0x4e1c
    4e12:   280a        cmp r0, #10
    4e14:   d02d        beq.n 0x4e72
    4e16:   280c        cmp r0, #12
    4e18:   d17b        bne.n 0x4f12
    4e1a:   e059        b.n 0x4ed0
    4e1c:   2048        movs r0, #72    ; 0x48
    4e1e:   e024        b.n 0x4e6a
    4e20:   f816 1901   ldrb.w r1, [r6], #-1
    4e24:   b109        cbz r1, 0x4e2a
    4e26:   1eb6        subs r6, r6, #2
    4e28:   e007        b.n 0x4e3a
    4e2a:   f816 1901   ldrb.w r1, [r6], #-1
    4e2e:   b109        cbz r1, 0x4e34
    4e30:   1e76        subs r6, r6, #1
    4e32:   e002        b.n 0x4e3a
    4e34:   f816 1901   ldrb.w r1, [r6], #-1
    4e38:   b1b9        cbz r1, 0x4e6a
    4e3a:   493c        ldr r1, [pc, #240]    ; (0x4f2c)
    4e3c:   f000 0407   and.w r4, r0, #7
    4e40:   eb01 01d0   add.w r1, r1, r0, lsr #3
    4e44:   780b        ldrb r3, [r1, #0]
    4e46:   fa09 f104   lsl.w r1, r9, r4
    4e4a:   420b        tst r3, r1
    4e4c:   d00d        beq.n 0x4e6a
    4e4e:   2103        movs r1, #3
    4e50:   e007        b.n 0x4e62
    4e52:   f816 3f01   ldrb.w r3, [r6, #1]!
    4e56:   4293        cmp r3, r2
    4e58:   d801        bhi.n 0x4e5e
    4e5a:   7035        strb r5, [r6, #0]
    4e5c:   e001        b.n 0x4e62
    4e5e:   1a9b        subs r3, r3, r2
    4e60:   7033        strb r3, [r6, #0]
    4e62:   1e49        subs r1, r1, #1
    4e64:   b2c9        uxtb r1, r1
    4e66:   d2f4        bcs.n 0x4e52
    4e68:   1ef6        subs r6, r6, #3
    4e6a:   1e40        subs r0, r0, #1
    4e6c:   b2c0        uxtb r0, r0
    4e6e:   d2d7        bcs.n 0x4e20
    4e70:   e04f        b.n 0x4f12
    4e72:   f89c 004c   ldrb.w r0, [ip, #76]    ; 0x4c
    4e76:   1c40        adds r0, r0, #1
    4e78:   b2c0        uxtb r0, r0
    4e7a:   f88c 004c   strb.w r0, [ip, #76]    ; 0x4c
    4e7e:   4290        cmp r0, r2
    4e80:   d347        bcc.n 0x4f12
    4e82:   f88c 504c   strb.w r5, [ip, #76]    ; 0x4c
    4e86:   2001        movs r0, #1
    4e88:   eb00 0140   add.w r1, r0, r0, lsl #1
    4e8c:   eb0c 0141   add.w r1, ip, r1, lsl #1
    4e90:   1c40        adds r0, r0, #1
    4e92:   888a        ldrh r2, [r1, #4]
    4e94:   f821 2c02   strh.w r2, [r1, #-2]
    4e98:   798a        ldrb r2, [r1, #6]
    4e9a:   b2c0        uxtb r0, r0
    4e9c:   700a        strb r2, [r1, #0]
    4e9e:   280c        cmp r0, #12
    4ea0:   d3f2        bcc.n 0x4e88
    4ea2:   f8ac 5046   strh.w r5, [ip, #70]    ; 0x46
    4ea6:   f88c 5048   strb.w r5, [ip, #72]    ; 0x48
    4eaa:   200c        movs r0, #12
    4eac:   e008        b.n 0x4ec0
    4eae:   eb00 0140   add.w r1, r0, r0, lsl #1
    4eb2:   eb0c 0141   add.w r1, ip, r1, lsl #1
    4eb6:   f831 2f01   ldrh.w r2, [r1, #1]!
    4eba:   80ca        strh r2, [r1, #6]
    4ebc:   788a        ldrb r2, [r1, #2]
    4ebe:   720a        strb r2, [r1, #8]
    4ec0:   1e40        subs r0, r0, #1
    4ec2:   b2c0        uxtb r0, r0
    4ec4:   d2f3        bcs.n 0x4eae
    4ec6:   f8ac 5007   strh.w r5, [ip, #7]
    4eca:   f88c 5009   strb.w r5, [ip, #9]
    4ece:   e020        b.n 0x4f12
    4ed0:   f89c 0022   ldrb.w r0, [ip, #34]    ; 0x22
    4ed4:   1c40        adds r0, r0, #1
    4ed6:   b2c0        uxtb r0, r0
    4ed8:   f88c 0022   strb.w r0, [ip, #34]    ; 0x22
    4edc:   4290        cmp r0, r2
    4ede:   d318        bcc.n 0x4f12
    4ee0:   480f        ldr r0, [pc, #60]    ; (0x4f20)
    4ee2:   f88c 5022   strb.w r5, [ip, #34]    ; 0x22
    4ee6:   3022        adds r0, #34    ; 0x22
    4ee8:   2204        movs r2, #4
    4eea:   e00f        b.n 0x4f0c
    4eec:   f910 1c01   ldrsb.w r1, [r0, #-1]
    4ef0:   1f40        subs r0, r0, #5
    4ef2:   b159        cbz r1, 0x4f0c
    4ef4:   1c49        adds r1, r1, #1
    4ef6:   b249        sxtb r1, r1
    4ef8:   7101        strb r1, [r0, #4]
    4efa:   78c3        ldrb r3, [r0, #3]
    4efc:   18cc        adds r4, r1, r3
    4efe:   3c0a        subs r4, #10
    4f00:   2c0d        cmp r4, #13
    4f02:   dd03        ble.n 0x4f0c
    4f04:   1a59        subs r1, r3, r1
    4f06:   310a        adds r1, #10
    4f08:   d500        bpl.n 0x4f0c
    4f0a:   7105        strb r5, [r0, #4]
    4f0c:   1e52        subs r2, r2, #1
    4f0e:   b2d2        uxtb r2, r2
    4f10:   d2ec        bcs.n 0x4eec
    4f12:   e8bd 47f0   ldmia.w sp!, {r4, r5, r6, r7, r8, r9, sl, lr}
    4f16:   f000 bc6d   b.w 0x57f4
    4f1a:   0000        movs r0, r0
    4f1c:   0644        lsls r4, r0, #25
    4f1e:   2000        movs r0, #0
    4f20:   00ac        lsls r4, r5, #2
    4f22:   2000        movs r0, #0
    4f24:   0708        lsls r0, r1, #28
    4f26:   2000        movs r0, #0
    4f28:   7e15        ldrb r5, [r2, #24]
    4f2a:   0000        movs r0, r0
    4f2c:   01d0        lsls r0, r2, #7
    4f2e:   2000        movs r0, #0
    4f30:   4a0e        ldr r2, [pc, #56]    ; (0x4f6c)
    4f32:   2000        movs r0, #0
    4f34:   7ad1        ldrb r1, [r2, #11]
    4f36:   b109        cbz r1, 0x4f3c
    4f38:   2001        movs r0, #1
    4f3a:   4770        bx lr
    4f3c:   490c        ldr r1, [pc, #48]    ; (0x4f70)
    4f3e:   780b        ldrb r3, [r1, #0]
    4f40:   2bcf        cmp r3, #207    ; 0xcf
    4f42:   d004        beq.n 0x4f4e
    4f44:   784b        ldrb r3, [r1, #1]
    4f46:   07db        lsls r3, r3, #31
    4f48:   d003        beq.n 0x4f52
    4f4a:   2005        movs r0, #5
    4f4c:   4770        bx lr
    4f4e:   2002        movs r0, #2
    4f50:   4770        bx lr
    4f52:   4b08        ldr r3, [pc, #32]    ; (0x4f74)
    4f54:   7889        ldrb r1, [r1, #2]
    4f56:   f893 30ea   ldrb.w r3, [r3, #234]    ; 0xea
    4f5a:   4299        cmp r1, r3
    4f5c:   d101        bne.n 0x4f62
    4f5e:   2003        movs r0, #3
    4f60:   4770        bx lr
    4f62:   7a11        ldrb r1, [r2, #8]
    4f64:   2900        cmp r1, #0
    4f66:   d0fb        beq.n 0x4f60
    4f68:   2004        movs r0, #4
    4f6a:   4770        bx lr
    4f6c:   0644        lsls r4, r0, #25
    4f6e:   2000        movs r0, #0
    4f70:   0038        movs r0, r7
    4f72:   2000        movs r0, #0
    4f74:   0708        lsls r0, r1, #28
    4f76:   2000        movs r0, #0
    4f78:   2105        movs r1, #5
    4f7a:   4801        ldr r0, [pc, #4]    ; (0x4f80)
    4f7c:   f7ff bc22   b.w 0x47c4
    4f80:   7d90        ldrb r0, [r2, #22]
    4f82:   0000        movs r0, r0
    4f84:   b538        push {r3, r4, r5, lr}
    4f86:   2103        movs r1, #3
    4f88:   4668        mov r0, sp
    4f8a:   f7ff fda3   bl 0x4ad4
    4f8e:   4c0b        ldr r4, [pc, #44]    ; (0x4fbc)
    4f90:   2803        cmp r0, #3
    4f92:   d10e        bne.n 0x4fb2
    4f94:   2303        movs r3, #3
    4f96:   461a        mov r2, r3
    4f98:   4909        ldr r1, [pc, #36]    ; (0x4fc0)
    4f9a:   4668        mov r0, sp
    4f9c:   f7ff fd82   bl 0x4aa4
    4fa0:   b138        cbz r0, 0x4fb2
    4fa2:   78a0        ldrb r0, [r4, #2]
    4fa4:   ea6f 0150   mvn.w r1, r0, lsr #1
    4fa8:   f361 0041   bfi r0, r1, #1, #1
    4fac:   70a0        strb r0, [r4, #2]
    4fae:   f7ff f81d   bl 0x3fec
    4fb2:   78a0        ldrb r0, [r4, #2]
    4fb4:   f3c0 0040   ubfx r0, r0, #1, #1
    4fb8:   bd38        pop {r3, r4, r5, pc}
    4fba:   0000        movs r0, r0
    4fbc:   0708        lsls r0, r1, #28
    4fbe:   2000        movs r0, #0
    4fc0:   7d85        ldrb r5, [r0, #22]
    4fc2:   0000        movs r0, r0
    4fc4:   b510        push {r4, lr}
    4fc6:   4604        mov r4, r0
    4fc8:   0e00        lsrs r0, r0, #24
    4fca:   0780        lsls r0, r0, #30
    4fcc:   d510        bpl.n 0x4ff0
    4fce:   b2e1        uxtb r1, r4
    4fd0:   2912        cmp r1, #18
    4fd2:   d00a        beq.n 0x4fea
    4fd4:   dc04        bgt.n 0x4fe0
    4fd6:   2910        cmp r1, #16
    4fd8:   d007        beq.n 0x4fea
    4fda:   2911        cmp r1, #17
    4fdc:   d114        bne.n 0x5008
    4fde:   e004        b.n 0x4fea
    4fe0:   2913        cmp r1, #19
    4fe2:   d002        beq.n 0x4fea
    4fe4:   295f        cmp r1, #95    ; 0x5f
    4fe6:   d10f        bne.n 0x5008
    4fe8:   e003        b.n 0x4ff2
    4fea:   480a        ldr r0, [pc, #40]    ; (0x5014)
    4fec:   3910        subs r1, #16
    4fee:   7001        strb r1, [r0, #0]
    4ff0:   bd10        pop {r4, pc}
    4ff2:   4809        ldr r0, [pc, #36]    ; (0x5018)
    4ff4:   7880        ldrb r0, [r0, #2]
    4ff6:   b138        cbz r0, 0x5008
    4ff8:   f000 fbf6   bl 0x57e8
    4ffc:   f000 fea4   bl 0x5d48
    5000:   4906        ldr r1, [pc, #24]    ; (0x501c)
    5002:   f247 5030   movw r0, #30000    ; 0x7530
    5006:   80c8        strh r0, [r1, #6]
    5008:   4620        mov r0, r4
    500a:   e8bd 4010   ldmia.w sp!, {r4, lr}
    500e:   f000 bacb   b.w 0x55a8
    5012:   0000        movs r0, r0
    5014:   002f        movs r7, r5
    5016:   2000        movs r0, #0
    5018:   006c        lsls r4, r5, #1
    501a:   2000        movs r0, #0
    501c:   0000        movs r0, r0
    501e:   2000        movs r0, #0
    5020:   481a        ldr r0, [pc, #104]    ; (0x508c)
    5022:   78c1        ldrb r1, [r0, #3]
    5024:   0789        lsls r1, r1, #30
    5026:   d518        bpl.n 0x505a
    5028:   7801        ldrb r1, [r0, #0]
    502a:   2301        movs r3, #1
    502c:   4a18        ldr r2, [pc, #96]    ; (0x5090)
    502e:   29cf        cmp r1, #207    ; 0xcf
    5030:   d00e        beq.n 0x5050
    5032:   7841        ldrb r1, [r0, #1]
    5034:   07c9        lsls r1, r1, #31
    5036:   d010        beq.n 0x505a
    5038:   4611        mov r1, r2
    503a:   7880        ldrb r0, [r0, #2]
    503c:   6809        ldr r1, [r1, #0]
    503e:   2813        cmp r0, #19
    5040:   d013        beq.n 0x506a
    5042:   2815        cmp r0, #21
    5044:   d013        beq.n 0x506e
    5046:   2817        cmp r0, #23
    5048:   d014        beq.n 0x5074
    504a:   282b        cmp r0, #43    ; 0x2b
    504c:   d105        bne.n 0x505a
    504e:   e014        b.n 0x507a
    5050:   79d0        ldrb r0, [r2, #7]
    5052:   2804        cmp r0, #4
    5054:   d007        beq.n 0x5066
    5056:   2805        cmp r0, #5
    5058:   d001        beq.n 0x505e
    505a:   2000        movs r0, #0
    505c:   4770        bx lr
    505e:   7213        strb r3, [r2, #8]
    5060:   2006        movs r0, #6
    5062:   71d0        strb r0, [r2, #7]
    5064:   e010        b.n 0x5088
    5066:   71d3        strb r3, [r2, #7]
    5068:   e00e        b.n 0x5088
    506a:   310f        adds r1, #15
    506c:   e000        b.n 0x5070
    506e:   3164        adds r1, #100    ; 0x64
    5070:   6011        str r1, [r2, #0]
    5072:   e009        b.n 0x5088
    5074:   f501 71fa   add.w r1, r1, #500    ; 0x1f4
    5078:   e7fa        b.n 0x5070
    507a:   2008        movs r0, #8
    507c:   4905        ldr r1, [pc, #20]    ; (0x5094)
    507e:   71d0        strb r0, [r2, #7]
    5080:   2000        movs r0, #0
    5082:   80c8        strh r0, [r1, #6]
    5084:   4804        ldr r0, [pc, #16]    ; (0x5098)
    5086:   7003        strb r3, [r0, #0]
    5088:   2001        movs r0, #1
    508a:   4770        bx lr
    508c:   0038        movs r0, r7
    508e:   2000        movs r0, #0
    5090:   196c        adds r4, r5, r5
    5092:   2000        movs r0, #0
    5094:   0000        movs r0, r0
    5096:   2000        movs r0, #0
    5098:   0644        lsls r4, r0, #25
    509a:   2000        movs r0, #0
    509c:   e92d 4ff8   stmdb sp!, {r3, r4, r5, r6, r7, r8, r9, sl, fp, lr}
    50a0:   f8df 9224   ldr.w r9, [pc, #548]    ; 0x52c8
    50a4:   f04f 0800   mov.w r8, #0
    50a8:   f8b9 0006   ldrh.w r0, [r9, #6]
    50ac:   b118        cbz r0, 0x50b6
    50ae:   f247 5130   movw r1, #30000    ; 0x7530
    50b2:   f8a9 1006   strh.w r1, [r9, #6]
    50b6:   f7ff ff3b   bl 0x4f30
    50ba:   2601        movs r6, #1
    50bc:   4d83        ldr r5, [pc, #524]    ; (0x52cc)
    50be:   f8df a210   ldr.w sl, [pc, #528]    ; 0x52d0
    50c2:   2700        movs r7, #0
    50c4:   f8df b20c   ldr.w fp, [pc, #524]    ; 0x52d4
    50c8:   4c83        ldr r4, [pc, #524]    ; (0x52d8)
    50ca:   2806        cmp r0, #6
    50cc:   d256        bcs.n 0x517c
    50ce:   e8df f000   tbb [pc, r0]
    50d2:   03a5        lsls r5, r4, #14
    50d4:   562f        ldrsb r7, [r5, r0]
    50d6:   835c        strh r4, [r3, #26]
    50d8:   78e0        ldrb r0, [r4, #3]
    50da:   0780        lsls r0, r0, #30
    50dc:   d570        bpl.n 0x51c0
    50de:   f894 8002   ldrb.w r8, [r4, #2]
    50e2:   4640        mov r0, r8
    50e4:   f002 fd28   bl 0x7b38
    50e8:   28ff        cmp r0, #255    ; 0xff
    50ea:   d01f        beq.n 0x512c
    50ec:   4a7c        ldr r2, [pc, #496]    ; (0x52e0)
    50ee:   497b        ldr r1, [pc, #492]    ; (0x52dc)
    50f0:   f852 3f06   ldr.w r3, [r2, #6]!
    50f4:   f841 3fe8   str.w r3, [r1, #232]!
    50f8:   6852        ldr r2, [r2, #4]
    50fa:   604a        str r2, [r1, #4]
    50fc:   4972        ldr r1, [pc, #456]    ; (0x52c8)
    50fe:   4a77        ldr r2, [pc, #476]    ; (0x52dc)
    5100:   1cc9        adds r1, r1, #3
    5102:   7849        ldrb r1, [r1, #1]
    5104:   b111        cbz r1, 0x510c
    5106:   2901        cmp r1, #1
    5108:   d004        beq.n 0x5114
    510a:   e009        b.n 0x5120
    510c:   f882 80e8   strb.w r8, [r2, #232]    ; 0xe8
    5110:   212e        movs r1, #46    ; 0x2e
    5112:   e002        b.n 0x511a
    5114:   f882 80e9   strb.w r8, [r2, #233]    ; 0xe9
    5118:   2119        movs r1, #25
    511a:   4410        add r0, r2
    511c:   f880 10e8   strb.w r1, [r0, #232]    ; 0xe8
    5120:   f7fe ff64   bl 0x3fec
    5124:   71ee        strb r6, [r5, #7]
    5126:   72ef        strb r7, [r5, #11]
    5128:   f000 fb5e   bl 0x57e8
    512c:   7027        strb r7, [r4, #0]
    512e:   e021        b.n 0x5174
    5130:   78e0        ldrb r0, [r4, #3]
    5132:   0780        lsls r0, r0, #30
    5134:   d516        bpl.n 0x5164
    5136:   7b28        ldrb r0, [r5, #12]
    5138:   1e41        subs r1, r0, #1
    513a:   2906        cmp r1, #6
    513c:   d212        bcs.n 0x5164
    513e:   2107        movs r1, #7
    5140:   fbb0 f2f1   udiv r2, r0, r1
    5144:   fb01 0012   mls r0, r1, r2, r0
    5148:   1c40        adds r0, r0, #1
    514a:   7328        strb r0, [r5, #12]
    514c:   2804        cmp r0, #4
    514e:   d002        beq.n 0x5156
    5150:   2807        cmp r0, #7
    5152:   d106        bne.n 0x5162
    5154:   e002        b.n 0x515c
    5156:   2005        movs r0, #5
    5158:   7328        strb r0, [r5, #12]
    515a:   e002        b.n 0x5162
    515c:   6820        ldr r0, [r4, #0]
    515e:   f000 fa25   bl 0x55ac
    5162:   702e        strb r6, [r5, #0]
    5164:   78e0        ldrb r0, [r4, #3]
    5166:   f3c0 0040   ubfx r0, r0, #1, #1
    516a:   7228        strb r0, [r5, #8]
    516c:   f89a 0006   ldrb.w r0, [sl, #6]
    5170:   2801        cmp r0, #1
    5172:   d001        beq.n 0x5178
    5174:   2001        movs r0, #1
    5176:   e000        b.n 0x517a
    5178:   2000        movs r0, #0
    517a:   4680        mov r8, r0
    517c:   e081        b.n 0x5282
    517e:   78e0        ldrb r0, [r4, #3]
    5180:   f3c0 0140   ubfx r1, r0, #1, #1
    5184:   f889 1000   strb.w r1, [r9]
    5188:   e07b        b.n 0x5282
    518a:   79a8        ldrb r0, [r5, #6]
    518c:   b110        cbz r0, 0x5194
    518e:   2000        movs r0, #0
    5190:   e8bd 8ff8   ldmia.w sp!, {r3, r4, r5, r6, r7, r8, r9, sl, fp, pc}
    5194:   78e0        ldrb r0, [r4, #3]
    5196:   0780        lsls r0, r0, #30
    5198:   d576        bpl.n 0x5288
    519a:   78a0        ldrb r0, [r4, #2]
    519c:   4951        ldr r1, [pc, #324]    ; (0x52e4)
    519e:   281b        cmp r0, #27
    51a0:   5c09        ldrb r1, [r1, r0]
    51a2:   7021        strb r1, [r4, #0]
    51a4:   d00a        beq.n 0x51bc
    51a6:   2822        cmp r0, #34    ; 0x22
    51a8:   d00b        beq.n 0x51c2
    51aa:   2823        cmp r0, #35    ; 0x23
    51ac:   d00d        beq.n 0x51ca
    51ae:   282a        cmp r0, #42    ; 0x2a
    51b0:   d00d        beq.n 0x51ce
    51b2:   6820        ldr r0, [r4, #0]
    51b4:   f000 f9fa   bl 0x55ac
    51b8:   7027        strb r7, [r4, #0]
    51ba:   e062        b.n 0x5282
    51bc:   2001        movs r0, #1
    51be:   e001        b.n 0x51c4
    51c0:   e062        b.n 0x5288
    51c2:   2002        movs r0, #2
    51c4:   f7fe fc78   bl 0x3ab8
    51c8:   e7f6        b.n 0x51b8
    51ca:   2001        movs r0, #1
    51cc:   e000        b.n 0x51d0
    51ce:   2002        movs r0, #2
    51d0:   f7fe fc66   bl 0x3aa0
    51d4:   702e        strb r6, [r5, #0]
    51d6:   e7ef        b.n 0x51b8
    51d8:   f89a 1006   ldrb.w r1, [sl, #6]
    51dc:   2901        cmp r1, #1
    51de:   d150        bne.n 0x5282
    51e0:   f89a 0007   ldrb.w r0, [sl, #7]
    51e4:   2802        cmp r0, #2
    51e6:   d04c        beq.n 0x5282
    51e8:   4a3d        ldr r2, [pc, #244]    ; (0x52e0)
    51ea:   2000        movs r0, #0
    51ec:   78a1        ldrb r1, [r4, #2]
    51ee:   321d        adds r2, #29
    51f0:   f812 3010   ldrb.w r3, [r2, r0, lsl #1]
    51f4:   4299        cmp r1, r3
    51f6:   d10c        bne.n 0x5212
    51f8:   eb02 0040   add.w r0, r2, r0, lsl #1
    51fc:   7840        ldrb r0, [r0, #1]
    51fe:   7020        strb r0, [r4, #0]
    5200:   78e0        ldrb r0, [r4, #3]
    5202:   f040 0001   orr.w r0, r0, #1
    5206:   70e0        strb r0, [r4, #3]
    5208:   7860        ldrb r0, [r4, #1]
    520a:   f020 0001   bic.w r0, r0, #1
    520e:   7060        strb r0, [r4, #1]
    5210:   e037        b.n 0x5282
    5212:   1c40        adds r0, r0, #1
    5214:   b2c0        uxtb r0, r0
    5216:   2815        cmp r0, #21
    5218:   d3ea        bcc.n 0x51f0
    521a:   e032        b.n 0x5282
    521c:   78e0        ldrb r0, [r4, #3]
    521e:   0780        lsls r0, r0, #30
    5220:   d532        bpl.n 0x5288
    5222:   7820        ldrb r0, [r4, #0]
    5224:   282c        cmp r0, #44    ; 0x2c
    5226:   d003        beq.n 0x5230
    5228:   28e2        cmp r0, #226    ; 0xe2
    522a:   d001        beq.n 0x5230
    522c:   28e3        cmp r0, #227    ; 0xe3
    522e:   d112        bne.n 0x5256
    5230:   2103        movs r1, #3
    5232:   4668        mov r0, sp
    5234:   f7ff fc4e   bl 0x4ad4
    5238:   2803        cmp r0, #3
    523a:   d10c        bne.n 0x5256
    523c:   2303        movs r3, #3
    523e:   461a        mov r2, r3
    5240:   4927        ldr r1, [pc, #156]    ; (0x52e0)
    5242:   4668        mov r0, sp
    5244:   f7ff fc2e   bl 0x4aa4
    5248:   b128        cbz r0, 0x5256
    524a:   7a68        ldrb r0, [r5, #9]
    524c:   43c0        mvns r0, r0
    524e:   7268        strb r0, [r5, #9]
    5250:   71ee        strb r6, [r5, #7]
    5252:   7027        strb r7, [r4, #0]
    5254:   e002        b.n 0x525c
    5256:   7820        ldrb r0, [r4, #0]
    5258:   28e5        cmp r0, #229    ; 0xe5
    525a:   d012        beq.n 0x5282
    525c:   f899 0000   ldrb.w r0, [r9]
    5260:   2801        cmp r0, #1
    5262:   d10e        bne.n 0x5282
    5264:   7820        ldrb r0, [r4, #0]
    5266:   f7fe fed9   bl 0x401c
    526a:   491d        ldr r1, [pc, #116]    ; (0x52e0)
    526c:   3147        adds r1, #71    ; 0x47
    526e:   eb01 0140   add.w r1, r1, r0, lsl #1
    5272:   7849        ldrb r1, [r1, #1]
    5274:   f80b 1000   strb.w r1, [fp, r0]
    5278:   7021        strb r1, [r4, #0]
    527a:   78e0        ldrb r0, [r4, #3]
    527c:   f040 0001   orr.w r0, r0, #1
    5280:   70e0        strb r0, [r4, #3]
    5282:   78e0        ldrb r0, [r4, #3]
    5284:   0780        lsls r0, r0, #30
    5286:   d40c        bmi.n 0x52a2
    5288:   7820        ldrb r0, [r4, #0]
    528a:   f7fe fec7   bl 0x401c
    528e:   f81b 1000   ldrb.w r1, [fp, r0]
    5292:   b131        cbz r1, 0x52a2
    5294:   7021        strb r1, [r4, #0]
    5296:   f80b 7000   strb.w r7, [fp, r0]
    529a:   78e0        ldrb r0, [r4, #3]
    529c:   f040 0001   orr.w r0, r0, #1
    52a0:   70e0        strb r0, [r4, #3]
    52a2:   7820        ldrb r0, [r4, #0]
    52a4:   28c8        cmp r0, #200    ; 0xc8
    52a6:   d107        bne.n 0x52b8
    52a8:   f89a 0006   ldrb.w r0, [sl, #6]
    52ac:   2801        cmp r0, #1
    52ae:   d003        beq.n 0x52b8
    52b0:   6820        ldr r0, [r4, #0]
    52b2:   f000 fad1   bl 0x5858
    52b6:   b108        cbz r0, 0x52bc
    52b8:   4640        mov r0, r8
    52ba:   e769        b.n 0x5190
    52bc:   78e0        ldrb r0, [r4, #3]
    52be:   f040 0001   orr.w r0, r0, #1
    52c2:   70e0        strb r0, [r4, #3]
    52c4:   2001        movs r0, #1
    52c6:   e763        b.n 0x5190
    52c8:   0000        movs r0, r0
    52ca:   2000        movs r0, #0
    52cc:   0644        lsls r4, r0, #25
    52ce:   2000        movs r0, #0
    52d0:   196c        adds r4, r5, r5
    52d2:   2000        movs r0, #0
    52d4:   008d        lsls r5, r1, #2
    52d6:   2000        movs r0, #0
    52d8:   0038        movs r0, r7
    52da:   2000        movs r0, #0
    52dc:   0708        lsls r0, r1, #28
    52de:   2000        movs r0, #0
    52e0:   7d82        ldrb r2, [r0, #22]
    52e2:   0000        movs r0, r0
    52e4:   02de        lsls r6, r3, #11
    52e6:   2000        movs r0, #0
    52e8:   b570        push {r4, r5, r6, lr}
    52ea:   4c1b        ldr r4, [pc, #108]    ; (0x5358)
    52ec:   78e0        ldrb r0, [r4, #3]
    52ee:   07c1        lsls r1, r0, #31
    52f0:   d005        beq.n 0x52fe
    52f2:   7820        ldrb r0, [r4, #0]
    52f4:   28c8        cmp r0, #200    ; 0xc8
    52f6:   d101        bne.n 0x52fc
    52f8:   202c        movs r0, #44    ; 0x2c
    52fa:   7020        strb r0, [r4, #0]
    52fc:   bd70        pop {r4, r5, r6, pc}
    52fe:   4916        ldr r1, [pc, #88]    ; (0x5358)
    5300:   4a16        ldr r2, [pc, #88]    ; (0x535c)
    5302:   4b17        ldr r3, [pc, #92]    ; (0x5360)
    5304:   7889        ldrb r1, [r1, #2]
    5306:   0780        lsls r0, r0, #30
    5308:   d515        bpl.n 0x5336
    530a:   7865        ldrb r5, [r4, #1]
    530c:   0668        lsls r0, r5, #25
    530e:   d5f5        bpl.n 0x52fc
    5310:   2000        movs r0, #0
    5312:   f812 6010   ldrb.w r6, [r2, r0, lsl #1]
    5316:   42b1        cmp r1, r6
    5318:   d108        bne.n 0x532c
    531a:   eb02 0140   add.w r1, r2, r0, lsl #1
    531e:   7849        ldrb r1, [r1, #1]
    5320:   7021        strb r1, [r4, #0]
    5322:   5419        strb r1, [r3, r0]
    5324:   f025 0001   bic.w r0, r5, #1
    5328:   7060        strb r0, [r4, #1]
    532a:   bd70        pop {r4, r5, r6, pc}
    532c:   1c40        adds r0, r0, #1
    532e:   b2c0        uxtb r0, r0
    5330:   2815        cmp r0, #21
    5332:   d3ee        bcc.n 0x5312
    5334:   bd70        pop {r4, r5, r6, pc}
    5336:   2000        movs r0, #0
    5338:   f812 5010   ldrb.w r5, [r2, r0, lsl #1]
    533c:   42a9        cmp r1, r5
    533e:   d105        bne.n 0x534c
    5340:   5c1d        ldrb r5, [r3, r0]
    5342:   b11d        cbz r5, 0x534c
    5344:   7025        strb r5, [r4, #0]
    5346:   2100        movs r1, #0
    5348:   5419        strb r1, [r3, r0]
    534a:   bd70        pop {r4, r5, r6, pc}
    534c:   1c40        adds r0, r0, #1
    534e:   b2c0        uxtb r0, r0
    5350:   2815        cmp r0, #21
    5352:   d3f1        bcc.n 0x5338
    5354:   bd70        pop {r4, r5, r6, pc}
    5356:   0000        movs r0, r0
    5358:   0038        movs r0, r7
    535a:   2000        movs r0, #0
    535c:   7d9f        ldrb r7, [r3, #22]
    535e:   0000        movs r0, r0
    5360:   0078        lsls r0, r7, #1
    5362:   2000        movs r0, #0
    5364:   4906        ldr r1, [pc, #24]    ; (0x5380)
    5366:   b510        push {r4, lr}
    5368:   6809        ldr r1, [r1, #0]
    536a:   8802        ldrh r2, [r0, #0]
    536c:   800a        strh r2, [r1, #0]
    536e:   7880        ldrb r0, [r0, #2]
    5370:   7088        strb r0, [r1, #2]
    5372:   f000 fa3f   bl 0x57f4
    5376:   e8bd 4010   ldmia.w sp!, {r4, lr}
    537a:   f7fe be37   b.w 0x3fec
    537e:   0000        movs r0, r0
    5380:   00ac        lsls r4, r5, #2
    5382:   2000        movs r0, #0
    5384:   e92d 41f0   stmdb sp!, {r4, r5, r6, r7, r8, lr}
    5388:   4c13        ldr r4, [pc, #76]    ; (0x53d8)
    538a:   2500        movs r5, #0
    538c:   79e0        ldrb r0, [r4, #7]
    538e:   b118        cbz r0, 0x5398
    5390:   2000        movs r0, #0
    5392:   f000 fff1   bl 0x6378
    5396:   71e5        strb r5, [r4, #7]
    5398:   4f10        ldr r7, [pc, #64]    ; (0x53dc)
    539a:   f04f 0601   mov.w r6, #1
    539e:   7838        ldrb r0, [r7, #0]
    53a0:   07c0        lsls r0, r0, #31
    53a2:   d008        beq.n 0x53b6
    53a4:   2001        movs r0, #1
    53a6:   f7ff f9b9   bl 0x471c
    53aa:   b120        cbz r0, 0x53b6
    53ac:   72e6        strb r6, [r4, #11]
    53ae:   7838        ldrb r0, [r7, #0]
    53b0:   f020 0001   bic.w r0, r0, #1
    53b4:   7038        strb r0, [r7, #0]
    53b6:   4909        ldr r1, [pc, #36]    ; (0x53dc)
    53b8:   1ec9        subs r1, r1, #3
    53ba:   88c8        ldrh r0, [r1, #6]
    53bc:   2801        cmp r0, #1
    53be:   d108        bne.n 0x53d2
    53c0:   4807        ldr r0, [pc, #28]    ; (0x53e0)
    53c2:   79c2        ldrb r2, [r0, #7]
    53c4:   b10a        cbz r2, 0x53ca
    53c6:   2208        movs r2, #8
    53c8:   71c2        strb r2, [r0, #7]
    53ca:   71a5        strb r5, [r4, #6]
    53cc:   7026        strb r6, [r4, #0]
    53ce:   72e5        strb r5, [r4, #11]
    53d0:   80cd        strh r5, [r1, #6]
    53d2:   2001        movs r0, #1
    53d4:   e8bd 81f0   ldmia.w sp!, {r4, r5, r6, r7, r8, pc}
    53d8:   0644        lsls r4, r0, #25
    53da:   2000        movs r0, #0
    53dc:   0003        movs r3, r0
    53de:   2000        movs r0, #0
    53e0:   196c        adds r4, r5, r5
    53e2:   2000        movs r0, #0
    53e4:   28ff        cmp r0, #255    ; 0xff
    53e6:   d206        bcs.n 0x53f6
    53e8:   302b        adds r0, #43    ; 0x2b
    53ea:   28ff        cmp r0, #255    ; 0xff
    53ec:   d901        bls.n 0x53f2
    53ee:   20ff        movs r0, #255    ; 0xff
    53f0:   4770        bx lr
    53f2:   b2c0        uxtb r0, r0
    53f4:   4770        bx lr
    53f6:   2000        movs r0, #0
    53f8:   4770        bx lr
    53fa:   0000        movs r0, r0
    53fc:   b573        push {r0, r1, r4, r5, r6, lr}
    53fe:   f5b0 7f00   cmp.w r0, #512    ; 0x200
    5402:   d22d        bcs.n 0x5460
    5404:   f8bd 4004   ldrh.w r4, [sp, #4]
    5408:   f5b4 6f80   cmp.w r4, #1024    ; 0x400
    540c:   d228        bcs.n 0x5460
    540e:   0a01        lsrs r1, r0, #8
    5410:   4a1c        ldr r2, [pc, #112]    ; (0x5484)
    5412:   b2c0        uxtb r0, r0
    5414:   ebc1 01c1   rsb r1, r1, r1, lsl #3
    5418:   5c10        ldrb r0, [r2, r0]
    541a:   0049        lsls r1, r1, #1
    541c:   28ff        cmp r0, #255    ; 0xff
    541e:   d01f        beq.n 0x5460
    5420:   eb00 0281   add.w r2, r0, r1, lsl #2
    5424:   eb01 0190   add.w r1, r1, r0, lsr #2
    5428:   3170        adds r1, #112    ; 0x70
    542a:   b28b        uxth r3, r1
    542c:   0780        lsls r0, r0, #30
    542e:   0f41        lsrs r1, r0, #29
    5430:   2603        movs r6, #3
    5432:   4d15        ldr r5, [pc, #84]    ; (0x5488)
    5434:   b292        uxth r2, r2
    5436:   2c03        cmp r4, #3
    5438:   d014        beq.n 0x5464
    543a:   f89d 0004   ldrb.w r0, [sp, #4]
    543e:   442a        add r2, r5
    5440:   28ff        cmp r0, #255    ; 0xff
    5442:   f882 00f0   strb.w r0, [r2, #240]    ; 0xf0
    5446:   d009        beq.n 0x545c
    5448:   18e8        adds r0, r5, r3
    544a:   408e        lsls r6, r1
    544c:   f810 2ff0   ldrb.w r2, [r0, #240]!
    5450:   f89d 3005   ldrb.w r3, [sp, #5]
    5454:   43b2        bics r2, r6
    5456:   408b        lsls r3, r1
    5458:   431a        orrs r2, r3
    545a:   7002        strb r2, [r0, #0]
    545c:   2000        movs r0, #0
    545e:   bd7c        pop {r2, r3, r4, r5, r6, pc}
    5460:   2003        movs r0, #3
    5462:   bd7c        pop {r2, r3, r4, r5, r6, pc}
    5464:   18a8        adds r0, r5, r2
    5466:   f890 00f0   ldrb.w r0, [r0, #240]    ; 0xf0
    546a:   28ff        cmp r0, #255    ; 0xff
    546c:   d0f9        beq.n 0x5462
    546e:   18ea        adds r2, r5, r3
    5470:   408e        lsls r6, r1
    5472:   f892 20f0   ldrb.w r2, [r2, #240]    ; 0xf0
    5476:   f1c1 0108   rsb r1, r1, #8
    547a:   4032        ands r2, r6
    547c:   408a        lsls r2, r1
    547e:   4410        add r0, r2
    5480:   b280        uxth r0, r0
    5482:   bd7c        pop {r2, r3, r4, r5, r6, pc}
    5484:   01de        lsls r6, r3, #7
    5486:   2000        movs r0, #0
    5488:   0708        lsls r0, r1, #28
    548a:   2000        movs r0, #0
    548c:   4814        ldr r0, [pc, #80]    ; (0x54e0)
    548e:   7a41        ldrb r1, [r0, #9]
    5490:   4814        ldr r0, [pc, #80]    ; (0x54e4)
    5492:   b149        cbz r1, 0x54a8
    5494:   2150        movs r1, #80    ; 0x50
    5496:   7041        strb r1, [r0, #1]
    5498:   2151        movs r1, #81    ; 0x51
    549a:   7241        strb r1, [r0, #9]
    549c:   2152        movs r1, #82    ; 0x52
    549e:   f880 102f   strb.w r1, [r0, #47]    ; 0x2f
    54a2:   214f        movs r1, #79    ; 0x4f
    54a4:   f880 102b   strb.w r1, [r0, #43]    ; 0x2b
    54a8:   490f        ldr r1, [pc, #60]    ; (0x54e8)
    54aa:   22e8        movs r2, #232    ; 0xe8
    54ac:   f811 3fe8   ldrb.w r3, [r1, #232]!
    54b0:   54c2        strb r2, [r0, r3]
    54b2:   784b        ldrb r3, [r1, #1]
    54b4:   22cf        movs r2, #207    ; 0xcf
    54b6:   54c2        strb r2, [r0, r3]
    54b8:   788b        ldrb r3, [r1, #2]
    54ba:   22c9        movs r2, #201    ; 0xc9
    54bc:   54c2        strb r2, [r0, r3]
    54be:   78cb        ldrb r3, [r1, #3]
    54c0:   22e0        movs r2, #224    ; 0xe0
    54c2:   54c2        strb r2, [r0, r3]
    54c4:   790b        ldrb r3, [r1, #4]
    54c6:   22e3        movs r2, #227    ; 0xe3
    54c8:   54c2        strb r2, [r0, r3]
    54ca:   794b        ldrb r3, [r1, #5]
    54cc:   22e2        movs r2, #226    ; 0xe2
    54ce:   54c2        strb r2, [r0, r3]
    54d0:   798b        ldrb r3, [r1, #6]
    54d2:   22c8        movs r2, #200    ; 0xc8
    54d4:   54c2        strb r2, [r0, r3]
    54d6:   79c9        ldrb r1, [r1, #7]
    54d8:   222c        movs r2, #44    ; 0x2c
    54da:   5442        strb r2, [r0, r1]
    54dc:   4770        bx lr
    54de:   0000        movs r0, r0
    54e0:   0644        lsls r4, r0, #25
    54e2:   2000        movs r0, #0
    54e4:   02de        lsls r6, r3, #11
    54e6:   2000        movs r0, #0
    54e8:   0708        lsls r0, r1, #28
    54ea:   2000        movs r0, #0
    54ec:   4b20        ldr r3, [pc, #128]    ; (0x5570)
    54ee:   b510        push {r4, lr}
    54f0:   78d8        ldrb r0, [r3, #3]
    54f2:   4920        ldr r1, [pc, #128]    ; (0x5574)
    54f4:   5c08        ldrb r0, [r1, r0]
    54f6:   eb00 0080   add.w r0, r0, r0, lsl #2
    54fa:   18c1        adds r1, r0, r3
    54fc:   481e        ldr r0, [pc, #120]    ; (0x5578)
    54fe:   1d09        adds r1, r1, #4
    5500:   6001        str r1, [r0, #0]
    5502:   780a        ldrb r2, [r1, #0]
    5504:   b93a        cbnz r2, 0x5516
    5506:   784a        ldrb r2, [r1, #1]
    5508:   b92a        cbnz r2, 0x5516
    550a:   22ff        movs r2, #255    ; 0xff
    550c:   700a        strb r2, [r1, #0]
    550e:   6801        ldr r1, [r0, #0]
    5510:   704a        strb r2, [r1, #1]
    5512:   6801        ldr r1, [r0, #0]
    5514:   708a        strb r2, [r1, #2]
    5516:   78d9        ldrb r1, [r3, #3]
    5518:   2903        cmp r1, #3
    551a:   d80e        bhi.n 0x553a
    551c:   2200        movs r2, #0
    551e:   2901        cmp r1, #1
    5520:   d004        beq.n 0x552c
    5522:   2902        cmp r1, #2
    5524:   d004        beq.n 0x5530
    5526:   2903        cmp r1, #3
    5528:   d11d        bne.n 0x5566
    552a:   e004        b.n 0x5536
    552c:   6042        str r2, [r0, #4]
    552e:   e01a        b.n 0x5566
    5530:   7102        strb r2, [r0, #4]
    5532:   7142        strb r2, [r0, #5]
    5534:   e017        b.n 0x5566
    5536:   21d8        movs r1, #216    ; 0xd8
    5538:   e00b        b.n 0x5552
    553a:   2907        cmp r1, #7
    553c:   d913        bls.n 0x5566
    553e:   f021 0101   bic.w r1, r1, #1
    5542:   2908        cmp r1, #8
    5544:   d0f7        beq.n 0x5536
    5546:   290a        cmp r1, #10
    5548:   d002        beq.n 0x5550
    554a:   290c        cmp r1, #12
    554c:   d10b        bne.n 0x5566
    554e:   e004        b.n 0x555a
    5550:   2149        movs r1, #73    ; 0x49
    5552:   1d00        adds r0, r0, #4
    5554:   f7fe f849   bl 0x35ea
    5558:   e005        b.n 0x5566
    555a:   211f        movs r1, #31
    555c:   1d00        adds r0, r0, #4
    555e:   f7fe f844   bl 0x35ea
    5562:   f001 fd07   bl 0x6f74
    5566:   4905        ldr r1, [pc, #20]    ; (0x557c)
    5568:   2001        movs r0, #1
    556a:   7008        strb r0, [r1, #0]
    556c:   bd10        pop {r4, pc}
    556e:   0000        movs r0, r0
    5570:   0708        lsls r0, r1, #28
    5572:   2000        movs r0, #0
    5574:   7e15        ldrb r5, [r2, #24]
    5576:   0000        movs r0, r0
    5578:   00ac        lsls r4, r5, #2
    557a:   2000        movs r0, #0
    557c:   0644        lsls r4, r0, #25
    557e:   2000        movs r0, #0
    5580:   4808        ldr r0, [pc, #32]    ; (0x55a4)
    5582:   78c0        ldrb r0, [r0, #3]
    5584:   2808        cmp r0, #8
    5586:   d00a        beq.n 0x559e
    5588:   dc03        bgt.n 0x5592
    558a:   b140        cbz r0, 0x559e
    558c:   2801        cmp r0, #1
    558e:   d104        bne.n 0x559a
    5590:   e005        b.n 0x559e
    5592:   280a        cmp r0, #10
    5594:   d003        beq.n 0x559e
    5596:   280c        cmp r0, #12
    5598:   d001        beq.n 0x559e
    559a:   2000        movs r0, #0
    559c:   4770        bx lr
    559e:   2001        movs r0, #1
    55a0:   4770        bx lr
    55a2:   0000        movs r0, r0
    55a4:   0708        lsls r0, r1, #28
    55a6:   2000        movs r0, #0
    55a8:   4770        bx lr
    55aa:   0000        movs r0, r0
    55ac:   b510        push {r4, lr}
    55ae:   4b4c        ldr r3, [pc, #304]    ; (0x56e0)
    55b0:   4604        mov r4, r0
    55b2:   b2c1        uxtb r1, r0
    55b4:   78d8        ldrb r0, [r3, #3]
    55b6:   4a4b        ldr r2, [pc, #300]    ; (0x56e4)
    55b8:   2919        cmp r1, #25
    55ba:   d05b        beq.n 0x5674
    55bc:   dc14        bgt.n 0x55e8
    55be:   2914        cmp r1, #20
    55c0:   d019        beq.n 0x55f6
    55c2:   dc04        bgt.n 0x55ce
    55c4:   2906        cmp r1, #6
    55c6:   d055        beq.n 0x5674
    55c8:   2908        cmp r1, #8
    55ca:   d123        bne.n 0x5614
    55cc:   e013        b.n 0x55f6
    55ce:   4844        ldr r0, [pc, #272]    ; (0x56e0)
    55d0:   78c0        ldrb r0, [r0, #3]
    55d2:   1c40        adds r0, r0, #1
    55d4:   b2c2        uxtb r2, r0
    55d6:   2915        cmp r1, #21
    55d8:   d03e        beq.n 0x5658
    55da:   2917        cmp r1, #23
    55dc:   d11a        bne.n 0x5614
    55de:   70da        strb r2, [r3, #3]
    55e0:   2a03        cmp r2, #3
    55e2:   d93f        bls.n 0x5664
    55e4:   2000        movs r0, #0
    55e6:   e03c        b.n 0x5662
    55e8:   2936        cmp r1, #54    ; 0x36
    55ea:   d043        beq.n 0x5674
    55ec:   dc13        bgt.n 0x5616
    55ee:   291a        cmp r1, #26
    55f0:   d001        beq.n 0x55f6
    55f2:   2929        cmp r1, #41    ; 0x29
    55f4:   d10e        bne.n 0x5614
    55f6:   f7ff ffc3   bl 0x5580
    55fa:   2800        cmp r0, #0
    55fc:   d00a        beq.n 0x5614
    55fe:   2908        cmp r1, #8
    5600:   d015        beq.n 0x562e
    5602:   2914        cmp r1, #20
    5604:   d013        beq.n 0x562e
    5606:   291a        cmp r1, #26
    5608:   d011        beq.n 0x562e
    560a:   2929        cmp r1, #41    ; 0x29
    560c:   d102        bne.n 0x5614
    560e:   4936        ldr r1, [pc, #216]    ; (0x56e8)
    5610:   2001        movs r0, #1
    5612:   7088        strb r0, [r1, #2]
    5614:   bd10        pop {r4, pc}
    5616:   2937        cmp r1, #55    ; 0x37
    5618:   d02c        beq.n 0x5674
    561a:   29cf        cmp r1, #207    ; 0xcf
    561c:   d1fa        bne.n 0x5614
    561e:   f7ff f86b   bl 0x46f8
    5622:   f000 f8e7   bl 0x57f4
    5626:   e8bd 4010   ldmia.w sp!, {r4, lr}
    562a:   f7fe bcdf   b.w 0x3fec
    562e:   2914        cmp r1, #20
    5630:   d005        beq.n 0x563e
    5632:   482e        ldr r0, [pc, #184]    ; (0x56ec)
    5634:   7800        ldrb r0, [r0, #0]
    5636:   281a        cmp r0, #26
    5638:   d00a        beq.n 0x5650
    563a:   2808        cmp r0, #8
    563c:   d00a        beq.n 0x5654
    563e:   2100        movs r1, #0
    5640:   6810        ldr r0, [r2, #0]
    5642:   2201        movs r2, #1
    5644:   1844        adds r4, r0, r1
    5646:   7820        ldrb r0, [r4, #0]
    5648:   f7ff fecc   bl 0x53e4
    564c:   7020        strb r0, [r4, #0]
    564e:   e7e8        b.n 0x5622
    5650:   2101        movs r1, #1
    5652:   e7f5        b.n 0x5640
    5654:   2102        movs r1, #2
    5656:   e7f3        b.n 0x5640
    5658:   70da        strb r2, [r3, #3]
    565a:   1fd2        subs r2, r2, #7
    565c:   2a07        cmp r2, #7
    565e:   d301        bcc.n 0x5664
    5660:   2007        movs r0, #7
    5662:   70d8        strb r0, [r3, #3]
    5664:   f7ff ff42   bl 0x54ec
    5668:   f000 f8be   bl 0x57e8
    566c:   4620        mov r0, r4
    566e:   f000 f841   bl 0x56f4
    5672:   e7d6        b.n 0x5622
    5674:   4a1e        ldr r2, [pc, #120]    ; (0x56f0)
    5676:   5c10        ldrb r0, [r2, r0]
    5678:   28ff        cmp r0, #255    ; 0xff
    567a:   d0d2        beq.n 0x5622
    567c:   4819        ldr r0, [pc, #100]    ; (0x56e4)
    567e:   2206        movs r2, #6
    5680:   2906        cmp r1, #6
    5682:   6800        ldr r0, [r0, #0]
    5684:   d019        beq.n 0x56ba
    5686:   2919        cmp r1, #25
    5688:   d00f        beq.n 0x56aa
    568a:   2936        cmp r1, #54    ; 0x36
    568c:   d01f        beq.n 0x56ce
    568e:   2937        cmp r1, #55    ; 0x37
    5690:   d1c7        bne.n 0x5622
    5692:   7901        ldrb r1, [r0, #4]
    5694:   f001 020f   and.w r2, r1, #15
    5698:   2a05        cmp r2, #5
    569a:   d2c2        bcs.n 0x5622
    569c:   f04f 5280   mov.w r2, #268435456    ; 0x10000000
    56a0:   eb02 1131   add.w r1, r2, r1, ror #4
    56a4:   ea4f 7131   mov.w r1, r1, ror #28
    56a8:   e017        b.n 0x56da
    56aa:   78c1        ldrb r1, [r0, #3]
    56ac:   2904        cmp r1, #4
    56ae:   d2b8        bcs.n 0x5622
    56b0:   1c49        adds r1, r1, #1
    56b2:   e006        b.n 0x56c2
    56b4:   f001 fc5e   bl 0x6f74
    56b8:   e7b3        b.n 0x5622
    56ba:   78c1        ldrb r1, [r0, #3]
    56bc:   2901        cmp r1, #1
    56be:   d9b0        bls.n 0x5622
    56c0:   1e49        subs r1, r1, #1
    56c2:   70c1        strb r1, [r0, #3]
    56c4:   78d8        ldrb r0, [r3, #3]
    56c6:   ebb2 0f50   cmp.w r2, r0, lsr #1
    56ca:   d0f3        beq.n 0x56b4
    56cc:   e7a9        b.n 0x5622
    56ce:   7901        ldrb r1, [r0, #4]
    56d0:   070a        lsls r2, r1, #28
    56d2:   d0a6        beq.n 0x5622
    56d4:   1e4a        subs r2, r1, #1
    56d6:   f362 0103   bfi r1, r2, #0, #4
    56da:   7101        strb r1, [r0, #4]
    56dc:   e7a1        b.n 0x5622
    56de:   0000        movs r0, r0
    56e0:   0708        lsls r0, r1, #28
    56e2:   2000        movs r0, #0
    56e4:   00ac        lsls r4, r5, #2
    56e6:   2000        movs r0, #0
    56e8:   0644        lsls r4, r0, #25
    56ea:   2000        movs r0, #0
    56ec:   0038        movs r0, r7
    56ee:   2000        movs r0, #0
    56f0:   7e15        ldrb r5, [r2, #24]
    56f2:   0000        movs r0, r0
    56f4:   b538        push {r3, r4, r5, lr}
    56f6:   4936        ldr r1, [pc, #216]    ; (0x57d0)
    56f8:   f3c0 4407   ubfx r4, r0, #16, #8
    56fc:   4d35        ldr r5, [pc, #212]    ; (0x57d4)
    56fe:   7b0a        ldrb r2, [r1, #12]
    5700:   0e01        lsrs r1, r0, #24
    5702:   eb04 0044   add.w r0, r4, r4, lsl #1
    5706:   4428        add r0, r5
    5708:   b30a        cbz r2, 0x574e
    570a:   2a07        cmp r2, #7
    570c:   d11e        bne.n 0x574c
    570e:   a232        add r2, pc, #200    ; (adr r2, 0x57d8)
    5710:   0789        lsls r1, r1, #30
    5712:   6812        ldr r2, [r2, #0]
    5714:   9200        str r2, [sp, #0]
    5716:   d519        bpl.n 0x574c
    5718:   4669        mov r1, sp
    571a:   1dc0        adds r0, r0, #7
    571c:   f001 fd2c   bl 0x7178
    5720:   482e        ldr r0, [pc, #184]    ; (0x57dc)
    5722:   78c0        ldrb r0, [r0, #3]
    5724:   0780        lsls r0, r0, #30
    5726:   d511        bpl.n 0x574c
    5728:   b13c        cbz r4, 0x573a
    572a:   2c04        cmp r4, #4
    572c:   d009        beq.n 0x5742
    572e:   2c30        cmp r4, #48    ; 0x30
    5730:   d10c        bne.n 0x574c
    5732:   4669        mov r1, sp
    5734:   f105 009d   add.w r0, r5, #157    ; 0x9d
    5738:   e006        b.n 0x5748
    573a:   4826        ldr r0, [pc, #152]    ; (0x57d4)
    573c:   4669        mov r1, sp
    573e:   309a        adds r0, #154    ; 0x9a
    5740:   e002        b.n 0x5748
    5742:   4824        ldr r0, [pc, #144]    ; (0x57d4)
    5744:   4669        mov r1, sp
    5746:   301f        adds r0, #31
    5748:   f001 fd16   bl 0x7178
    574c:   bd38        pop {r3, r4, r5, pc}
    574e:   0789        lsls r1, r1, #30
    5750:   d5fc        bpl.n 0x574c
    5752:   4923        ldr r1, [pc, #140]    ; (0x57e0)
    5754:   78c9        ldrb r1, [r1, #3]
    5756:   2907        cmp r1, #7
    5758:   d9f8        bls.n 0x574c
    575a:   f001 0201   and.w r2, r1, #1
    575e:   f021 0301   bic.w r3, r1, #1
    5762:   491c        ldr r1, [pc, #112]    ; (0x57d4)
    5764:   2b08        cmp r3, #8
    5766:   6809        ldr r1, [r1, #0]
    5768:   d017        beq.n 0x579a
    576a:   2b0a        cmp r3, #10
    576c:   d01c        beq.n 0x57a8
    576e:   2b0c        cmp r3, #12
    5770:   d1ec        bne.n 0x574c
    5772:   481c        ldr r0, [pc, #112]    ; (0x57e4)
    5774:   5d04        ldrb r4, [r0, r4]
    5776:   2cff        cmp r4, #255    ; 0xff
    5778:   d0e8        beq.n 0x574c
    577a:   f004 0007   and.w r0, r4, #7
    577e:   eb00 0080   add.w r0, r0, r0, lsl #2
    5782:   4405        add r5, r0
    5784:   350e        adds r5, #14
    5786:   b102        cbz r2, 0x578a
    5788:   2100        movs r1, #0
    578a:   4628        mov r0, r5
    578c:   f001 fcf4   bl 0x7178
    5790:   08e0        lsrs r0, r4, #3
    5792:   70e8        strb r0, [r5, #3]
    5794:   2001        movs r0, #1
    5796:   7128        strb r0, [r5, #4]
    5798:   bd38        pop {r3, r4, r5, pc}
    579a:   b102        cbz r2, 0x579e
    579c:   2100        movs r1, #0
    579e:   e8bd 4038   ldmia.w sp!, {r3, r4, r5, lr}
    57a2:   1d00        adds r0, r0, #4
    57a4:   f001 bce8   b.w 0x7178
    57a8:   480e        ldr r0, [pc, #56]    ; (0x57e4)
    57aa:   3848        subs r0, #72    ; 0x48
    57ac:   5d00        ldrb r0, [r0, r4]
    57ae:   28ff        cmp r0, #255    ; 0xff
    57b0:   d0f2        beq.n 0x5798
    57b2:   b102        cbz r2, 0x57b6
    57b4:   2100        movs r1, #0
    57b6:   eb00 0040   add.w r0, r0, r0, lsl #1
    57ba:   eb05 0440   add.w r4, r5, r0, lsl #1
    57be:   1d20        adds r0, r4, #4
    57c0:   f001 fcda   bl 0x7178
    57c4:   88a0        ldrh r0, [r4, #4]
    57c6:   f8a4 0007   strh.w r0, [r4, #7]
    57ca:   79a0        ldrb r0, [r4, #6]
    57cc:   7260        strb r0, [r4, #9]
    57ce:   bd38        pop {r3, r4, r5, pc}
    57d0:   0644        lsls r4, r0, #25
    57d2:   2000        movs r0, #0
    57d4:   00ac        lsls r4, r5, #2
    57d6:   2000        movs r0, #0
    57d8:   ffff 00ff   vshr.u64 q8, <illegal reg q15.5>, #1
    57dc:   0038        movs r0, r7
    57de:   2000        movs r0, #0
    57e0:   0708        lsls r0, r1, #28
    57e2:   2000        movs r0, #0
    57e4:   7e95        ldrb r5, [r2, #26]
    57e6:   0000        movs r0, r0
    57e8:   21d8        movs r1, #216    ; 0xd8
    57ea:   4801        ldr r0, [pc, #4]    ; (0x57f0)
    57ec:   f7fd befd   b.w 0x35ea
    57f0:   032c        lsls r4, r5, #12
    57f2:   2000        movs r0, #0
    57f4:   b510        push {r4, lr}
    57f6:   f7fe ff65   bl 0x46c4
    57fa:   2806        cmp r0, #6
    57fc:   d212        bcs.n 0x5824
    57fe:   e8df f000   tbb [pc, r0]
    5802:   0603        lsls r3, r0, #24
    5804:   0c09        lsrs r1, r1, #16
    5806:   0f11        lsrs r1, r2, #28
    5808:   f7fe f9da   bl 0x3bc0
    580c:   e00a        b.n 0x5824
    580e:   f7fe f9f9   bl 0x3c04
    5812:   e007        b.n 0x5824
    5814:   f7fe f964   bl 0x3ae0
    5818:   e004        b.n 0x5824
    581a:   f7fe f99f   bl 0x3b5c
    581e:   e001        b.n 0x5824
    5820:   f7fe fa8a   bl 0x3d38
    5824:   e8bd 4010   ldmia.w sp!, {r4, lr}
    5828:   f3af 8000   nop.w
    582c:   b510        push {r4, lr}
    582e:   4c08        ldr r4, [pc, #32]    ; (0x5850)
    5830:   7b20        ldrb r0, [r4, #12]
    5832:   b948        cbnz r0, 0x5848
    5834:   79a0        ldrb r0, [r4, #6]
    5836:   b938        cbnz r0, 0x5848
    5838:   4806        ldr r0, [pc, #24]    ; (0x5854)
    583a:   7800        ldrb r0, [r0, #0]
    583c:   0780        lsls r0, r0, #30
    583e:   1200        asrs r0, r0, #8
    5840:   0e01        lsrs r1, r0, #24
    5842:   2008        movs r0, #8
    5844:   f7fe fc90   bl 0x4168
    5848:   2001        movs r0, #1
    584a:   7060        strb r0, [r4, #1]
    584c:   bd10        pop {r4, pc}
    584e:   0000        movs r0, r0
    5850:   0644        lsls r4, r0, #25
    5852:   2000        movs r0, #0
    5854:   0018        movs r0, r3
    5856:   2000        movs r0, #0
    5858:   b570        push {r4, r5, r6, lr}
    585a:   4d10        ldr r5, [pc, #64]    ; (0x589c)
    585c:   4e10        ldr r6, [pc, #64]    ; (0x58a0)
    585e:   b2c3        uxtb r3, r0
    5860:   7829        ldrb r1, [r5, #0]
    5862:   1c49        adds r1, r1, #1
    5864:   b2cc        uxtb r4, r1
    5866:   702c        strb r4, [r5, #0]
    5868:   2160        movs r1, #96    ; 0x60
    586a:   e008        b.n 0x587e
    586c:   eb06 0241   add.w r2, r6, r1, lsl #1
    5870:   f892 2028   ldrb.w r2, [r2, #40]    ; 0x28
    5874:   4293        cmp r3, r2
    5876:   d102        bne.n 0x587e
    5878:   1c64        adds r4, r4, #1
    587a:   702c        strb r4, [r5, #0]
    587c:   e009        b.n 0x5892
    587e:   1e49        subs r1, r1, #1
    5880:   b2c9        uxtb r1, r1
    5882:   d2f3        bcs.n 0x586c
    5884:   f3c0 4107   ubfx r1, r0, #16, #8
    5888:   4805        ldr r0, [pc, #20]    ; (0x58a0)
    588a:   30f0        adds r0, #240    ; 0xf0
    588c:   5c08        ldrb r0, [r1, r0]
    588e:   28ff        cmp r0, #255    ; 0xff
    5890:   d001        beq.n 0x5896
    5892:   2001        movs r0, #1
    5894:   bd70        pop {r4, r5, r6, pc}
    5896:   2000        movs r0, #0
    5898:   bd70        pop {r4, r5, r6, pc}
    589a:   0000        movs r0, r0
    589c:   0008        movs r0, r1
    589e:   2000        movs r0, #0
    58a0:   0708        lsls r0, r1, #28
    58a2:   2000        movs r0, #0
    58a4:   b510        push {r4, lr}
    58a6:   4c1a        ldr r4, [pc, #104]    ; (0x5910)
    58a8:   b1c0        cbz r0, 0x58dc
    58aa:   2100        movs r1, #0
    58ac:   4620        mov r0, r4
    58ae:   f7fd ffa4   bl 0x37fa
    58b2:   2100        movs r1, #0
    58b4:   4620        mov r0, r4
    58b6:   f7fd ff96   bl 0x37e6
    58ba:   4620        mov r0, r4
    58bc:   f7fd ff8c   bl 0x37d8
    58c0:   2029        movs r0, #41    ; 0x29
    58c2:   f000 f899   bl 0x59f8
    58c6:   f000 faf7   bl 0x5eb8
    58ca:   f000 f8e1   bl 0x5a90
    58ce:   2001        movs r0, #1
    58d0:   f000 fd78   bl 0x63c4
    58d4:   e8bd 4010   ldmia.w sp!, {r4, lr}
    58d8:   f000 be70   b.w 0x65bc
    58dc:   f000 f8da   bl 0x5a94
    58e0:   2000        movs r0, #0
    58e2:   f000 fd6f   bl 0x63c4
    58e6:   2100        movs r1, #0
    58e8:   4620        mov r0, r4
    58ea:   f7fd ff92   bl 0x3812
    58ee:   4620        mov r0, r4
    58f0:   f7fd ff72   bl 0x37d8
    58f4:   2101        movs r1, #1
    58f6:   4620        mov r0, r4
    58f8:   f7fd ff75   bl 0x37e6
    58fc:   2101        movs r1, #1
    58fe:   4620        mov r0, r4
    5900:   f7fd ff7b   bl 0x37fa
    5904:   4903        ldr r1, [pc, #12]    ; (0x5914)
    5906:   f44f 7000   mov.w r0, #512    ; 0x200
    590a:   f8c1 0100   str.w r0, [r1, #256]    ; 0x100
    590e:   bd10        pop {r4, pc}
    5910:   6000        str r0, [r0, #0]
    5912:   4007        ands r7, r0
    5914:   e004        b.n 0x5920
    5916:   e000        b.n 0x591a
    5918:   b510        push {r4, lr}
    591a:   4604        mov r4, r0
    591c:   2802        cmp r0, #2
    591e:   d003        beq.n 0x5928
    5920:   210d        movs r1, #13
    5922:   4809        ldr r0, [pc, #36]    ; (0x5948)
    5924:   f7fd fe61   bl 0x35ea
    5928:   b15c        cbz r4, 0x5942
    592a:   2002        movs r0, #2
    592c:   f7ff f918   bl 0x4b60
    5930:   4905        ldr r1, [pc, #20]    ; (0x5948)
    5932:   2000        movs r0, #0
    5934:   7108        strb r0, [r1, #4]
    5936:   f7ff fdd9   bl 0x54ec
    593a:   e8bd 4010   ldmia.w sp!, {r4, lr}
    593e:   f000 ba0d   b.w 0x5d5c
    5942:   2001        movs r0, #1
    5944:   e7f2        b.n 0x592c
    5946:   0000        movs r0, r0
    5948:   0644        lsls r4, r0, #25
    594a:   2000        movs r0, #0
    594c:   b510        push {r4, lr}
    594e:   2000        movs r0, #0
    5950:   f44f 3280   mov.w r2, #65536    ; 0x10000
    5954:   2301        movs r3, #1
    5956:   4601        mov r1, r0
    5958:   f7fd ffd4   bl 0x3904
    595c:   e8bd 4010   ldmia.w sp!, {r4, lr}
    5960:   f648 419f   movw r1, #35999    ; 0x8c9f
    5964:   4801        ldr r0, [pc, #4]    ; (0x596c)
    5966:   f7fd bf52   b.w 0x380e
    596a:   0000        movs r0, r0
    596c:   6000        str r0, [r0, #0]
    596e:   4007        ands r7, r0
    5970:   b510        push {r4, lr}
    5972:   f44f 5150   mov.w r1, #13312    ; 0x3400
    5976:   2000        movs r0, #0
    5978:   f000 f872   bl 0x5a60
    597c:   491c        ldr r1, [pc, #112]    ; (0x59f0)
    597e:   6808        ldr r0, [r1, #0]
    5980:   f64f 02ff   movw r2, #63743    ; 0xf8ff
    5984:   4010        ands r0, r2
    5986:   4a1b        ldr r2, [pc, #108]    ; (0x59f4)
    5988:   f440 7040   orr.w r0, r0, #768    ; 0x300
    598c:   4310        orrs r0, r2
    598e:   6008        str r0, [r1, #0]
    5990:   2200        movs r2, #0
    5992:   4611        mov r1, r2
    5994:   2003        movs r0, #3
    5996:   f000 f83a   bl 0x5a0e
    599a:   4601        mov r1, r0
    599c:   202b        movs r0, #43    ; 0x2b
    599e:   f000 f84f   bl 0x5a40
    59a2:   2200        movs r2, #0
    59a4:   4611        mov r1, r2
    59a6:   2003        movs r0, #3
    59a8:   f000 f831   bl 0x5a0e
    59ac:   4601        mov r1, r0
    59ae:   202c        movs r0, #44    ; 0x2c
    59b0:   f000 f846   bl 0x5a40
    59b4:   2200        movs r2, #0
    59b6:   2101        movs r1, #1
    59b8:   2003        movs r0, #3
    59ba:   f000 f828   bl 0x5a0e
    59be:   4601        mov r1, r0
    59c0:   202a        movs r0, #42    ; 0x2a
    59c2:   f000 f83d   bl 0x5a40
    59c6:   2200        movs r2, #0
    59c8:   2102        movs r1, #2
    59ca:   2003        movs r0, #3
    59cc:   f000 f81f   bl 0x5a0e
    59d0:   4601        mov r1, r0
    59d2:   2029        movs r0, #41    ; 0x29
    59d4:   f000 f834   bl 0x5a40
    59d8:   2200        movs r2, #0
    59da:   2102        movs r1, #2
    59dc:   2003        movs r0, #3
    59de:   f000 f816   bl 0x5a0e
    59e2:   4601        mov r1, r0
    59e4:   e8bd 4010   ldmia.w sp!, {r4, lr}
    59e8:   2035        movs r0, #53    ; 0x35
    59ea:   f000 b829   b.w 0x5a40
    59ee:   0000        movs r0, r0
    59f0:   ed0c e000   stc 0, cr14, [ip, #-0]
    59f4:   0000        movs r0, r0
    59f6:   05fa        lsls r2, r7, #23
    59f8:   f000 021f   and.w r2, r0, #31
    59fc:   2101        movs r1, #1
    59fe:   4091        lsls r1, r2
    5a00:   0940        lsrs r0, r0, #5
    5a02:   0080        lsls r0, r0, #2
    5a04:   f100 20e0   add.w r0, r0, #3758153728    ; 0xe000e000
    5a08:   f8c0 1180   str.w r1, [r0, #384]    ; 0x180
    5a0c:   4770        bx lr
    5a0e:   b530        push {r4, r5, lr}
    5a10:   f000 0307   and.w r3, r0, #7
    5a14:   f1c3 0407   rsb r4, r3, #7
    5a18:   2c04        cmp r4, #4
    5a1a:   d900        bls.n 0x5a1e
    5a1c:   2404        movs r4, #4
    5a1e:   1d18        adds r0, r3, #4
    5a20:   2807        cmp r0, #7
    5a22:   d201        bcs.n 0x5a28
    5a24:   2300        movs r3, #0
    5a26:   e000        b.n 0x5a2a
    5a28:   1edb        subs r3, r3, #3
    5a2a:   2501        movs r5, #1
    5a2c:   fa05 f004   lsl.w r0, r5, r4
    5a30:   1e40        subs r0, r0, #1
    5a32:   4008        ands r0, r1
    5a34:   4098        lsls r0, r3
    5a36:   409d        lsls r5, r3
    5a38:   1e6d        subs r5, r5, #1
    5a3a:   4015        ands r5, r2
    5a3c:   4328        orrs r0, r5
    5a3e:   bd30        pop {r4, r5, pc}
    5a40:   0709        lsls r1, r1, #28
    5a42:   0e09        lsrs r1, r1, #24
    5a44:   2800        cmp r0, #0
    5a46:   da06        bge.n 0x5a56
    5a48:   f000 000f   and.w r0, r0, #15
    5a4c:   f100 20e0   add.w r0, r0, #3758153728    ; 0xe000e000
    5a50:   f880 1d14   strb.w r1, [r0, #3348]    ; 0xd14
    5a54:   4770        bx lr
    5a56:   f100 20e0   add.w r0, r0, #3758153728    ; 0xe000e000
    5a5a:   f880 1400   strb.w r1, [r0, #1024]    ; 0x400
    5a5e:   4770        bx lr
    5a60:   4a02        ldr r2, [pc, #8]    ; (0x5a6c)
    5a62:   4011        ands r1, r2
    5a64:   4301        orrs r1, r0
    5a66:   4802        ldr r0, [pc, #8]    ; (0x5a70)
    5a68:   6001        str r1, [r0, #0]
    5a6a:   4770        bx lr
    5a6c:   ff80 1fff        ; <UNDEFINED> instruction: 0xff801fff
    5a70:   ed08 e000   stc 0, cr14, [r8, #-0]
    5a74:   b510        push {r4, lr}
    5a76:   f7fe fbd9   bl 0x422c
    5a7a:   f7fe fb95   bl 0x41a8
    5a7e:   2801        cmp r0, #1
    5a80:   d104        bne.n 0x5a8c
    5a82:   2002        movs r0, #2
    5a84:   f000 fed7   bl 0x6836
    5a88:   2801        cmp r0, #1
    5a8a:   d000        beq.n 0x5a8e
    5a8c:   2000        movs r0, #0
    5a8e:   bd10        pop {r4, pc}
    5a90:   f7fe bbf4   b.w 0x427c
    5a94:   f7fe bc14   b.w 0x42c0
    5a98:   b570        push {r4, r5, r6, lr}
    5a9a:   4c29        ldr r4, [pc, #164]    ; (0x5b40)
    5a9c:   2500        movs r5, #0
    5a9e:   79a0        ldrb r0, [r4, #6]
    5aa0:   2801        cmp r0, #1
    5aa2:   d018        beq.n 0x5ad6
    5aa4:   2802        cmp r0, #2
    5aa6:   d14a        bne.n 0x5b3e
    5aa8:   1f21        subs r1, r4, #4
    5aaa:   8808        ldrh r0, [r1, #0]
    5aac:   b3d8        cbz r0, 0x5b26
    5aae:   4a25        ldr r2, [pc, #148]    ; (0x5b44)
    5ab0:   6812        ldr r2, [r2, #0]
    5ab2:   2a00        cmp r2, #0
    5ab4:   d143        bne.n 0x5b3e
    5ab6:   28ff        cmp r0, #255    ; 0xff
    5ab8:   d808        bhi.n 0x5acc
    5aba:   4a23        ldr r2, [pc, #140]    ; (0x5b48)
    5abc:   6812        ldr r2, [r2, #0]
    5abe:   eb02 0080   add.w r0, r2, r0, lsl #2
    5ac2:   2207        movs r2, #7
    5ac4:   7840        ldrb r0, [r0, #1]
    5ac6:   ebb2 1f50   cmp.w r2, r0, lsr #5
    5aca:   d130        bne.n 0x5b2e
    5acc:   7a20        ldrb r0, [r4, #8]
    5ace:   2801        cmp r0, #1
    5ad0:   d031        beq.n 0x5b36
    5ad2:   800d        strh r5, [r1, #0]
    5ad4:   e02b        b.n 0x5b2e
    5ad6:   481d        ldr r0, [pc, #116]    ; (0x5b4c)
    5ad8:   78c0        ldrb r0, [r0, #3]
    5ada:   0780        lsls r0, r0, #30
    5adc:   d40a        bmi.n 0x5af4
    5ade:   79e0        ldrb r0, [r4, #7]
    5ae0:   2801        cmp r0, #1
    5ae2:   d107        bne.n 0x5af4
    5ae4:   f7ff f826   bl 0x4b34
    5ae8:   2801        cmp r0, #1
    5aea:   d103        bne.n 0x5af4
    5aec:   2002        movs r0, #2
    5aee:   71e0        strb r0, [r4, #7]
    5af0:   4817        ldr r0, [pc, #92]    ; (0x5b50)
    5af2:   8005        strh r5, [r0, #0]
    5af4:   79e0        ldrb r0, [r4, #7]
    5af6:   2803        cmp r0, #3
    5af8:   d00d        beq.n 0x5b16
    5afa:   2806        cmp r0, #6
    5afc:   d003        beq.n 0x5b06
    5afe:   2807        cmp r0, #7
    5b00:   d001        beq.n 0x5b06
    5b02:   2808        cmp r0, #8
    5b04:   d11b        bne.n 0x5b3e
    5b06:   f7ff f815   bl 0x4b34
    5b0a:   2801        cmp r0, #1
    5b0c:   d117        bne.n 0x5b3e
    5b0e:   e8bd 4070   ldmia.w sp!, {r4, r5, r6, lr}
    5b12:   f000 b8b3   b.w 0x5c7c
    5b16:   f7ff f80d   bl 0x4b34
    5b1a:   2801        cmp r0, #1
    5b1c:   d10f        bne.n 0x5b3e
    5b1e:   e8bd 4070   ldmia.w sp!, {r4, r5, r6, lr}
    5b22:   f001 bc63   b.w 0x73ec
    5b26:   7888        ldrb r0, [r1, #2]
    5b28:   2100        movs r1, #0
    5b2a:   f7fe f971   bl 0x3e10
    5b2e:   e8bd 4070   ldmia.w sp!, {r4, r5, r6, lr}
    5b32:   f001 bbc5   b.w 0x72c0
    5b36:   e8bd 4070   ldmia.w sp!, {r4, r5, r6, lr}
    5b3a:   f000 b90f   b.w 0x5d5c
    5b3e:   bd70        pop {r4, r5, r6, pc}
    5b40:   196c        adds r4, r5, r5
    5b42:   2000        movs r0, #0
    5b44:   0070        lsls r0, r6, #1
    5b46:   2000        movs r0, #0
    5b48:   0068        lsls r0, r5, #1
    5b4a:   2000        movs r0, #0
    5b4c:   0038        movs r0, r7
    5b4e:   2000        movs r0, #0
    5b50:   0028        movs r0, r5
    5b52:   2000        movs r0, #0
    5b54:   480a        ldr r0, [pc, #40]    ; (0x5b80)
    5b56:   b510        push {r4, lr}
    5b58:   7980        ldrb r0, [r0, #6]
    5b5a:   2801        cmp r0, #1
    5b5c:   d00d        beq.n 0x5b7a
    5b5e:   4809        ldr r0, [pc, #36]    ; (0x5b84)
    5b60:   6800        ldr r0, [r0, #0]
    5b62:   f7fe ff9c   bl 0x4a9e
    5b66:   2103        movs r1, #3
    5b68:   f7ff fc48   bl 0x53fc
    5b6c:   28ff        cmp r0, #255    ; 0xff
    5b6e:   d004        beq.n 0x5b7a
    5b70:   4904        ldr r1, [pc, #16]    ; (0x5b84)
    5b72:   f7fe ff8f   bl 0x4a94
    5b76:   2001        movs r0, #1
    5b78:   bd10        pop {r4, pc}
    5b7a:   2000        movs r0, #0
    5b7c:   bd10        pop {r4, pc}
    5b7e:   0000        movs r0, r0
    5b80:   196c        adds r4, r5, r5
    5b82:   2000        movs r0, #0
    5b84:   0038        movs r0, r7
    5b86:   2000        movs r0, #0
    5b88:   e92d 41f0   stmdb sp!, {r4, r5, r6, r7, r8, lr}
    5b8c:   4c37        ldr r4, [pc, #220]    ; (0x5c6c)
    5b8e:   4d38        ldr r5, [pc, #224]    ; (0x5c70)
    5b90:   1f26        subs r6, r4, #4
    5b92:   79a0        ldrb r0, [r4, #6]
    5b94:   b120        cbz r0, 0x5ba0
    5b96:   2801        cmp r0, #1
    5b98:   d03b        beq.n 0x5c12
    5b9a:   2802        cmp r0, #2
    5b9c:   d14b        bne.n 0x5c36
    5b9e:   e01f        b.n 0x5be0
    5ba0:   f001 fb1c   bl 0x71dc
    5ba4:   4607        mov r7, r0
    5ba6:   2860        cmp r0, #96    ; 0x60
    5ba8:   d245        bcs.n 0x5c36
    5baa:   78e8        ldrb r0, [r5, #3]
    5bac:   0780        lsls r0, r0, #30
    5bae:   d558        bpl.n 0x5c62
    5bb0:   79a0        ldrb r0, [r4, #6]
    5bb2:   b110        cbz r0, 0x5bba
    5bb4:   2000        movs r0, #0
    5bb6:   f7fe fdb1   bl 0x471c
    5bba:   6828        ldr r0, [r5, #0]
    5bbc:   f7fe ff6f   bl 0x4a9e
    5bc0:   80a0        strh r0, [r4, #4]
    5bc2:   2002        movs r0, #2
    5bc4:   71a0        strb r0, [r4, #6]
    5bc6:   482b        ldr r0, [pc, #172]    ; (0x5c74)
    5bc8:   eb00 0047   add.w r0, r0, r7, lsl #1
    5bcc:   f890 0029   ldrb.w r0, [r0, #41]    ; 0x29
    5bd0:   0940        lsrs r0, r0, #5
    5bd2:   7220        strb r0, [r4, #8]
    5bd4:   2000        movs r0, #0
    5bd6:   8030        strh r0, [r6, #0]
    5bd8:   70b7        strb r7, [r6, #2]
    5bda:   f001 fb25   bl 0x7228
    5bde:   e040        b.n 0x5c62
    5be0:   78e8        ldrb r0, [r5, #3]
    5be2:   0781        lsls r1, r0, #30
    5be4:   4822        ldr r0, [pc, #136]    ; (0x5c70)
    5be6:   6800        ldr r0, [r0, #0]
    5be8:   d50a        bpl.n 0x5c00
    5bea:   f7fe ff58   bl 0x4a9e
    5bee:   88a1        ldrh r1, [r4, #4]
    5bf0:   4288        cmp r0, r1
    5bf2:   d1d5        bne.n 0x5ba0
    5bf4:   7a20        ldrb r0, [r4, #8]
    5bf6:   2803        cmp r0, #3
    5bf8:   d1d2        bne.n 0x5ba0
    5bfa:   f000 f8af   bl 0x5d5c
    5bfe:   e030        b.n 0x5c62
    5c00:   f7fe ff4d   bl 0x4a9e
    5c04:   88a1        ldrh r1, [r4, #4]
    5c06:   4288        cmp r0, r1
    5c08:   d115        bne.n 0x5c36
    5c0a:   7a20        ldrb r0, [r4, #8]
    5c0c:   2802        cmp r0, #2
    5c0e:   d0f4        beq.n 0x5bfa
    5c10:   e027        b.n 0x5c62
    5c12:   f7ff fa05   bl 0x5020
    5c16:   bb10        cbnz r0, 0x5c5e
    5c18:   79e0        ldrb r0, [r4, #7]
    5c1a:   2805        cmp r0, #5
    5c1c:   d00e        beq.n 0x5c3c
    5c1e:   78e9        ldrb r1, [r5, #3]
    5c20:   0789        lsls r1, r1, #30
    5c22:   d508        bpl.n 0x5c36
    5c24:   2801        cmp r0, #1
    5c26:   d01c        beq.n 0x5c62
    5c28:   2701        movs r7, #1
    5c2a:   2802        cmp r0, #2
    5c2c:   d00a        beq.n 0x5c44
    5c2e:   2803        cmp r0, #3
    5c30:   d016        beq.n 0x5c60
    5c32:   2804        cmp r0, #4
    5c34:   d017        beq.n 0x5c66
    5c36:   2000        movs r0, #0
    5c38:   e8bd 81f0   ldmia.w sp!, {r4, r5, r6, r7, r8, pc}
    5c3c:   e8bd 41f0   ldmia.w sp!, {r4, r5, r6, r7, r8, lr}
    5c40:   f001 bb9a   b.w 0x7378
    5c44:   f001 fafa   bl 0x723c
    5c48:   78b0        ldrb r0, [r6, #2]
    5c4a:   2860        cmp r0, #96    ; 0x60
    5c4c:   d008        beq.n 0x5c60
    5c4e:   6828        ldr r0, [r5, #0]
    5c50:   f7fe ff25   bl 0x4a9e
    5c54:   80a0        strh r0, [r4, #4]
    5c56:   2003        movs r0, #3
    5c58:   71e0        strb r0, [r4, #7]
    5c5a:   4807        ldr r0, [pc, #28]    ; (0x5c78)
    5c5c:   7007        strb r7, [r0, #0]
    5c5e:   e000        b.n 0x5c62
    5c60:   71e7        strb r7, [r4, #7]
    5c62:   2001        movs r0, #1
    5c64:   e7e8        b.n 0x5c38
    5c66:   2005        movs r0, #5
    5c68:   71e0        strb r0, [r4, #7]
    5c6a:   e7e7        b.n 0x5c3c
    5c6c:   196c        adds r4, r5, r5
    5c6e:   2000        movs r0, #0
    5c70:   0038        movs r0, r7
    5c72:   2000        movs r0, #0
    5c74:   0708        lsls r0, r1, #28
    5c76:   2000        movs r0, #0
    5c78:   0644        lsls r4, r0, #25
    5c7a:   2000        movs r0, #0
    5c7c:   e92d 41f0   stmdb sp!, {r4, r5, r6, r7, r8, lr}
    5c80:   4d2c        ldr r5, [pc, #176]    ; (0x5d34)
    5c82:   f04f 0801   mov.w r8, #1
    5c86:   79e8        ldrb r0, [r5, #7]
    5c88:   2808        cmp r0, #8
    5c8a:   d049        beq.n 0x5d20
    5c8c:   1f2e        subs r6, r5, #4
    5c8e:   492a        ldr r1, [pc, #168]    ; (0x5d38)
    5c90:   78b0        ldrb r0, [r6, #2]
    5c92:   4f2a        ldr r7, [pc, #168]    ; (0x5d3c)
    5c94:   eb01 0440   add.w r4, r1, r0, lsl #1
    5c98:   4628        mov r0, r5
    5c9a:   8831        ldrh r1, [r6, #0]
    5c9c:   8880        ldrh r0, [r0, #4]
    5c9e:   3428        adds r4, #40    ; 0x28
    5ca0:   2902        cmp r1, #2
    5ca2:   d10e        bne.n 0x5cc2
    5ca4:   683a        ldr r2, [r7, #0]
    5ca6:   8811        ldrh r1, [r2, #0]
    5ca8:   8892        ldrh r2, [r2, #4]
    5caa:   f3c1 0109   ubfx r1, r1, #0, #10
    5cae:   f3c2 0209   ubfx r2, r2, #0, #10
    5cb2:   4291        cmp r1, r2
    5cb4:   d105        bne.n 0x5cc2
    5cb6:   f7ff fba1   bl 0x53fc
    5cba:   f64f 70ff   movw r0, #65535    ; 0xffff
    5cbe:   8020        strh r0, [r4, #0]
    5cc0:   e021        b.n 0x5d06
    5cc2:   21ff        movs r1, #255    ; 0xff
    5cc4:   f7ff fb9a   bl 0x53fc
    5cc8:   7a28        ldrb r0, [r5, #8]
    5cca:   2801        cmp r0, #1
    5ccc:   d024        beq.n 0x5d18
    5cce:   f001 fa73   bl 0x71b8
    5cd2:   8831        ldrh r1, [r6, #0]
    5cd4:   683a        ldr r2, [r7, #0]
    5cd6:   eb02 0181   add.w r1, r2, r1, lsl #2
    5cda:   f44f 52e0   mov.w r2, #7168    ; 0x1c00
    5cde:   f821 0c02   strh.w r0, [r1, #-2]
    5ce2:   7a29        ldrb r1, [r5, #8]
    5ce4:   88a8        ldrh r0, [r5, #4]
    5ce6:   ea42 3141   orr.w r1, r2, r1, lsl #13
    5cea:   4308        orrs r0, r1
    5cec:   8020        strh r0, [r4, #0]
    5cee:   8830        ldrh r0, [r6, #0]
    5cf0:   28ff        cmp r0, #255    ; 0xff
    5cf2:   d804        bhi.n 0x5cfe
    5cf4:   683a        ldr r2, [r7, #0]
    5cf6:   f44f 417c   mov.w r1, #64512    ; 0xfc00
    5cfa:   f822 1020   strh.w r1, [r2, r0, lsl #2]
    5cfe:   78b0        ldrb r0, [r6, #2]
    5d00:   2101        movs r1, #1
    5d02:   f7fe f885   bl 0x3e10
    5d06:   f7fe f971   bl 0x3fec
    5d0a:   79e8        ldrb r0, [r5, #7]
    5d0c:   2807        cmp r0, #7
    5d0e:   d005        beq.n 0x5d1c
    5d10:   f885 8007   strb.w r8, [r5, #7]
    5d14:   e8bd 81f0   ldmia.w sp!, {r4, r5, r6, r7, r8, pc}
    5d18:   2000        movs r0, #0
    5d1a:   e7da        b.n 0x5cd2
    5d1c:   2008        movs r0, #8
    5d1e:   71e8        strb r0, [r5, #7]
    5d20:   4907        ldr r1, [pc, #28]    ; (0x5d40)
    5d22:   2000        movs r0, #0
    5d24:   71a8        strb r0, [r5, #6]
    5d26:   6008        str r0, [r1, #0]
    5d28:   4906        ldr r1, [pc, #24]    ; (0x5d44)
    5d2a:   71e8        strb r0, [r5, #7]
    5d2c:   f881 8000   strb.w r8, [r1]
    5d30:   e7f0        b.n 0x5d14
    5d32:   0000        movs r0, r0
    5d34:   196c        adds r4, r5, r5
    5d36:   2000        movs r0, #0
    5d38:   0708        lsls r0, r1, #28
    5d3a:   2000        movs r0, #0
    5d3c:   0068        lsls r0, r5, #1
    5d3e:   2000        movs r0, #0
    5d40:   0070        lsls r0, r6, #1
    5d42:   2000        movs r0, #0
    5d44:   0644        lsls r4, r0, #25
    5d46:   2000        movs r0, #0
    5d48:   4803        ldr r0, [pc, #12]    ; (0x5d58)
    5d4a:   7981        ldrb r1, [r0, #6]
    5d4c:   2900        cmp r1, #0
    5d4e:   d102        bne.n 0x5d56
    5d50:   2101        movs r1, #1
    5d52:   7181        strb r1, [r0, #6]
    5d54:   71c1        strb r1, [r0, #7]
    5d56:   4770        bx lr
    5d58:   196c        adds r4, r5, r5
    5d5a:   2000        movs r0, #0
    5d5c:   b5f8        push {r3, r4, r5, r6, r7, lr}
    5d5e:   4e1e        ldr r6, [pc, #120]    ; (0x5dd8)
    5d60:   2700        movs r7, #0
    5d62:   79b0        ldrb r0, [r6, #6]
    5d64:   2802        cmp r0, #2
    5d66:   d135        bne.n 0x5dd4
    5d68:   1f35        subs r5, r6, #4
    5d6a:   8828        ldrh r0, [r5, #0]
    5d6c:   b390        cbz r0, 0x5dd4
    5d6e:   491b        ldr r1, [pc, #108]    ; (0x5ddc)
    5d70:   9700        str r7, [sp, #0]
    5d72:   6809        ldr r1, [r1, #0]
    5d74:   eb01 0480   add.w r4, r1, r0, lsl #2
    5d78:   f89d 0003   ldrb.w r0, [sp, #3]
    5d7c:   f040 0005   orr.w r0, r0, #5
    5d80:   f88d 0003   strb.w r0, [sp, #3]
    5d84:   e021        b.n 0x5dca
    5d86:   7860        ldrb r0, [r4, #1]
    5d88:   0940        lsrs r0, r0, #5
    5d8a:   2802        cmp r0, #2
    5d8c:   d002        beq.n 0x5d94
    5d8e:   2807        cmp r0, #7
    5d90:   d117        bne.n 0x5dc2
    5d92:   e014        b.n 0x5dbe
    5d94:   8820        ldrh r0, [r4, #0]
    5d96:   4669        mov r1, sp
    5d98:   f7fe fe7c   bl 0x4a94
    5d9c:   f89d 0001   ldrb.w r0, [sp, #1]
    5da0:   07c0        lsls r0, r0, #31
    5da2:   f89d 0000   ldrb.w r0, [sp]
    5da6:   d002        beq.n 0x5dae
    5da8:   f7fe fce2   bl 0x4770
    5dac:   e001        b.n 0x5db2
    5dae:   490c        ldr r1, [pc, #48]    ; (0x5de0)
    5db0:   5c08        ldrb r0, [r1, r0]
    5db2:   f88d 0002   strb.w r0, [sp, #2]
    5db6:   9800        ldr r0, [sp, #0]
    5db8:   f7fe fd2c   bl 0x4814
    5dbc:   e001        b.n 0x5dc2
    5dbe:   20ff        movs r0, #255    ; 0xff
    5dc0:   8028        strh r0, [r5, #0]
    5dc2:   8828        ldrh r0, [r5, #0]
    5dc4:   1c40        adds r0, r0, #1
    5dc6:   8028        strh r0, [r5, #0]
    5dc8:   1d24        adds r4, r4, #4
    5dca:   8828        ldrh r0, [r5, #0]
    5dcc:   28ff        cmp r0, #255    ; 0xff
    5dce:   d9da        bls.n 0x5d86
    5dd0:   f001 fa2a   bl 0x7228
    5dd4:   71b7        strb r7, [r6, #6]
    5dd6:   bdf8        pop {r3, r4, r5, r6, r7, pc}
    5dd8:   196c        adds r4, r5, r5
    5dda:   2000        movs r0, #0
    5ddc:   0068        lsls r0, r5, #1
    5dde:   2000        movs r0, #0
    5de0:   01de        lsls r6, r3, #7
    5de2:   2000        movs r0, #0
    5de4:   480f        ldr r0, [pc, #60]    ; (0x5e24)
    5de6:   b510        push {r4, lr}
    5de8:   6800        ldr r0, [r0, #0]
    5dea:   f7fe fe58   bl 0x4a9e
    5dee:   4604        mov r4, r0
    5df0:   2103        movs r1, #3
    5df2:   f7ff fb03   bl 0x53fc
    5df6:   28ff        cmp r0, #255    ; 0xff
    5df8:   d004        beq.n 0x5e04
    5dfa:   21ff        movs r1, #255    ; 0xff
    5dfc:   4620        mov r0, r4
    5dfe:   f7ff fafd   bl 0x53fc
    5e02:   e009        b.n 0x5e18
    5e04:   f001 f9ea   bl 0x71dc
    5e08:   2860        cmp r0, #96    ; 0x60
    5e0a:   d209        bcs.n 0x5e20
    5e0c:   4a06        ldr r2, [pc, #24]    ; (0x5e28)
    5e0e:   f64f 71ff   movw r1, #65535    ; 0xffff
    5e12:   eb02 0040   add.w r0, r2, r0, lsl #1
    5e16:   8501        strh r1, [r0, #40]    ; 0x28
    5e18:   f7fe f8e8   bl 0x3fec
    5e1c:   2001        movs r0, #1
    5e1e:   bd10        pop {r4, pc}
    5e20:   2000        movs r0, #0
    5e22:   bd10        pop {r4, pc}
    5e24:   0038        movs r0, r7
    5e26:   2000        movs r0, #0
    5e28:   0708        lsls r0, r1, #28
    5e2a:   2000        movs r0, #0
    5e2c:   b538        push {r3, r4, r5, lr}
    5e2e:   4c0c        ldr r4, [pc, #48]    ; (0x5e60)
    5e30:   2548        movs r5, #72    ; 0x48
    5e32:   e010        b.n 0x5e56
    5e34:   4669        mov r1, sp
    5e36:   4628        mov r0, r5
    5e38:   f000 f814   bl 0x5e64
    5e3c:   f89d 0002   ldrb.w r0, [sp, #2]
    5e40:   7020        strb r0, [r4, #0]
    5e42:   f1a4 0048   sub.w r0, r4, #72    ; 0x48
    5e46:   f89d 1001   ldrb.w r1, [sp, #1]
    5e4a:   7001        strb r1, [r0, #0]
    5e4c:   3848        subs r0, #72    ; 0x48
    5e4e:   f89d 1000   ldrb.w r1, [sp]
    5e52:   7001        strb r1, [r0, #0]
    5e54:   1e64        subs r4, r4, #1
    5e56:   1e6d        subs r5, r5, #1
    5e58:   b2ed        uxtb r5, r5
    5e5a:   d2eb        bcs.n 0x5e34
    5e5c:   bd38        pop {r3, r4, r5, pc}
    5e5e:   0000        movs r0, r0
    5e60:   0403        lsls r3, r0, #16
    5e62:   2000        movs r0, #0
    5e64:   4a0c        ldr r2, [pc, #48]    ; (0x5e98)
    5e66:   230c        movs r3, #12
    5e68:   5c10        ldrb r0, [r2, r0]
    5e6a:   f000 0207   and.w r2, r0, #7
    5e6e:   08c0        lsrs r0, r0, #3
    5e70:   ebc0 2000   rsb r0, r0, r0, lsl #8
    5e74:   fbb0 f0f3   udiv r0, r0, r3
    5e78:   b2c0        uxtb r0, r0
    5e7a:   7008        strb r0, [r1, #0]
    5e7c:   2a03        cmp r2, #3
    5e7e:   d008        beq.n 0x5e92
    5e80:   f1c2 0205   rsb r2, r2, #5
    5e84:   232b        movs r3, #43    ; 0x2b
    5e86:   435a        muls r2, r3
    5e88:   b2d3        uxtb r3, r2
    5e8a:   460a        mov r2, r1
    5e8c:   4619        mov r1, r3
    5e8e:   f7fe b8f7   b.w 0x4080
    5e92:   7048        strb r0, [r1, #1]
    5e94:   7088        strb r0, [r1, #2]
    5e96:   4770        bx lr
    5e98:   7e95        ldrb r5, [r2, #26]
    5e9a:   0000        movs r0, r0
    5e9c:   4901        ldr r1, [pc, #4]    ; (0x5ea4)
    5e9e:   7008        strb r0, [r1, #0]
    5ea0:   f7ff bcc4   b.w 0x582c
    5ea4:   0018        movs r0, r3
    5ea6:   2000        movs r0, #0
    5ea8:   f44f 7200   mov.w r2, #512    ; 0x200
    5eac:   2100        movs r1, #0
    5eae:   0250        lsls r0, r2, #9
    5eb0:   2301        movs r3, #1
    5eb2:   f7fd bd27   b.w 0x3904
    5eb6:   0000        movs r0, r0
    5eb8:   b510        push {r4, lr}
    5eba:   2200        movs r2, #0
    5ebc:   2101        movs r1, #1
    5ebe:   4805        ldr r0, [pc, #20]    ; (0x5ed4)
    5ec0:   f7fe fb9a   bl 0x45f8
    5ec4:   2200        movs r2, #0
    5ec6:   e8bd 4010   ldmia.w sp!, {r4, lr}
    5eca:   4611        mov r1, r2
    5ecc:   2002        movs r0, #2
    5ece:   f7fd bca3   b.w 0x3818
    5ed2:   0000        movs r0, r0
    5ed4:   4000        ands r0, r0
    5ed6:   400b        ands r3, r1
    5ed8:   b510        push {r4, lr}
    5eda:   2202        movs r2, #2
    5edc:   2101        movs r1, #1
    5ede:   4805        ldr r0, [pc, #20]    ; (0x5ef4)
    5ee0:   f7fe fb8a   bl 0x45f8
    5ee4:   2204        movs r2, #4
    5ee6:   2100        movs r1, #0
    5ee8:   e8bd 4010   ldmia.w sp!, {r4, lr}
    5eec:   2002        movs r0, #2
    5eee:   f7fd bc93   b.w 0x3818
    5ef2:   0000        movs r0, r0
    5ef4:   4000        ands r0, r0
    5ef6:   400b        ands r3, r1
    5ef8:   b570        push {r4, r5, r6, lr}
    5efa:   490d        ldr r1, [pc, #52]    ; (0x5f30)
    5efc:   680c        ldr r4, [r1, #0]
    5efe:   4d0c        ldr r5, [pc, #48]    ; (0x5f30)
    5f00:   3548        adds r5, #72    ; 0x48
    5f02:   682b        ldr r3, [r5, #0]
    5f04:   2201        movs r2, #1
    5f06:   600a        str r2, [r1, #0]
    5f08:   2200        movs r2, #0
    5f0a:   602a        str r2, [r5, #0]
    5f0c:   4e09        ldr r6, [pc, #36]    ; (0x5f34)
    5f0e:   f8c6 209c   str.w r2, [r6, #156]    ; 0x9c
    5f12:   f8c6 208c   str.w r2, [r6, #140]    ; 0x8c
    5f16:   600c        str r4, [r1, #0]
    5f18:   4907        ldr r1, [pc, #28]    ; (0x5f38)
    5f1a:   680a        ldr r2, [r1, #0]
    5f1c:   f042 0204   orr.w r2, r2, #4
    5f20:   600a        str r2, [r1, #0]
    5f22:   b110        cbz r0, 0x5f2a
    5f24:   bf30        wfi
    5f26:   602b        str r3, [r5, #0]
    5f28:   bd70        pop {r4, r5, r6, pc}
    5f2a:   bf20        wfe
    5f2c:   e7fb        b.n 0x5f26
    5f2e:   0000        movs r0, r0
    5f30:   0618        lsls r0, r3, #24
    5f32:   4310        orrs r0, r2
    5f34:   2000        movs r0, #0
    5f36:   42d4        cmn r4, r2
    5f38:   ed10 e000   ldc 0, cr14, [r0, #-0]
    5f3c:   e92d 47f0   stmdb sp!, {r4, r5, r6, r7, r8, r9, sl, lr}
    5f40:   4c0e        ldr r4, [pc, #56]    ; (0x5f7c)
    5f42:   6827        ldr r7, [r4, #0]
    5f44:   4d0d        ldr r5, [pc, #52]    ; (0x5f7c)
    5f46:   3548        adds r5, #72    ; 0x48
    5f48:   682e        ldr r6, [r5, #0]
    5f4a:   f04f 0901   mov.w r9, #1
    5f4e:   f8c4 9000   str.w r9, [r4]
    5f52:   f04f 0800   mov.w r8, #0
    5f56:   f8c5 8000   str.w r8, [r5]
    5f5a:   f000 f907   bl 0x616c
    5f5e:   4808        ldr r0, [pc, #32]    ; (0x5f80)
    5f60:   f8c0 809c   str.w r8, [r0, #156]    ; 0x9c
    5f64:   f8c0 908c   str.w r9, [r0, #140]    ; 0x8c
    5f68:   6027        str r7, [r4, #0]
    5f6a:   4806        ldr r0, [pc, #24]    ; (0x5f84)
    5f6c:   6801        ldr r1, [r0, #0]
    5f6e:   f041 0104   orr.w r1, r1, #4
    5f72:   6001        str r1, [r0, #0]
    5f74:   bf20        wfe
    5f76:   602e        str r6, [r5, #0]
    5f78:   e8bd 87f0   ldmia.w sp!, {r4, r5, r6, r7, r8, r9, sl, pc}
    5f7c:   0618        lsls r0, r3, #24
    5f7e:   4310        orrs r0, r2
    5f80:   2000        movs r0, #0
    5f82:   42d4        cmn r4, r2
    5f84:   ed10 e000   ldc 0, cr14, [r0, #-0]
    5f88:   4904        ldr r1, [pc, #16]    ; (0x5f9c)
    5f8a:   680a        ldr r2, [r1, #0]
    5f8c:   f022 0204   bic.w r2, r2, #4
    5f90:   600a        str r2, [r1, #0]
    5f92:   b108        cbz r0, 0x5f98
    5f94:   bf30        wfi
    5f96:   4770        bx lr
    5f98:   bf20        wfe
    5f9a:   4770        bx lr
    5f9c:   ed10 e000   ldc 0, cr14, [r0, #-0]

handle_frame:
  0x5fa0:   b570        push {r4, r5, r6, lr}
    5fa2:   4e35        ldr r6, [pc, #212]    ; (0x6078)
    5fa4:   7830        ldrb r0, [r6, #0]
    5fa6:   2801        cmp r0, #1
    5fa8:   d15c        bne.n 0x6064

    5faa:   4d34        ldr r5, [pc, #208]    ; (0x607c)
    5fac:   2400        movs r4, #0
    5fae:   4628        mov r0, r5
    5fb0:   782a        ldrb r2, [r5, #0]
    5fb2:   7840        ldrb r0, [r0, #1]
    5fb4:   4621        mov r1, r4

    5fb6:   2a10        cmp r2, #16
    5fb8:   d004        beq.n 0x5fc4
    5fba:   2a11        cmp r2, #17
    5fbc:   d007        beq.n 0x5fce
    5fbe:   2a12        cmp r2, #18
    5fc0:   d151        bne.n 0x6066
    5fc2:   e007        b.n 0x5fd4

    5fc4:   2802        cmp r0, #2
    5fc6:   d14e        bne.n 0x6066
    5fc8:   6069        str r1, [r5, #4]
    5fca:   2104        movs r1, #4
    5fcc:   e03c        b.n 0x6048

    5fce:   f000 f859   bl 0x6084
    5fd2:   e03d        b.n 0x6050

    5fd4:   f44f 6380   mov.w r3, #1024    ; 0x400
    5fd8:   2820        cmp r0, #32
    5fda:   d30e        bcc.n 0x5ffa

; This code is useless, the exploit patch will replace this
; -----------------------------------------------------
    5fdc:   f1a0 021f   sub.w r2, r0, #31
    5fe0:   ebc2 1202   rsb r2, r2, r2, lsl #4
    5fe4:   ebb3 0f82   cmp.w r3, r2, lsl #2
    5fe8:   db07        blt.n 0x5ffa
; -----------------------------------------------------

  0x5fea:   ebc0 1000   rsb r0, r0, r0, lsl #4
    5fee:   f44f 5122   mov.w r1, #10368    ; 0x2880
    5ff2:   eb01 0080   add.w r0, r1, r0, lsl #2
    5ff6:   213c        movs r1, #60    ; 0x3c
    5ff8:   e027        b.n 0x604a

  0x5ffa:   b120        cbz r0, 0x6006
    5ffc:   2801        cmp r0, #1
    5ffe:   d01d        beq.n 0x603c
    6000:   2802        cmp r0, #2
    6002:   d130        bne.n 0x6066
    6004:   e01e        b.n 0x6044

    6006:   f891 010f   ldrb.w r0, [r1, #271]    ; 0x10f
    600a:   28aa        cmp r0, #170    ; 0xaa
    600c:   d011        beq.n 0x6032
    600e:   781a        ldrb r2, [r3, #0]
    6010:   4618        mov r0, r3
    6012:   2a04        cmp r2, #4
    6014:   d010        beq.n 0x6038

    6016:   2220        movs r2, #32
    6018:   4619        mov r1, r3
    601a:   1d28        adds r0, r5, #4
    601c:   f7fd facc   bl 0x35b8

    6020:   4817        ldr r0, [pc, #92]    ; (0x6080)
    6022:   f8d0 1180   ldr.w r1, [r0, #384]    ; 0x180
    6026:   6269        str r1, [r5, #36]    ; 0x24
    6028:   f8d0 018c   ldr.w r0, [r0, #396]    ; 0x18c
    602c:   2128        movs r1, #40    ; 0x28
    602e:   62a8        str r0, [r5, #40]    ; 0x28
    6030:   e00a        b.n 0x6048

    6032:   2110        movs r1, #16
    6034:   0108        lsls r0, r1, #4
    6036:   e008        b.n 0x604a

    6038:   2134        movs r1, #52    ; 0x34
    603a:   e006        b.n 0x604a

    603c:   2104        movs r1, #4
    603e:   f44f 5070   mov.w r0, #15360    ; 0x3c00
    6042:   e002        b.n 0x604a

    6044:   2101        movs r1, #1
    6046:   7129        strb r1, [r5, #4]

    6048:   1d28        adds r0, r5, #4
    604a:   f000 f85d   bl 0x6108
    604e:   2401        movs r4, #1
    6050:   7830        ldrb r0, [r6, #0]
    6052:   2801        cmp r0, #1
    6054:   d106        bne.n 0x6064
    6056:   b134        cbz r4, 0x6066

    6058:   213c        movs r1, #60    ; 0x3c
    605a:   1d28        adds r0, r5, #4
    605c:   f7fd fac5   bl 0x35ea

    6060:   2002        movs r0, #2
    6062:   7030        strb r0, [r6, #0]
    6064:   bd70        pop {r4, r5, r6, pc}

    6066:   6828        ldr r0, [r5, #0]
    6068:   6068        str r0, [r5, #4]
    606a:   f64a 20ff   movw r0, #43775    ; 0xaaff
    606e:   6028        str r0, [r5, #0]

    6070:   4802        ldr r0, [pc, #8]    ; (0x607c)
    6072:   2138        movs r1, #56    ; 0x38
    6074:   3008        adds r0, #8
    6076:   e7f1        b.n 0x605c

  0x6078:   0x2000002e
  0x607c:   0x20000604
  0x6080:   0x40080000

    6084:   b510        push {r4, lr}
    6086:   491b        ldr r1, [pc, #108]    ; (0x60f4)
    6088:   b168        cbz r0, 0x60a6
    608a:   2801        cmp r0, #1
    608c:   d00d        beq.n 0x60aa
    608e:   2802        cmp r0, #2
    6090:   d12f        bne.n 0x60f2
    6092:   2035        movs r0, #53    ; 0x35
    6094:   f7ff fcb0   bl 0x59f8
    6098:   2000        movs r0, #0
    609a:   f000 fd63   bl 0x6b64
    609e:   e8bd 4010   ldmia.w sp!, {r4, lr}
    60a2:   f7ff bf4b   b.w 0x5f3c
    60a6:   4814        ldr r0, [pc, #80]    ; (0x60f8)
    60a8:   e001        b.n 0x60ae
    60aa:   4813        ldr r0, [pc, #76]    ; (0x60f8)
    60ac:   1f40        subs r0, r0, #5
    60ae:   6008        str r0, [r1, #0]
    60b0:   2100        movs r1, #0
    60b2:   f44f 3080   mov.w r0, #65536    ; 0x10000
    60b6:   2301        movs r3, #1
    60b8:   460a        mov r2, r1
    60ba:   f7fd fc23   bl 0x3904
    60be:   490f        ldr r1, [pc, #60]    ; (0x60fc)
    60c0:   f44f 7000   mov.w r0, #512    ; 0x200
    60c4:   6248        str r0, [r1, #36]    ; 0x24
    60c6:   2035        movs r0, #53    ; 0x35
    60c8:   f7ff fc96   bl 0x59f8
    60cc:   2000        movs r0, #0
    60ce:   f000 fd49   bl 0x6b64
    60d2:   f644 6020   movw r0, #20000    ; 0x4e20
    60d6:   f7fd fbb3   bl 0x3840
    60da:   f3bf 8f4f   dsb sy
    60de:   4808        ldr r0, [pc, #32]    ; (0x6100)
    60e0:   6801        ldr r1, [r0, #0]
    60e2:   4a08        ldr r2, [pc, #32]    ; (0x6104)
    60e4:   f401 61e0   and.w r1, r1, #1792    ; 0x700
    60e8:   4311        orrs r1, r2
    60ea:   6001        str r1, [r0, #0]
    60ec:   f3bf 8f4f   dsb sy
    60f0:   e7fe        b.n 0x60f0
    60f2:   bd10        pop {r4, pc}
    60f4:   3ffc        subs r7, #252    ; 0xfc
    60f6:   2000        movs r0, #0
    60f8:   faf5 55aa        ; <UNDEFINED> instruction: 0xfaf555aa
    60fc:   0000        movs r0, r0
    60fe:   400b        ands r3, r1
    6100:   ed0c e000   stc 0, cr14, [ip, #-0]
    6104:   0004        movs r4, r0
    6106:   05fa        lsls r2, r7, #23
    6108:   b570        push {r4, r5, r6, lr}
    610a:   460c        mov r4, r1
    610c:   4a09        ldr r2, [pc, #36]    ; (0x6134)
    610e:   4601        mov r1, r0
    6110:   2002        movs r0, #2
    6112:   7010        strb r0, [r2, #0]
    6114:   4808        ldr r0, [pc, #32]    ; (0x6138)
    6116:   1f05        subs r5, r0, #4
    6118:   4281        cmp r1, r0
    611a:   d003        beq.n 0x6124
    611c:   4622        mov r2, r4
    611e:   1d28        adds r0, r5, #4
    6120:   f7fd fa4a   bl 0x35b8
    6124:   1928        adds r0, r5, r4
    6126:   f1c4 013c   rsb r1, r4, #60    ; 0x3c
    612a:   e8bd 4070   ldmia.w sp!, {r4, r5, r6, lr}
    612e:   1d00        adds r0, r0, #4
    6130:   f7fd ba5b   b.w 0x35ea
    6134:   002e        movs r6, r5
    6136:   2000        movs r0, #0
    6138:   0608        lsls r0, r1, #24
    613a:   2000        movs r0, #0
    613c:   b5f0        push {r4, r5, r6, r7, lr}
    613e:   4f0a        ldr r7, [pc, #40]    ; (0x6168)
    6140:   f8d7 4104   ldr.w r4, [r7, #260]    ; 0x104
    6144:   f8d7 5108   ldr.w r5, [r7, #264]    ; 0x108
    6148:   f8d7 610c   ldr.w r6, [r7, #268]    ; 0x10c
    614c:   4384        bics r4, r0
    614e:   438d        bics r5, r1
    6150:   4396        bics r6, r2
    6152:   b113        cbz r3, 0x615a
    6154:   4304        orrs r4, r0
    6156:   430d        orrs r5, r1
    6158:   4316        orrs r6, r2
    615a:   f8c7 4104   str.w r4, [r7, #260]    ; 0x104
    615e:   f8c7 5108   str.w r5, [r7, #264]    ; 0x108
    6162:   f8c7 610c   str.w r6, [r7, #268]    ; 0x10c
    6166:   bdf0        pop {r4, r5, r6, r7, pc}
    6168:   8000        strh r0, [r0, #0]
    616a:   4008        ands r0, r1
    616c:   4a07        ldr r2, [pc, #28]    ; (0x618c)
    616e:   2100        movs r1, #0
    6170:   f44f 50e1   mov.w r0, #7200    ; 0x1c20
    6174:   f8c2 1108   str.w r1, [r2, #264]    ; 0x108
    6178:   1e40        subs r0, r0, #1
    617a:   d2fd        bcs.n 0x6178
    617c:   2001        movs r0, #1
    617e:   f8c2 0108   str.w r0, [r2, #264]    ; 0x108
    6182:   4803        ldr r0, [pc, #12]    ; (0x6190)
    6184:   6881        ldr r1, [r0, #8]
    6186:   0689        lsls r1, r1, #26
    6188:   d5fc        bpl.n 0x6184
    618a:   4770        bx lr
    618c:   0000        movs r0, r0
    618e:   42d4        cmn r4, r2
    6190:   8000        strh r0, [r0, #0]
    6192:   4008        ands r0, r1
    6194:   e92d 47f0   stmdb sp!, {r4, r5, r6, r7, r8, r9, sl, lr}
    6198:   2707        movs r7, #7
    619a:   4d1a        ldr r5, [pc, #104]    ; (0x6204)
    619c:   e02d        b.n 0x61fa
    619e:   491a        ldr r1, [pc, #104]    ; (0x6208)
    61a0:   eb07 0047   add.w r0, r7, r7, lsl #1
    61a4:   4408        add r0, r1
    61a6:   f815 1d01   ldrb.w r1, [r5, #-1]!
    61aa:   7880        ldrb r0, [r0, #2]
    61ac:   4048        eors r0, r1
    61ae:   ea5f 0800   movs.w r8, r0
    61b2:   d022        beq.n 0x61fa
    61b4:   2480        movs r4, #128    ; 0x80
    61b6:   2608        movs r6, #8
    61b8:   e01c        b.n 0x61f4
    61ba:   ea18 0f04   tst.w r8, r4
    61be:   d018        beq.n 0x61f2
    61c0:   7828        ldrb r0, [r5, #0]
    61c2:   4060        eors r0, r4
    61c4:   7028        strb r0, [r5, #0]
    61c6:   4220        tst r0, r4
    61c8:   d101        bne.n 0x61ce
    61ca:   2001        movs r0, #1
    61cc:   e000        b.n 0x61d0
    61ce:   2000        movs r0, #0
    61d0:   4681        mov r9, r0
    61d2:   eb06 00c7   add.w r0, r6, r7, lsl #3
    61d6:   b2c0        uxtb r0, r0
    61d8:   4649        mov r1, r9
    61da:   f7fe fb97   bl 0x490c
    61de:   b910        cbnz r0, 0x61e6
    61e0:   7828        ldrb r0, [r5, #0]
    61e2:   4060        eors r0, r4
    61e4:   7028        strb r0, [r5, #0]
    61e6:   ea5f 0009   movs.w r0, r9
    61ea:   d000        beq.n 0x61ee
    61ec:   2001        movs r0, #1
    61ee:   4907        ldr r1, [pc, #28]    ; (0x620c)
    61f0:   8048        strh r0, [r1, #2]
    61f2:   0864        lsrs r4, r4, #1
    61f4:   1e76        subs r6, r6, #1
    61f6:   b2f6        uxtb r6, r6
    61f8:   d2df        bcs.n 0x61ba
    61fa:   1e7f        subs r7, r7, #1
    61fc:   b2ff        uxtb r7, r7
    61fe:   d2ce        bcs.n 0x619e
    6200:   e8bd 87f0   ldmia.w sp!, {r4, r5, r6, r7, r8, r9, sl, pc}
    6204:   01d7        lsls r7, r2, #7
    6206:   2000        movs r0, #0
    6208:   0316        lsls r6, r2, #12
    620a:   2000        movs r0, #0
    620c:   0026        movs r6, r4
    620e:   2000        movs r0, #0
    6210:   e92d 41f0   stmdb sp!, {r4, r5, r6, r7, r8, lr}
    6214:   4606        mov r6, r0
    6216:   2402        movs r4, #2
    6218:   4d14        ldr r5, [pc, #80]    ; (0x626c)
    621a:   f44f 77fa   mov.w r7, #500    ; 0x1f4
    621e:   f001 f8f5   bl 0x740c
    6222:   2007        movs r0, #7
    6224:   e003        b.n 0x622e
    6226:   eb00 0140   add.w r1, r0, r0, lsl #1
    622a:   5c69        ldrb r1, [r5, r1]
    622c:   b911        cbnz r1, 0x6234
    622e:   1e40        subs r0, r0, #1
    6230:   b2c0        uxtb r0, r0
    6232:   d2f8        bcs.n 0x6226
    6234:   28ff        cmp r0, #255    ; 0xff
    6236:   d007        beq.n 0x6248
    6238:   2c00        cmp r4, #0
    623a:   d1f0        bne.n 0x621e
    623c:   2e00        cmp r6, #0
    623e:   d012        beq.n 0x6266
    6240:   4a0b        ldr r2, [pc, #44]    ; (0x6270)
    6242:   490a        ldr r1, [pc, #40]    ; (0x626c)
    6244:   2007        movs r0, #7
    6246:   e00b        b.n 0x6260
    6248:   1e64        subs r4, r4, #1
    624a:   f014 04ff   ands.w r4, r4, #255    ; 0xff
    624e:   d0f5        beq.n 0x623c
    6250:   4638        mov r0, r7
    6252:   f7fd faf5   bl 0x3840
    6256:   e7e2        b.n 0x621e
    6258:   788b        ldrb r3, [r1, #2]
    625a:   f802 3b01   strb.w r3, [r2], #1
    625e:   1cc9        adds r1, r1, #3
    6260:   1e40        subs r0, r0, #1
    6262:   b2c0        uxtb r0, r0
    6264:   d2f8        bcs.n 0x6258
    6266:   e8bd 81f0   ldmia.w sp!, {r4, r5, r6, r7, r8, pc}
    626a:   0000        movs r0, r0
    626c:   0316        lsls r6, r2, #12
    626e:   2000        movs r0, #0
    6270:   01d0        lsls r0, r2, #7
    6272:   2000        movs r0, #0
    6274:   4904        ldr r1, [pc, #16]    ; (0x6288)
    6276:   7808        ldrb r0, [r1, #0]
    6278:   1c40        adds r0, r0, #1
    627a:   7008        strb r0, [r1, #0]
    627c:   0780        lsls r0, r0, #30
    627e:   d101        bne.n 0x6284
    6280:   f001 b8c4   b.w 0x740c
    6284:   4770        bx lr
    6286:   0000        movs r0, r0
    6288:   0026        movs r6, r4
    628a:   2000        movs r0, #0
    628c:   e92d 41f0   stmdb sp!, {r4, r5, r6, r7, r8, lr}
    6290:   2600        movs r6, #0
    6292:   4631        mov r1, r6
    6294:   f44f 2070   mov.w r0, #983040    ; 0xf0000
    6298:   2301        movs r3, #1
    629a:   4632        mov r2, r6
    629c:   f7fd fb32   bl 0x3904
    62a0:   2408        movs r4, #8
    62a2:   e017        b.n 0x62d4
    62a4:   4825        ldr r0, [pc, #148]    ; (0x633c)
    62a6:   2200        movs r2, #0
    62a8:   eb00 01c4   add.w r1, r0, r4, lsl #3
    62ac:   888d        ldrh r5, [r1, #4]
    62ae:   6808        ldr r0, [r1, #0]
    62b0:   b2a9        uxth r1, r5
    62b2:   4607        mov r7, r0
    62b4:   f7fe f9a0   bl 0x45f8
    62b8:   b2a9        uxth r1, r5
    62ba:   4638        mov r0, r7
    62bc:   2201        movs r2, #1
    62be:   f7fe f98b   bl 0x45d8
    62c2:   481e        ldr r0, [pc, #120]    ; (0x633c)
    62c4:   3040        adds r0, #64    ; 0x40
    62c6:   f810 1014   ldrb.w r1, [r0, r4, lsl #1]
    62ca:   eb00 0044   add.w r0, r0, r4, lsl #1
    62ce:   7840        ldrb r0, [r0, #1]
    62d0:   f7fd f9e2   bl 0x3698
    62d4:   1e64        subs r4, r4, #1
    62d6:   b2e4        uxtb r4, r4
    62d8:   d2e4        bcs.n 0x62a4
    62da:   2407        movs r4, #7
    62dc:   e013        b.n 0x6306
    62de:   4817        ldr r0, [pc, #92]    ; (0x633c)
    62e0:   3050        adds r0, #80    ; 0x50
    62e2:   eb00 01c4   add.w r1, r0, r4, lsl #3
    62e6:   888d        ldrh r5, [r1, #4]
    62e8:   680f        ldr r7, [r1, #0]
    62ea:   b2a9        uxth r1, r5
    62ec:   4638        mov r0, r7
    62ee:   f7fe f997   bl 0x4620
    62f2:   b2a9        uxth r1, r5
    62f4:   4638        mov r0, r7
    62f6:   2200        movs r2, #0
    62f8:   f7fe f976   bl 0x45e8
    62fc:   b2a9        uxth r1, r5
    62fe:   4638        mov r0, r7
    6300:   2201        movs r2, #1
    6302:   f7fe f959   bl 0x45b8
    6306:   1e64        subs r4, r4, #1
    6308:   b2e4        uxtb r4, r4
    630a:   d2e8        bcs.n 0x62de
    630c:   22ff        movs r2, #255    ; 0xff
    630e:   2107        movs r1, #7
    6310:   480b        ldr r0, [pc, #44]    ; (0x6340)
    6312:   f7fd f963   bl 0x35dc
    6316:   2000        movs r0, #0
    6318:   f000 f82e   bl 0x6378
    631c:   2107        movs r1, #7
    631e:   4809        ldr r0, [pc, #36]    ; (0x6344)
    6320:   22ff        movs r2, #255    ; 0xff
    6322:   e005        b.n 0x6330
    6324:   f800 6b01   strb.w r6, [r0], #1
    6328:   f800 2b01   strb.w r2, [r0], #1
    632c:   f800 2b01   strb.w r2, [r0], #1
    6330:   1e49        subs r1, r1, #1
    6332:   b2c9        uxtb r1, r1
    6334:   d2f6        bcs.n 0x6324
    6336:   e8bd 81f0   ldmia.w sp!, {r4, r5, r6, r7, r8, pc}
    633a:   0000        movs r0, r0
    633c:   7f20        ldrb r0, [r4, #28]
    633e:   0000        movs r0, r0
    6340:   01d0        lsls r0, r2, #7
    6342:   2000        movs r0, #0
    6344:   0316        lsls r6, r2, #12
    6346:   2000        movs r0, #0
    6348:   490a        ldr r1, [pc, #40]    ; (0x6374)
    634a:   b510        push {r4, lr}
    634c:   f501 70a3   add.w r0, r1, #326    ; 0x146
    6350:   2207        movs r2, #7
    6352:   e009        b.n 0x6368
    6354:   7803        ldrb r3, [r0, #0]
    6356:   b91b        cbnz r3, 0x6360
    6358:   7883        ldrb r3, [r0, #2]
    635a:   780c        ldrb r4, [r1, #0]
    635c:   42a3        cmp r3, r4
    635e:   d001        beq.n 0x6364
    6360:   2000        movs r0, #0
    6362:   bd10        pop {r4, pc}
    6364:   1cc0        adds r0, r0, #3
    6366:   1c49        adds r1, r1, #1
    6368:   1e52        subs r2, r2, #1
    636a:   b2d2        uxtb r2, r2
    636c:   d2f2        bcs.n 0x6354
    636e:   2001        movs r0, #1
    6370:   bd10        pop {r4, pc}
    6372:   0000        movs r0, r0
    6374:   01d0        lsls r0, r2, #7
    6376:   2000        movs r0, #0
    6378:   b510        push {r4, lr}
    637a:   4604        mov r4, r0
    637c:   2238        movs r2, #56    ; 0x38
    637e:   490e        ldr r1, [pc, #56]    ; (0x63b8)
    6380:   480e        ldr r0, [pc, #56]    ; (0x63bc)
    6382:   f7fd f919   bl 0x35b8
    6386:   b174        cbz r4, 0x63a6
    6388:   f000 f83c   bl 0x6404
    638c:   2c01        cmp r4, #1
    638e:   d002        beq.n 0x6396
    6390:   2c02        cmp r4, #2
    6392:   d108        bne.n 0x63a6
    6394:   e003        b.n 0x639e
    6396:   4908        ldr r1, [pc, #32]    ; (0x63b8)
    6398:   31c0        adds r1, #192    ; 0xc0
    639a:   2022        movs r0, #34    ; 0x22
    639c:   e001        b.n 0x63a2
    639e:   4908        ldr r1, [pc, #32]    ; (0x63c0)
    63a0:   2011        movs r0, #17
    63a2:   f000 f845   bl 0x6430
    63a6:   f000 f82d   bl 0x6404
    63aa:   f7ff f86f   bl 0x548c
    63ae:   e8bd 4010   ldmia.w sp!, {r4, lr}
    63b2:   f000 b827   b.w 0x6404
    63b6:   0000        movs r0, r0
    63b8:   7ee8        ldrb r0, [r5, #27]
    63ba:   0000        movs r0, r0
    63bc:   02de        lsls r6, r3, #11
    63be:   2000        movs r0, #0
    63c0:   7fec        ldrb r4, [r5, #31]
    63c2:   0000        movs r0, r0
    63c4:   e92d 41f0   stmdb sp!, {r4, r5, r6, r7, r8, lr}
    63c8:   2407        movs r4, #7
    63ca:   b110        cbz r0, 0x63d2
    63cc:   2700        movs r7, #0
    63ce:   4d0c        ldr r5, [pc, #48]    ; (0x6400)
    63d0:   e011        b.n 0x63f6
    63d2:   2701        movs r7, #1
    63d4:   e7fb        b.n 0x63ce
    63d6:   eb05 06c4   add.w r6, r5, r4, lsl #3
    63da:   463a        mov r2, r7
    63dc:   88b0        ldrh r0, [r6, #4]
    63de:   b281        uxth r1, r0
    63e0:   f855 0034   ldr.w r0, [r5, r4, lsl #3]
    63e4:   f7fe f91e   bl 0x4624
    63e8:   88b0        ldrh r0, [r6, #4]
    63ea:   2201        movs r2, #1
    63ec:   b281        uxth r1, r0
    63ee:   f855 0034   ldr.w r0, [r5, r4, lsl #3]
    63f2:   f7fe f8e1   bl 0x45b8
    63f6:   1e64        subs r4, r4, #1
    63f8:   b2e4        uxtb r4, r4
    63fa:   d2ec        bcs.n 0x63d6
    63fc:   e8bd 81f0   ldmia.w sp!, {r4, r5, r6, r7, r8, pc}
    6400:   7f70        ldrb r0, [r6, #29]
    6402:   0000        movs r0, r0
    6404:   b510        push {r4, lr}
    6406:   4c09        ldr r4, [pc, #36]    ; (0x642c)
    6408:   22ff        movs r2, #255    ; 0xff
    640a:   1c51        adds r1, r2, #1
    640c:   f2a4 1037   subw r0, r4, #311    ; 0x137
    6410:   f7fd f8e4   bl 0x35dc
    6414:   2038        movs r0, #56    ; 0x38
    6416:   f2a4 1137   subw r1, r4, #311    ; 0x137
    641a:   e002        b.n 0x6422
    641c:   f814 2901   ldrb.w r2, [r4], #-1
    6420:   5488        strb r0, [r1, r2]
    6422:   1e40        subs r0, r0, #1
    6424:   b2c0        uxtb r0, r0
    6426:   d2f9        bcs.n 0x641c
    6428:   bd10        pop {r4, pc}
    642a:   0000        movs r0, r0
    642c:   0315        lsls r5, r2, #12
    642e:   2000        movs r0, #0
    6430:   b530        push {r4, r5, lr}
    6432:   4b06        ldr r3, [pc, #24]    ; (0x644c)
    6434:   f5a3 7480   sub.w r4, r3, #256    ; 0x100
    6438:   e004        b.n 0x6444
    643a:   784a        ldrb r2, [r1, #1]
    643c:   f811 5b02   ldrb.w r5, [r1], #2
    6440:   5d65        ldrb r5, [r4, r5]
    6442:   555a        strb r2, [r3, r5]
    6444:   1e40        subs r0, r0, #1
    6446:   b2c0        uxtb r0, r0
    6448:   d2f7        bcs.n 0x643a
    644a:   bd30        pop {r4, r5, pc}
    644c:   02de        lsls r6, r3, #11
    644e:   2000        movs r0, #0
    6450:   e92d 4ff0   stmdb sp!, {r4, r5, r6, r7, r8, r9, sl, fp, lr}
    6454:   f8df e070   ldr.w lr, [pc, #112]    ; 0x64c8
    6458:   f8df 9070   ldr.w r9, [pc, #112]    ; 0x64cc
    645c:   2600        movs r6, #0
    645e:   f1ae 0ad8   sub.w sl, lr, #216    ; 0xd8
    6462:   f509 7b09   add.w fp, r9, #548    ; 0x224
    6466:   2410        movs r4, #16
    6468:   eb0e 1086   add.w r0, lr, r6, lsl #6
    646c:   2300        movs r3, #0
    646e:   eb0b 0cc6   add.w ip, fp, r6, lsl #3
    6472:   f819 1003   ldrb.w r1, [r9, r3]
    6476:   f8df 8054   ldr.w r8, [pc, #84]    ; 0x64cc
    647a:   eb01 02c1   add.w r2, r1, r1, lsl #3
    647e:   eb0a 07c2   add.w r7, sl, r2, lsl #3
    6482:   4661        mov r1, ip
    6484:   2208        movs r2, #8
    6486:   f108 0824   add.w r8, r8, #36    ; 0x24
    648a:   e00c        b.n 0x64a6
    648c:   780d        ldrb r5, [r1, #0]
    648e:   2dff        cmp r5, #255    ; 0xff
    6490:   d003        beq.n 0x649a
    6492:   5d7d        ldrb r5, [r7, r5]
    6494:   f838 5015   ldrh.w r5, [r8, r5, lsl #1]
    6498:   8005        strh r5, [r0, #0]
    649a:   1c49        adds r1, r1, #1
    649c:   1e64        subs r4, r4, #1
    649e:   f014 04ff   ands.w r4, r4, #255    ; 0xff
    64a2:   d00d        beq.n 0x64c0
    64a4:   1d00        adds r0, r0, #4
    64a6:   1e52        subs r2, r2, #1
    64a8:   b2d2        uxtb r2, r2
    64aa:   d2ef        bcs.n 0x648c
    64ac:   1c5b        adds r3, r3, #1
    64ae:   b2db        uxtb r3, r3
    64b0:   2b03        cmp r3, #3
    64b2:   d3de        bcc.n 0x6472
    64b4:   1c76        adds r6, r6, #1
    64b6:   b2f6        uxtb r6, r6
    64b8:   2e08        cmp r6, #8
    64ba:   d3d4        bcc.n 0x6466
    64bc:   e8bd 8ff0   ldmia.w sp!, {r4, r5, r6, r7, r8, r9, sl, fp, pc}
    64c0:   2410        movs r4, #16
    64c2:   383a        subs r0, #58    ; 0x3a
    64c4:   e7ef        b.n 0x64a6
    64c6:   0000        movs r0, r0
    64c8:   0404        lsls r4, r0, #16
    64ca:   2000        movs r0, #0
    64cc:   8010        strh r0, [r2, #0]
    64ce:   0000        movs r0, r0
    64d0:   e92d 41f0   stmdb sp!, {r4, r5, r6, r7, r8, lr}
    64d4:   2100        movs r1, #0
    64d6:   f44f 3200   mov.w r2, #131072    ; 0x20000
    64da:   f44f 20e0   mov.w r0, #458752    ; 0x70000
    64de:   2301        movs r3, #1
    64e0:   f7fd fa10   bl 0x3904
    64e4:   f64e 2160   movw r1, #60000    ; 0xea60
    64e8:   4830        ldr r0, [pc, #192]    ; (0x65ac)
    64ea:   f7fd f990   bl 0x380e
    64ee:   4c30        ldr r4, [pc, #192]    ; (0x65b0)
    64f0:   2102        movs r1, #2
    64f2:   4620        mov r0, r4
    64f4:   f7fe f894   bl 0x4620
    64f8:   2200        movs r2, #0
    64fa:   2102        movs r1, #2
    64fc:   4620        mov r0, r4
    64fe:   f7fe f873   bl 0x45e8
    6502:   2201        movs r2, #1
    6504:   2102        movs r1, #2
    6506:   4620        mov r0, r4
    6508:   f7fe f856   bl 0x45b8
    650c:   4e29        ldr r6, [pc, #164]    ; (0x65b4)
    650e:   15a5        asrs r5, r4, #22
    6510:   4629        mov r1, r5
    6512:   4630        mov r0, r6
    6514:   f7fe f884   bl 0x4620
    6518:   01af        lsls r7, r5, #6
    651a:   4639        mov r1, r7
    651c:   4630        mov r0, r6
    651e:   f7fe f87f   bl 0x4620
    6522:   f44f 4800   mov.w r8, #32768    ; 0x8000
    6526:   4641        mov r1, r8
    6528:   4630        mov r0, r6
    652a:   f7fe f879   bl 0x4620
    652e:   2200        movs r2, #0
    6530:   4629        mov r1, r5
    6532:   4630        mov r0, r6
    6534:   f7fe f858   bl 0x45e8
    6538:   2200        movs r2, #0
    653a:   4639        mov r1, r7
    653c:   4630        mov r0, r6
    653e:   f7fe f853   bl 0x45e8
    6542:   2200        movs r2, #0
    6544:   4641        mov r1, r8
    6546:   4630        mov r0, r6
    6548:   f7fe f84e   bl 0x45e8
    654c:   2201        movs r2, #1
    654e:   4629        mov r1, r5
    6550:   4630        mov r0, r6
    6552:   f7fe f831   bl 0x45b8
    6556:   2201        movs r2, #1
    6558:   4639        mov r1, r7
    655a:   4630        mov r0, r6
    655c:   f7fe f82c   bl 0x45b8
    6560:   2201        movs r2, #1
    6562:   4641        mov r1, r8
    6564:   4630        mov r0, r6
    6566:   f7fe f827   bl 0x45b8
    656a:   2201        movs r2, #1
    656c:   2108        movs r1, #8
    656e:   4620        mov r0, r4
    6570:   f7fe f832   bl 0x45d8
    6574:   4c10        ldr r4, [pc, #64]    ; (0x65b8)
    6576:   2504        movs r5, #4
    6578:   e011        b.n 0x659e
    657a:   88a0        ldrh r0, [r4, #4]
    657c:   b281        uxth r1, r0
    657e:   6820        ldr r0, [r4, #0]
    6580:   f7fe f84e   bl 0x4620
    6584:   88a0        ldrh r0, [r4, #4]
    6586:   2200        movs r2, #0
    6588:   b281        uxth r1, r0
    658a:   6820        ldr r0, [r4, #0]
    658c:   f7fe f82c   bl 0x45e8
    6590:   88a0        ldrh r0, [r4, #4]
    6592:   2201        movs r2, #1
    6594:   b281        uxth r1, r0
    6596:   6820        ldr r0, [r4, #0]
    6598:   f7fe f80e   bl 0x45b8
    659c:   3408        adds r4, #8
    659e:   1e6d        subs r5, r5, #1
    65a0:   b2ed        uxtb r5, r5
    65a2:   d2ea        bcs.n 0x657a
    65a4:   e8bd 41f0   ldmia.w sp!, {r4, r5, r6, r7, r8, lr}
    65a8:   f000 bf8c   b.w 0x74c4
    65ac:   7000        strb r0, [r0, #0]
    65ae:   4007        ands r7, r0
    65b0:   4000        ands r0, r0
    65b2:   400b        ands r3, r1
    65b4:   0000        movs r0, r0
    65b6:   400b        ands r3, r1
    65b8:   8014        strh r4, [r2, #0]
    65ba:   0000        movs r0, r0
    65bc:   b510        push {r4, lr}
    65be:   4c16        ldr r4, [pc, #88]    ; (0x6618)
    65c0:   2100        movs r1, #0
    65c2:   4620        mov r0, r4
    65c4:   f7fd f919   bl 0x37fa
    65c8:   2100        movs r1, #0
    65ca:   4620        mov r0, r4
    65cc:   f7fd f90b   bl 0x37e6
    65d0:   4620        mov r0, r4
    65d2:   f7fd f901   bl 0x37d8
    65d6:   4911        ldr r1, [pc, #68]    ; (0x661c)
    65d8:   1520        asrs r0, r4, #20
    65da:   f8c1 0180   str.w r0, [r1, #384]    ; 0x180
    65de:   2100        movs r1, #0
    65e0:   480f        ldr r0, [pc, #60]    ; (0x6620)
    65e2:   f7fe f824   bl 0x462e
    65e6:   490f        ldr r1, [pc, #60]    ; (0x6624)
    65e8:   2002        movs r0, #2
    65ea:   6288        str r0, [r1, #40]    ; 0x28
    65ec:   4601        mov r1, r0
    65ee:   480e        ldr r0, [pc, #56]    ; (0x6628)
    65f0:   f7fe f816   bl 0x4620
    65f4:   4c0d        ldr r4, [pc, #52]    ; (0x662c)
    65f6:   2201        movs r2, #1
    65f8:   0211        lsls r1, r2, #8
    65fa:   4620        mov r0, r4
    65fc:   f7fd fff4   bl 0x45e8
    6600:   2201        movs r2, #1
    6602:   0391        lsls r1, r2, #14
    6604:   4620        mov r0, r4
    6606:   f7fd ffef   bl 0x45e8
    660a:   4620        mov r0, r4
    660c:   2201        movs r2, #1
    660e:   e8bd 4010   ldmia.w sp!, {r4, lr}
    6612:   03d1        lsls r1, r2, #15
    6614:   f7fd bfe8   b.w 0x45e8
    6618:   7000        strb r0, [r0, #0]
    661a:   4007        ands r7, r0
    661c:   e004        b.n 0x6628
    661e:   e000        b.n 0x6622
    6620:   f000 4006   and.w r0, r0, #2248146944    ; 0x86000000
    6624:   4000        ands r0, r0
    6626:   400b        ands r3, r1
    6628:   2000        movs r0, #0
    662a:   400b        ands r3, r1
    662c:   0000        movs r0, r0
    662e:   400b        ands r3, r1
    6630:   e92d 41f0   stmdb sp!, {r4, r5, r6, r7, r8, lr}
    6634:   2102        movs r1, #2
    6636:   482a        ldr r0, [pc, #168]    ; (0x66e0)
    6638:   f7fd fff2   bl 0x4620
    663c:   4d29        ldr r5, [pc, #164]    ; (0x66e4)
    663e:   f44f 7680   mov.w r6, #256    ; 0x100
    6642:   4631        mov r1, r6
    6644:   4628        mov r0, r5
    6646:   f7fd ffeb   bl 0x4620
    664a:   01b7        lsls r7, r6, #6
    664c:   4639        mov r1, r7
    664e:   4628        mov r0, r5
    6650:   f7fd ffe6   bl 0x4620
    6654:   01f4        lsls r4, r6, #7
    6656:   4621        mov r1, r4
    6658:   4628        mov r0, r5
    665a:   f7fd ffe1   bl 0x4620
    665e:   2200        movs r2, #0
    6660:   4631        mov r1, r6
    6662:   4628        mov r0, r5
    6664:   f7fd ffc0   bl 0x45e8
    6668:   2200        movs r2, #0
    666a:   4639        mov r1, r7
    666c:   4628        mov r0, r5
    666e:   f7fd ffbb   bl 0x45e8
    6672:   2200        movs r2, #0
    6674:   4621        mov r1, r4
    6676:   4628        mov r0, r5
    6678:   f7fd ffb6   bl 0x45e8
    667c:   f242 7010   movw r0, #10000    ; 0x2710
    6680:   f7fd f8de   bl 0x3840
    6684:   4b18        ldr r3, [pc, #96]    ; (0x66e8)
    6686:   2202        movs r2, #2
    6688:   625a        str r2, [r3, #36]    ; 0x24
    668a:   0211        lsls r1, r2, #8
    668c:   4817        ldr r0, [pc, #92]    ; (0x66ec)
    668e:   f7fc ffac   bl 0x35ea
    6692:   4917        ldr r1, [pc, #92]    ; (0x66f0)
    6694:   2000        movs r0, #0
    6696:   7088        strb r0, [r1, #2]
    6698:   2064        movs r0, #100    ; 0x64
    669a:   f7fd f8d1   bl 0x3840
    669e:   f000 f851   bl 0x6744
    66a2:   2002        movs r0, #2
    66a4:   f000 ff38   bl 0x7518
    66a8:   626c        str r4, [r5, #36]    ; 0x24
    66aa:   2101        movs r1, #1
    66ac:   4811        ldr r0, [pc, #68]    ; (0x66f4)
    66ae:   f7fd ffbe   bl 0x462e
    66b2:   4c11        ldr r4, [pc, #68]    ; (0x66f8)
    66b4:   2100        movs r1, #0
    66b6:   4620        mov r0, r4
    66b8:   f7fd f8ab   bl 0x3812
    66bc:   4620        mov r0, r4
    66be:   f7fd f88b   bl 0x37d8
    66c2:   2101        movs r1, #1
    66c4:   4620        mov r0, r4
    66c6:   f7fd f88e   bl 0x37e6
    66ca:   2101        movs r1, #1
    66cc:   4620        mov r0, r4
    66ce:   f7fd f894   bl 0x37fa
    66d2:   490a        ldr r1, [pc, #40]    ; (0x66fc)
    66d4:   1520        asrs r0, r4, #20
    66d6:   f8c1 0100   str.w r0, [r1, #256]    ; 0x100
    66da:   e8bd 81f0   ldmia.w sp!, {r4, r5, r6, r7, r8, pc}
    66de:   0000        movs r0, r0
    66e0:   2000        movs r0, #0
    66e2:   400b        ands r3, r1
    66e4:   0000        movs r0, r0
    66e6:   400b        ands r3, r1
    66e8:   4000        ands r0, r0
    66ea:   400b        ands r3, r1
    66ec:   0404        lsls r4, r0, #16
    66ee:   2000        movs r0, #0
    66f0:   002a        movs r2, r5
    66f2:   2000        movs r0, #0
    66f4:   f000 4006   and.w r0, r0, #2248146944    ; 0x86000000
    66f8:   7000        strb r0, [r0, #0]
    66fa:   4007        ands r7, r0
    66fc:   e004        b.n 0x6708
    66fe:   e000        b.n 0x6702
    6700:   b530        push {r4, r5, lr}
    6702:   2012        movs r0, #18
    6704:   f000 ff08   bl 0x7518
    6708:   210a        movs r1, #10
    670a:   f44f 7040   mov.w r0, #768    ; 0x300
    670e:   f000 ff1b   bl 0x7548
    6712:   2102        movs r1, #2
    6714:   2000        movs r0, #0
    6716:   f000 ff17   bl 0x7548
    671a:   4c09        ldr r4, [pc, #36]    ; (0x6740)
    671c:   f44f 4080   mov.w r0, #16384    ; 0x4000
    6720:   62a0        str r0, [r4, #40]    ; 0x28
    6722:   0045        lsls r5, r0, #1
    6724:   6265        str r5, [r4, #36]    ; 0x24
    6726:   2108        movs r1, #8
    6728:   f44f 6040   mov.w r0, #3072    ; 0xc00
    672c:   f000 ff0c   bl 0x7548
    6730:   15a0        asrs r0, r4, #22
    6732:   6260        str r0, [r4, #36]    ; 0x24
    6734:   62a5        str r5, [r4, #40]    ; 0x28
    6736:   bf00        nop
    6738:   bf00        nop
    673a:   6265        str r5, [r4, #36]    ; 0x24
    673c:   bd30        pop {r4, r5, pc}
    673e:   0000        movs r0, r0
    6740:   0000        movs r0, r0
    6742:   400b        ands r3, r1
    6744:   e92d 47f0   stmdb sp!, {r4, r5, r6, r7, r8, r9, sl, lr}
    6748:   491c        ldr r1, [pc, #112]    ; (0x67bc)
    674a:   481b        ldr r0, [pc, #108]    ; (0x67b8)
    674c:   2410        movs r4, #16
    674e:   788a        ldrb r2, [r1, #2]
    6750:   0127        lsls r7, r4, #4
    6752:   eb00 1582   add.w r5, r0, r2, lsl #6
    6756:   7808        ldrb r0, [r1, #0]
    6758:   4e19        ldr r6, [pc, #100]    ; (0x67c0)
    675a:   f44f 4a80   mov.w sl, #16384    ; 0x4000
    675e:   353e        adds r5, #62    ; 0x3e
    6760:   b130        cbz r0, 0x6770
    6762:   1e40        subs r0, r0, #1
    6764:   f010 00ff   ands.w r0, r0, #255    ; 0xff
    6768:   7008        strb r0, [r1, #0]
    676a:   d101        bne.n 0x6770
    676c:   f7ff ffc8   bl 0x6700
    6770:   46b9        mov r9, r7
    6772:   1e64        subs r4, r4, #1
    6774:   b2e4        uxtb r4, r4
    6776:   d31b        bcc.n 0x67b0
    6778:   f44f 4800   mov.w r8, #32768    ; 0x8000
    677c:   f8c6 8028   str.w r8, [r6, #40]    ; 0x28
    6780:   8828        ldrh r0, [r5, #0]
    6782:   1eaf        subs r7, r5, #2
    6784:   210a        movs r1, #10
    6786:   f000 fedf   bl 0x7548
    678a:   8838        ldrh r0, [r7, #0]
    678c:   2109        movs r1, #9
    678e:   f3c0 1780   ubfx r7, r0, #6, #1
    6792:   1f2d        subs r5, r5, #4
    6794:   f000 fed8   bl 0x7548
    6798:   4650        mov r0, sl
    679a:   f8c6 a028   str.w sl, [r6, #40]    ; 0x28
    679e:   f8c6 8024   str.w r8, [r6, #36]    ; 0x24
    67a2:   4649        mov r1, r9
    67a4:   b10f        cbz r7, 0x67aa
    67a6:   6271        str r1, [r6, #36]    ; 0x24
    67a8:   e000        b.n 0x67ac
    67aa:   62b1        str r1, [r6, #40]    ; 0x28
    67ac:   6270        str r0, [r6, #36]    ; 0x24
    67ae:   e7e0        b.n 0x6772
    67b0:   f8c6 9024   str.w r9, [r6, #36]    ; 0x24
    67b4:   e8bd 87f0   ldmia.w sp!, {r4, r5, r6, r7, r8, r9, sl, pc}
    67b8:   0404        lsls r4, r0, #16
    67ba:   2000        movs r0, #0
    67bc:   002a        movs r2, r5
    67be:   2000        movs r0, #0
    67c0:   0000        movs r0, r0
    67c2:   400b        ands r3, r1
    67c4:   2900        cmp r1, #0
    67c6:   6801        ldr r1, [r0, #0]
    67c8:   d002        beq.n 0x67d0
    67ca:   f041 0101   orr.w r1, r1, #1
    67ce:   e001        b.n 0x67d4
    67d0:   f021 0101   bic.w r1, r1, #1
    67d4:   6001        str r1, [r0, #0]
    67d6:   4770        bx lr
    67d8:   b530        push {r4, r5, lr}
    67da:   e9d1 4305   ldrd r4, r3, [r1, #20]
    67de:   b1e4        cbz r4, 0x681a
    67e0:   f44f 7200   mov.w r2, #512    ; 0x200
    67e4:   40da        lsrs r2, r3
    67e6:   4322        orrs r2, r4
    67e8:   688c        ldr r4, [r1, #8]
    67ea:   680b        ldr r3, [r1, #0]
    67ec:   4323        orrs r3, r4
    67ee:   e9d1 4503   ldrd r4, r5, [r1, #12]
    67f2:   432c        orrs r4, r5
    67f4:   4323        orrs r3, r4
    67f6:   69cc        ldr r4, [r1, #28]
    67f8:   4323        orrs r3, r4
    67fa:   4313        orrs r3, r2
    67fc:   6043        str r3, [r0, #4]
    67fe:   6a4b        ldr r3, [r1, #36]    ; 0x24
    6800:   684a        ldr r2, [r1, #4]
    6802:   431a        orrs r2, r3
    6804:   6a0b        ldr r3, [r1, #32]
    6806:   ea42 1203   orr.w r2, r2, r3, lsl #4
    680a:   6182        str r2, [r0, #24]
    680c:   6a89        ldr r1, [r1, #40]    ; 0x28
    680e:   f04f 32ff   mov.w r2, #4294967295    ; 0xffffffff
    6812:   eb02 0151   add.w r1, r2, r1, lsr #1
    6816:   60c1        str r1, [r0, #12]
    6818:   bd30        pop {r4, r5, pc}
    681a:   f44f 7280   mov.w r2, #256    ; 0x100
    681e:   409a        lsls r2, r3
    6820:   e7e2        b.n 0x67e8
    6822:   2900        cmp r1, #0
    6824:   6801        ldr r1, [r0, #0]
    6826:   d002        beq.n 0x682e
    6828:   f041 0108   orr.w r1, r1, #8
    682c:   e001        b.n 0x6832
    682e:   f021 0108   bic.w r1, r1, #8
    6832:   6001        str r1, [r0, #0]
    6834:   4770        bx lr
    6836:   b570        push {r4, r5, r6, lr}
    6838:   4605        mov r5, r0
    683a:   f7fd fca3   bl 0x4184
    683e:   f360 0407   bfi r4, r0, #0, #8
    6842:   b18d        cbz r5, 0x6868
    6844:   2d01        cmp r5, #1
    6846:   d005        beq.n 0x6854
    6848:   2d02        cmp r5, #2
    684a:   d106        bne.n 0x685a
    684c:   b2a0        uxth r0, r4
    684e:   f040 0402   orr.w r4, r0, #2
    6852:   e002        b.n 0x685a
    6854:   b2a0        uxth r0, r4
    6856:   f020 0402   bic.w r4, r0, #2
    685a:   b2e0        uxtb r0, r4
    685c:   f7fd fe9a   bl 0x4594
    6860:   f7fd fc90   bl 0x4184
    6864:   f360 0407   bfi r4, r0, #0, #8
    6868:   07a0        lsls r0, r4, #30
    686a:   d501        bpl.n 0x6870
    686c:   2001        movs r0, #1
    686e:   bd70        pop {r4, r5, r6, pc}
    6870:   2000        movs r0, #0
    6872:   bd70        pop {r4, r5, r6, pc}
    6874:   4814        ldr r0, [pc, #80]    ; (0x68c8)
    6876:   2101        movs r1, #1
    6878:   f8c0 1300   str.w r1, [r0, #768]    ; 0x300
    687c:   4a13        ldr r2, [pc, #76]    ; (0x68cc)
    687e:   f8c2 10a8   str.w r1, [r2, #168]    ; 0xa8
    6882:   f8d2 3108   ldr.w r3, [r2, #264]    ; 0x108
    6886:   2b00        cmp r3, #0
    6888:   d0fb        beq.n 0x6882
    688a:   2300        movs r3, #0
    688c:   6213        str r3, [r2, #32]
    688e:   f04f 6310   mov.w r3, #150994944    ; 0x9000000
    6892:   6183        str r3, [r0, #24]
    6894:   f8c2 10a4   str.w r1, [r2, #164]    ; 0xa4
    6898:   f8d2 3104   ldr.w r3, [r2, #260]    ; 0x104
    689c:   2b00        cmp r3, #0
    689e:   d0fb        beq.n 0x6898
    68a0:   4a0b        ldr r2, [pc, #44]    ; (0x68d0)
    68a2:   f8d2 3200   ldr.w r3, [r2, #512]    ; 0x200
    68a6:   f023 0307   bic.w r3, r3, #7
    68aa:   1cdb        adds r3, r3, #3
    68ac:   f8c2 3200   str.w r3, [r2, #512]    ; 0x200
    68b0:   6201        str r1, [r0, #32]
    68b2:   6842        ldr r2, [r0, #4]
    68b4:   f022 0203   bic.w r2, r2, #3
    68b8:   1c52        adds r2, r2, #1
    68ba:   6042        str r2, [r0, #4]
    68bc:   6b42        ldr r2, [r0, #52]    ; 0x34
    68be:   ebb1 7f92   cmp.w r1, r2, lsr #30
    68c2:   d1fb        bne.n 0x68bc
    68c4:   4770        bx lr
    68c6:   0000        movs r0, r0
    68c8:   8000        strh r0, [r0, #0]
    68ca:   4008        ands r0, r1
    68cc:   0000        movs r0, r0
    68ce:   4310        orrs r0, r2
    68d0:   0000        movs r0, r0
    68d2:   4008        ands r0, r1
    68d4:   4806        ldr r0, [pc, #24]    ; (0x68f0)
    68d6:   2100        movs r1, #0
    68d8:   f100 0208   add.w r2, r0, #8
    68dc:   61c1        str r1, [r0, #28]
    68de:   6201        str r1, [r0, #32]
    68e0:   7051        strb r1, [r2, #1]
    68e2:   f8c0 1015   str.w r1, [r0, #21]
    68e6:   211d        movs r1, #29
    68e8:   4802        ldr r0, [pc, #8]    ; (0x68f4)
    68ea:   f7fc be7e   b.w 0x35ea
    68ee:   0000        movs r0, r0
    68f0:   0044        lsls r4, r0, #1
    68f2:   2000        movs r0, #0
    68f4:   06ae        lsls r6, r5, #26
    68f6:   2000        movs r0, #0
    68f8:   b510        push {r4, lr}
    68fa:   4808        ldr r0, [pc, #32]    ; (0x691c)
    68fc:   4907        ldr r1, [pc, #28]    ; (0x691c)
    68fe:   2401        movs r4, #1
    6900:   7004        strb r4, [r0, #0]
    6902:   310c        adds r1, #12
    6904:   2002        movs r0, #2
    6906:   7008        strb r0, [r1, #0]
    6908:   4905        ldr r1, [pc, #20]    ; (0x6920)
    690a:   2004        movs r0, #4
    690c:   7008        strb r0, [r1, #0]
    690e:   f7ff ffe1   bl 0x68d4
    6912:   4802        ldr r0, [pc, #8]    ; (0x691c)
    6914:   3808        subs r0, #8
    6916:   7144        strb r4, [r0, #5]
    6918:   bd10        pop {r4, pc}
    691a:   0000        movs r0, r0
    691c:   004c        lsls r4, r1, #1
    691e:   2000        movs r0, #0
    6920:   06ac        lsls r4, r5, #26
    6922:   2000        movs r0, #0
    6924:   f890 0034   ldrb.w r0, [r0, #52]    ; 0x34
    6928:   f3c0 0040   ubfx r0, r0, #1, #1
    692c:   4770        bx lr
    692e:   0000        movs r0, r0
    6930:   e92d 41f0   stmdb sp!, {r4, r5, r6, r7, r8, lr}
    6934:   4604        mov r4, r0
    6936:   f000 fa1d   bl 0x6d74
    693a:   4605        mov r5, r0
    693c:   4e56        ldr r6, [pc, #344]    ; (0x6a98)
    693e:   0780        lsls r0, r0, #30
    6940:   d505        bpl.n 0x694e
    6942:   6870        ldr r0, [r6, #4]
    6944:   b100        cbz r0, 0x6948
    6946:   4780        blx r0
    6948:   2002        movs r0, #2
    694a:   f000 f8c1   bl 0x6ad0
    694e:   06e8        lsls r0, r5, #27
    6950:   d50f        bpl.n 0x6972
    6952:   2010        movs r0, #16
    6954:   f000 f8bc   bl 0x6ad0
    6958:   f894 0032   ldrb.w r0, [r4, #50]    ; 0x32
    695c:   2802        cmp r0, #2
    695e:   d308        bcc.n 0x6972
    6960:   f000 fa12   bl 0x6d88
    6964:   f894 0032   ldrb.w r0, [r4, #50]    ; 0x32
    6968:   f884 0033   strb.w r0, [r4, #51]    ; 0x33
    696c:   2003        movs r0, #3
    696e:   f884 0032   strb.w r0, [r4, #50]    ; 0x32
    6972:   0768        lsls r0, r5, #29
    6974:   f04f 0700   mov.w r7, #0
    6978:   d521        bpl.n 0x69be
    697a:   1e78        subs r0, r7, #1
    697c:   6220        str r0, [r4, #32]
    697e:   f884 7030   strb.w r7, [r4, #48]    ; 0x30
    6982:   f884 7031   strb.w r7, [r4, #49]    ; 0x31
    6986:   f894 0034   ldrb.w r0, [r4, #52]    ; 0x34
    698a:   f020 0002   bic.w r0, r0, #2
    698e:   f884 0034   strb.w r0, [r4, #52]    ; 0x34
    6992:   2004        movs r0, #4
    6994:   f884 0032   strb.w r0, [r4, #50]    ; 0x32
    6998:   63a7        str r7, [r4, #56]    ; 0x38
    699a:   f000 f8f1   bl 0x6b80
    699e:   f000 f9fb   bl 0x6d98
    69a2:   493e        ldr r1, [pc, #248]    ; (0x6a9c)
    69a4:   2000        movs r0, #0
    69a6:   f000 f949   bl 0x6c3c
    69aa:   483c        ldr r0, [pc, #240]    ; (0x6a9c)
    69ac:   6800        ldr r0, [r0, #0]
    69ae:   f000 f9c9   bl 0x6d44
    69b2:   6830        ldr r0, [r6, #0]
    69b4:   b100        cbz r0, 0x69b8
    69b6:   4780        blx r0
    69b8:   2004        movs r0, #4
    69ba:   f000 f889   bl 0x6ad0
    69be:   0728        lsls r0, r5, #28
    69c0:   d508        bpl.n 0x69d4
    69c2:   f000 f9e9   bl 0x6d98
    69c6:   f894 0033   ldrb.w r0, [r4, #51]    ; 0x33
    69ca:   f884 0032   strb.w r0, [r4, #50]    ; 0x32
    69ce:   2008        movs r0, #8
    69d0:   f000 f87e   bl 0x6ad0
    69d4:   05e8        lsls r0, r5, #23
    69d6:   f44f 7880   mov.w r8, #256    ; 0x100
    69da:   d53d        bpl.n 0x6a58
    69dc:   2000        movs r0, #0
    69de:   f000 f91d   bl 0x6c1c
    69e2:   4605        mov r5, r0
    69e4:   0580        lsls r0, r0, #22
    69e6:   d50a        bpl.n 0x69fe
    69e8:   4620        mov r0, r4
    69ea:   f000 fa65   bl 0x6eb8
    69ee:   4620        mov r0, r4
    69f0:   f000 ff1c   bl 0x782c
    69f4:   f44f 7100   mov.w r1, #512    ; 0x200
    69f8:   2000        movs r0, #0
    69fa:   f000 f8d7   bl 0x6bac
    69fe:   07a8        lsls r0, r5, #30
    6a00:   d51e        bpl.n 0x6a40
    6a02:   2102        movs r1, #2
    6a04:   2000        movs r0, #0
    6a06:   f000 f8d1   bl 0x6bac
    6a0a:   6a20        ldr r0, [r4, #32]
    6a0c:   1c40        adds r0, r0, #1
    6a0e:   d017        beq.n 0x6a40
    6a10:   f894 0024   ldrb.w r0, [r4, #36]    ; 0x24
    6a14:   2802        cmp r0, #2
    6a16:   d113        bne.n 0x6a40
    6a18:   2240        movs r2, #64    ; 0x40
    6a1a:   2000        movs r0, #0
    6a1c:   69e1        ldr r1, [r4, #28]
    6a1e:   f000 f93d   bl 0x6c9c
    6a22:   69e1        ldr r1, [r4, #28]
    6a24:   4401        add r1, r0
    6a26:   61e1        str r1, [r4, #28]
    6a28:   6a21        ldr r1, [r4, #32]
    6a2a:   1a08        subs r0, r1, r0
    6a2c:   6220        str r0, [r4, #32]
    6a2e:   d107        bne.n 0x6a40
    6a30:   2001        movs r0, #1
    6a32:   f884 0024   strb.w r0, [r4, #36]    ; 0x24
    6a36:   6aa1        ldr r1, [r4, #40]    ; 0x28
    6a38:   b111        cbz r1, 0x6a40
    6a3a:   6ae0        ldr r0, [r4, #44]    ; 0x2c
    6a3c:   4788        blx r1
    6a3e:   62a7        str r7, [r4, #40]    ; 0x28
    6a40:   06e8        lsls r0, r5, #27
    6a42:   d506        bpl.n 0x6a52
    6a44:   4620        mov r0, r4
    6a46:   f000 fecf   bl 0x77e8
    6a4a:   2110        movs r1, #16
    6a4c:   2000        movs r0, #0
    6a4e:   f000 f8ad   bl 0x6bac
    6a52:   4640        mov r0, r8
    6a54:   f000 f83c   bl 0x6ad0
    6a58:   4644        mov r4, r8
    6a5a:   f000 f98b   bl 0x6d74
    6a5e:   f000 f979   bl 0x6d54
    6a62:   4605        mov r5, r0
    6a64:   1c40        adds r0, r0, #1
    6a66:   d014        beq.n 0x6a92
    6a68:   4628        mov r0, r5
    6a6a:   f000 f8d7   bl 0x6c1c
    6a6e:   f010 0f12   tst.w r0, #18
    6a72:   d0f2        beq.n 0x6a5a
    6a74:   2112        movs r1, #18
    6a76:   4628        mov r0, r5
    6a78:   f000 f898   bl 0x6bac
    6a7c:   fa04 f005   lsl.w r0, r4, r5
    6a80:   f000 f826   bl 0x6ad0
    6a84:   69b0        ldr r0, [r6, #24]
    6a86:   2800        cmp r0, #0
    6a88:   d0e7        beq.n 0x6a5a
    6a8a:   4601        mov r1, r0
    6a8c:   4628        mov r0, r5
    6a8e:   4788        blx r1
    6a90:   e7e3        b.n 0x6a5a
    6a92:   e8bd 81f0   ldmia.w sp!, {r4, r5, r6, r7, r8, pc}
    6a96:   0000        movs r0, r0
    6a98:   8400        strh r0, [r0, #32]
    6a9a:   0000        movs r0, r0
    6a9c:   018c        lsls r4, r1, #6
    6a9e:   2000        movs r0, #0
    6aa0:   2102        movs r1, #2
    6aa2:   f880 1032   strb.w r1, [r0, #50]    ; 0x32
    6aa6:   4801        ldr r0, [pc, #4]    ; (0x6aac)
    6aa8:   f000 b96c   b.w 0x6d84
    6aac:   018c        lsls r4, r1, #6
    6aae:   2000        movs r0, #0
    6ab0:   f890 0032   ldrb.w r0, [r0, #50]    ; 0x32
    6ab4:   2803        cmp r0, #3
    6ab6:   d001        beq.n 0x6abc
    6ab8:   2000        movs r0, #0
    6aba:   4770        bx lr
    6abc:   2001        movs r0, #1
    6abe:   4770        bx lr
    6ac0:   b510        push {r4, lr}
    6ac2:   f000 f969   bl 0x6d98
    6ac6:   e8bd 4010   ldmia.w sp!, {r4, lr}
    6aca:   f000 b9fd   b.w 0x6ec8
    6ace:   0000        movs r0, r0
    6ad0:   4901        ldr r1, [pc, #4]    ; (0x6ad8)
    6ad2:   6088        str r0, [r1, #8]
    6ad4:   4770        bx lr
    6ad6:   0000        movs r0, r0
    6ad8:   8000        strh r0, [r0, #0]
    6ada:   400a        ands r2, r1
    6adc:   b510        push {r4, lr}
    6ade:   2100        movs r1, #0
    6ae0:   f44f 6080   mov.w r0, #1024    ; 0x400
    6ae4:   2240        movs r2, #64    ; 0x40
    6ae6:   2301        movs r3, #1
    6ae8:   f7fc ff0c   bl 0x3904
    6aec:   2002        movs r0, #2
    6aee:   f7fc ff1b   bl 0x3928
    6af2:   4c12        ldr r4, [pc, #72]    ; (0x6b3c)
    6af4:   4810        ldr r0, [pc, #64]    ; (0x6b38)
    6af6:   60a0        str r0, [r4, #8]
    6af8:   385c        subs r0, #92    ; 0x5c
    6afa:   60e0        str r0, [r4, #12]
    6afc:   38f4        subs r0, #244    ; 0xf4
    6afe:   6120        str r0, [r4, #16]
    6b00:   2002        movs r0, #2
    6b02:   6160        str r0, [r4, #20]
    6b04:   f7ff fef8   bl 0x68f8
    6b08:   4620        mov r0, r4
    6b0a:   f7ff ffc9   bl 0x6aa0
    6b0e:   490c        ldr r1, [pc, #48]    ; (0x6b40)
    6b10:   f44f 1000   mov.w r0, #2097152    ; 0x200000
    6b14:   f8c1 0100   str.w r0, [r1, #256]    ; 0x100
    6b18:   2001        movs r0, #1
    6b1a:   f000 f823   bl 0x6b64
    6b1e:   20fa        movs r0, #250    ; 0xfa
    6b20:   f7fc fe8e   bl 0x3840
    6b24:   f894 0034   ldrb.w r0, [r4, #52]    ; 0x34
    6b28:   e8bd 4010   ldmia.w sp!, {r4, lr}
    6b2c:   f000 0101   and.w r1, r0, #1
    6b30:   4804        ldr r0, [pc, #16]    ; (0x6b44)
    6b32:   f000 b939   b.w 0x6da8
    6b36:   0000        movs r0, r0
    6b38:   83c4        strh r4, [r0, #30]
    6b3a:   0000        movs r0, r0
    6b3c:   06cc        lsls r4, r1, #27
    6b3e:   2000        movs r0, #0
    6b40:   e004        b.n 0x6b4c
    6b42:   e000        b.n 0x6b46
    6b44:   018c        lsls r4, r1, #6
    6b46:   2000        movs r0, #0
    6b48:   4905        ldr r1, [pc, #20]    ; (0x6b60)
    6b4a:   2801        cmp r0, #1
    6b4c:   6808        ldr r0, [r1, #0]
    6b4e:   d003        beq.n 0x6b58
    6b50:   f420 6000   bic.w r0, r0, #2048    ; 0x800
    6b54:   6008        str r0, [r1, #0]
    6b56:   4770        bx lr
    6b58:   f440 6000   orr.w r0, r0, #2048    ; 0x800
    6b5c:   e7fa        b.n 0x6b54
    6b5e:   0000        movs r0, r0
    6b60:   8000        strh r0, [r0, #0]
    6b62:   400a        ands r2, r1
    6b64:   4905        ldr r1, [pc, #20]    ; (0x6b7c)
    6b66:   2801        cmp r0, #1
    6b68:   6808        ldr r0, [r1, #0]
    6b6a:   d003        beq.n 0x6b74
    6b6c:   f420 6080   bic.w r0, r0, #1024    ; 0x400
    6b70:   6008        str r0, [r1, #0]
    6b72:   4770        bx lr
    6b74:   f440 6080   orr.w r0, r0, #1024    ; 0x400
    6b78:   e7fa        b.n 0x6b70
    6b7a:   0000        movs r0, r0
    6b7c:   8000        strh r0, [r0, #0]
    6b7e:   400a        ands r2, r1
    6b80:   2100        movs r1, #0
    6b82:   2020        movs r0, #32
    6b84:   2301        movs r3, #1
    6b86:   460a        mov r2, r1
    6b88:   f7ff bad8   b.w 0x613c
    6b8c:   b510        push {r4, lr}
    6b8e:   f000 ff5f   bl 0x7a50
    6b92:   6801        ldr r1, [r0, #0]
    6b94:   f001 0109   and.w r1, r1, #9
    6b98:   6001        str r1, [r0, #0]
    6b9a:   bd10        pop {r4, pc}
    6b9c:   b510        push {r4, lr}
    6b9e:   f000 ff57   bl 0x7a50
    6ba2:   6801        ldr r1, [r0, #0]
    6ba4:   f001 0124   and.w r1, r1, #36    ; 0x24
    6ba8:   6001        str r1, [r0, #0]
    6baa:   bd10        pop {r4, pc}
    6bac:   b510        push {r4, lr}
    6bae:   460c        mov r4, r1
    6bb0:   f000 ff4e   bl 0x7a50
    6bb4:   6084        str r4, [r0, #8]
    6bb6:   bd10        pop {r4, pc}
    6bb8:   b510        push {r4, lr}
    6bba:   f000 ff49   bl 0x7a50
    6bbe:   6900        ldr r0, [r0, #16]
    6bc0:   4902        ldr r1, [pc, #8]    ; (0x6bcc)
    6bc2:   f3c0 0009   ubfx r0, r0, #0, #10
    6bc6:   4408        add r0, r1
    6bc8:   bd10        pop {r4, pc}
    6bca:   0000        movs r0, r0
    6bcc:   a000        add r0, pc, #0    ; (adr r0, 0x6bd0)
    6bce:   400a        ands r2, r1
    6bd0:   b570        push {r4, r5, r6, lr}
    6bd2:   4605        mov r5, r0
    6bd4:   f000 ff3c   bl 0x7a50
    6bd8:   4604        mov r4, r0
    6bda:   4628        mov r0, r5
    6bdc:   f000 f80a   bl 0x6bf4
    6be0:   6921        ldr r1, [r4, #16]
    6be2:   f3c1 0109   ubfx r1, r1, #0, #10
    6be6:   4408        add r0, r1
    6be8:   4901        ldr r1, [pc, #4]    ; (0x6bf0)
    6bea:   4408        add r0, r1
    6bec:   bd70        pop {r4, r5, r6, pc}
    6bee:   0000        movs r0, r0
    6bf0:   a000        add r0, pc, #0    ; (adr r0, 0x6bf4)
    6bf2:   400a        ands r2, r1
    6bf4:   b510        push {r4, lr}
    6bf6:   f000 ff2b   bl 0x7a50
    6bfa:   6900        ldr r0, [r0, #16]
    6bfc:   f3c0 2089   ubfx r0, r0, #10, #10
    6c00:   bd10        pop {r4, pc}
    6c02:   b510        push {r4, lr}
    6c04:   f000 ff24   bl 0x7a50
    6c08:   6901        ldr r1, [r0, #16]
    6c0a:   6800        ldr r0, [r0, #0]
    6c0c:   00c9        lsls r1, r1, #3
    6c0e:   d502        bpl.n 0x6c16
    6c10:   f3c0 0080   ubfx r0, r0, #2, #1
    6c14:   bd10        pop {r4, pc}
    6c16:   f3c0 1040   ubfx r0, r0, #5, #1
    6c1a:   bd10        pop {r4, pc}
    6c1c:   b510        push {r4, lr}
    6c1e:   f000 ff17   bl 0x7a50
    6c22:   6841        ldr r1, [r0, #4]
    6c24:   6880        ldr r0, [r0, #8]
    6c26:   4008        ands r0, r1
    6c28:   bd10        pop {r4, pc}
    6c2a:   b510        push {r4, lr}
    6c2c:   460c        mov r4, r1
    6c2e:   f000 ff0f   bl 0x7a50
    6c32:   68c0        ldr r0, [r0, #12]
    6c34:   40e0        lsrs r0, r4
    6c36:   f3c0 0008   ubfx r0, r0, #0, #9
    6c3a:   bd10        pop {r4, pc}
    6c3c:   b570        push {r4, r5, r6, lr}
    6c3e:   460c        mov r4, r1
    6c40:   4605        mov r5, r0
    6c42:   f000 ff05   bl 0x7a50
    6c46:   eb04 01c5   add.w r1, r4, r5, lsl #3
    6c4a:   684a        ldr r2, [r1, #4]
    6c4c:   6102        str r2, [r0, #16]
    6c4e:   6889        ldr r1, [r1, #8]
    6c50:   6041        str r1, [r0, #4]
    6c52:   f04f 31ff   mov.w r1, #4294967295    ; 0xffffffff
    6c56:   6081        str r1, [r0, #8]
    6c58:   4628        mov r0, r5
    6c5a:   e8bd 4070   ldmia.w sp!, {r4, r5, r6, lr}
    6c5e:   f000 b835   b.w 0x6ccc
    6c62:   e92d 41f0   stmdb sp!, {r4, r5, r6, r7, r8, lr}
    6c66:   4616        mov r6, r2
    6c68:   460f        mov r7, r1
    6c6a:   0005        movs r5, r0
    6c6c:   d011        beq.n 0x6c92
    6c6e:   2100        movs r1, #0
    6c70:   f7ff ffdb   bl 0x6c2a
    6c74:   4604        mov r4, r0
    6c76:   42b0        cmp r0, r6
    6c78:   d808        bhi.n 0x6c8c
    6c7a:   4628        mov r0, r5
    6c7c:   b15d        cbz r5, 0x6c96
    6c7e:   f7ff ff9b   bl 0x6bb8
    6c82:   1ce1        adds r1, r4, #3
    6c84:   088a        lsrs r2, r1, #2
    6c86:   4639        mov r1, r7
    6c88:   f000 feda   bl 0x7a40
    6c8c:   4620        mov r0, r4
    6c8e:   e8bd 81f0   ldmia.w sp!, {r4, r5, r6, r7, r8, pc}
    6c92:   2110        movs r1, #16
    6c94:   e7ec        b.n 0x6c70
    6c96:   f7ff ff9b   bl 0x6bd0
    6c9a:   e7f2        b.n 0x6c82
    6c9c:   e92d 41f0   stmdb sp!, {r4, r5, r6, r7, r8, lr}
    6ca0:   4615        mov r5, r2
    6ca2:   460e        mov r6, r1
    6ca4:   4607        mov r7, r0
    6ca6:   f000 fed3   bl 0x7a50
    6caa:   4604        mov r4, r0
    6cac:   2000        movs r0, #0
    6cae:   b13d        cbz r5, 0x6cc0
    6cb0:   462a        mov r2, r5
    6cb2:   4631        mov r1, r6
    6cb4:   4638        mov r0, r7
    6cb6:   f7ff ffd4   bl 0x6c62
    6cba:   b908        cbnz r0, 0x6cc0
    6cbc:   2d00        cmp r5, #0
    6cbe:   d103        bne.n 0x6cc8
    6cc0:   6821        ldr r1, [r4, #0]
    6cc2:   f001 0110   and.w r1, r1, #16
    6cc6:   6021        str r1, [r4, #0]
    6cc8:   e8bd 81f0   ldmia.w sp!, {r4, r5, r6, r7, r8, pc}
    6ccc:   b510        push {r4, lr}
    6cce:   f000 febf   bl 0x7a50
    6cd2:   6801        ldr r1, [r0, #0]
    6cd4:   f001 0119   and.w r1, r1, #25
    6cd8:   6001        str r1, [r0, #0]
    6cda:   bd10        pop {r4, pc}
    6cdc:   b510        push {r4, lr}
    6cde:   f000 feb7   bl 0x7a50
    6ce2:   2104        movs r1, #4
    6ce4:   6001        str r1, [r0, #0]
    6ce6:   bd10        pop {r4, pc}
    6ce8:   b510        push {r4, lr}
    6cea:   f000 feb1   bl 0x7a50
    6cee:   2140        movs r1, #64    ; 0x40
    6cf0:   6081        str r1, [r0, #8]
    6cf2:   6802        ldr r2, [r0, #0]
    6cf4:   2124        movs r1, #36    ; 0x24
    6cf6:   4391        bics r1, r2
    6cf8:   6001        str r1, [r0, #0]
    6cfa:   bd10        pop {r4, pc}
    6cfc:   e92d 41f0   stmdb sp!, {r4, r5, r6, r7, r8, lr}
    6d00:   4614        mov r4, r2
    6d02:   4688        mov r8, r1
    6d04:   4607        mov r7, r0
    6d06:   f7ff ff75   bl 0x6bf4
    6d0a:   4606        mov r6, r0
    6d0c:   4638        mov r0, r7
    6d0e:   f000 fe9f   bl 0x7a50
    6d12:   4605        mov r5, r0
    6d14:   2100        movs r1, #0
    6d16:   4638        mov r0, r7
    6d18:   f7ff ff87   bl 0x6c2a
    6d1c:   42b4        cmp r4, r6
    6d1e:   d800        bhi.n 0x6d22
    6d20:   b110        cbz r0, 0x6d28
    6d22:   2000        movs r0, #0
    6d24:   e8bd 81f0   ldmia.w sp!, {r4, r5, r6, r7, r8, pc}
    6d28:   4638        mov r0, r7
    6d2a:   f7ff ff45   bl 0x6bb8
    6d2e:   4601        mov r1, r0
    6d30:   1ce0        adds r0, r4, #3
    6d32:   0882        lsrs r2, r0, #2
    6d34:   4640        mov r0, r8
    6d36:   f000 fe83   bl 0x7a40
    6d3a:   60ec        str r4, [r5, #12]
    6d3c:   2002        movs r0, #2
    6d3e:   6028        str r0, [r5, #0]
    6d40:   4620        mov r0, r4
    6d42:   e7ef        b.n 0x6d24
    6d44:   4902        ldr r1, [pc, #8]    ; (0x6d50)
    6d46:   684a        ldr r2, [r1, #4]
    6d48:   4302        orrs r2, r0
    6d4a:   604a        str r2, [r1, #4]
    6d4c:   4770        bx lr
    6d4e:   0000        movs r0, r0
    6d50:   8000        strh r0, [r0, #0]
    6d52:   400a        ands r2, r1
    6d54:   4603        mov r3, r0
    6d56:   2107        movs r1, #7
    6d58:   f101 0208   add.w r2, r1, #8
    6d5c:   fa23 f002   lsr.w r0, r3, r2
    6d60:   07c2        lsls r2, r0, #31
    6d62:   d001        beq.n 0x6d68
    6d64:   b248        sxtb r0, r1
    6d66:   4770        bx lr
    6d68:   1e49        subs r1, r1, #1
    6d6a:   2900        cmp r1, #0
    6d6c:   dcf4        bgt.n 0x6d58
    6d6e:   f04f 30ff   mov.w r0, #4294967295    ; 0xffffffff
    6d72:   4770        bx lr
    6d74:   4802        ldr r0, [pc, #8]    ; (0x6d80)
    6d76:   6841        ldr r1, [r0, #4]
    6d78:   6880        ldr r0, [r0, #8]
    6d7a:   4008        ands r0, r1
    6d7c:   4770        bx lr
    6d7e:   0000        movs r0, r0
    6d80:   8000        strh r0, [r0, #0]
    6d82:   400a        ands r2, r1
    6d84:   f000 b84c   b.w 0x6e20
    6d88:   4802        ldr r0, [pc, #8]    ; (0x6d94)
    6d8a:   6801        ldr r1, [r0, #0]
    6d8c:   f041 010c   orr.w r1, r1, #12
    6d90:   6001        str r1, [r0, #0]
    6d92:   4770        bx lr
    6d94:   8000        strh r0, [r0, #0]
    6d96:   400a        ands r2, r1
    6d98:   4802        ldr r0, [pc, #8]    ; (0x6da4)
    6d9a:   6801        ldr r1, [r0, #0]
    6d9c:   f401 6180   and.w r1, r1, #1024    ; 0x400
    6da0:   6001        str r1, [r0, #0]
    6da2:   4770        bx lr
    6da4:   8000        strh r0, [r0, #0]
    6da6:   400a        ands r2, r1
    6da8:   b510        push {r4, lr}
    6daa:   4604        mov r4, r0
    6dac:   481a        ldr r0, [pc, #104]    ; (0x6e18)
    6dae:   6802        ldr r2, [r0, #0]
    6db0:   2a01        cmp r2, #1
    6db2:   d12f        bne.n 0x6e14
    6db4:   2200        movs r2, #0
    6db6:   6002        str r2, [r0, #0]
    6db8:   4818        ldr r0, [pc, #96]    ; (0x6e1c)
    6dba:   6802        ldr r2, [r0, #0]
    6dbc:   0653        lsls r3, r2, #25
    6dbe:   f04f 32ff   mov.w r2, #4294967295    ; 0xffffffff
    6dc2:   d50c        bpl.n 0x6dde
    6dc4:   f240 430c   movw r3, #1036    ; 0x40c
    6dc8:   6003        str r3, [r0, #0]
    6dca:   6082        str r2, [r0, #8]
    6dcc:   b911        cbnz r1, 0x6dd4
    6dce:   2000        movs r0, #0
    6dd0:   f7ff f892   bl 0x5ef8
    6dd4:   6820        ldr r0, [r4, #0]
    6dd6:   e8bd 4010   ldmia.w sp!, {r4, lr}
    6dda:   f7ff bfb3   b.w 0x6d44
    6dde:   f640 430c   movw r3, #3084    ; 0xc0c
    6de2:   6003        str r3, [r0, #0]
    6de4:   6082        str r2, [r0, #8]
    6de6:   b911        cbnz r1, 0x6dee
    6de8:   2000        movs r0, #0
    6dea:   f7ff f885   bl 0x5ef8
    6dee:   2000        movs r0, #0
    6df0:   f7ff feaa   bl 0x6b48
    6df4:   6820        ldr r0, [r4, #0]
    6df6:   f7ff ffa5   bl 0x6d44
    6dfa:   2000        movs r0, #0
    6dfc:   f7ff feb2   bl 0x6b64
    6e00:   21c8        movs r1, #200    ; 0xc8
    6e02:   2000        movs r0, #0
    6e04:   1c40        adds r0, r0, #1
    6e06:   4288        cmp r0, r1
    6e08:   d3fc        bcc.n 0x6e04
    6e0a:   e8bd 4010   ldmia.w sp!, {r4, lr}
    6e0e:   2001        movs r0, #1
    6e10:   f7ff bea8   b.w 0x6b64
    6e14:   bd10        pop {r4, pc}
    6e16:   0000        movs r0, r0
    6e18:   0020        movs r0, r4
    6e1a:   2000        movs r0, #0
    6e1c:   8000        strh r0, [r0, #0]
    6e1e:   400a        ands r2, r1
    6e20:   f241 111d   movw r1, #4381    ; 0x111d
    6e24:   6001        str r1, [r0, #0]
    6e26:   490a        ldr r1, [pc, #40]    ; (0x6e50)
    6e28:   6041        str r1, [r0, #4]
    6e2a:   f240 2112   movw r1, #530    ; 0x212
    6e2e:   6081        str r1, [r0, #8]
    6e30:   4908        ldr r1, [pc, #32]    ; (0x6e54)
    6e32:   60c1        str r1, [r0, #12]
    6e34:   4a08        ldr r2, [pc, #32]    ; (0x6e58)
    6e36:   2110        movs r1, #16
    6e38:   e9c0 1204   strd r1, r2, [r0, #16]
    6e3c:   6181        str r1, [r0, #24]
    6e3e:   4907        ldr r1, [pc, #28]    ; (0x6e5c)
    6e40:   61c1        str r1, [r0, #28]
    6e42:   2100        movs r1, #0
    6e44:   6201        str r1, [r0, #32]
    6e46:   4906        ldr r1, [pc, #24]    ; (0x6e60)
    6e48:   6241        str r1, [r0, #36]    ; 0x24
    6e4a:   2102        movs r1, #2
    6e4c:   6281        str r1, [r0, #40]    ; 0x28
    6e4e:   4770        bx lr
    6e50:   0008        movs r0, r1
    6e52:   8001        strh r1, [r0, #0]
    6e54:   2088        movs r0, #136    ; 0x88
    6e56:   9100        str r1, [sp, #0]
    6e58:   0090        lsls r0, r2, #2
    6e5a:   9201        str r2, [sp, #4]
    6e5c:   00d0        lsls r0, r2, #3
    6e5e:   9301        str r3, [sp, #4]
    6e60:   0110        lsls r0, r2, #4
    6e62:   8401        strh r1, [r0, #32]
    6e64:   b510        push {r4, lr}
    6e66:   4c12        ldr r4, [pc, #72]    ; (0x6eb0)
    6e68:   f894 0032   ldrb.w r0, [r4, #50]    ; 0x32
    6e6c:   2803        cmp r0, #3
    6e6e:   d101        bne.n 0x6e74
    6e70:   f000 fdf6   bl 0x7a60
    6e74:   490f        ldr r1, [pc, #60]    ; (0x6eb4)
    6e76:   7948        ldrb r0, [r1, #5]
    6e78:   b178        cbz r0, 0x6e9a
    6e7a:   2801        cmp r0, #1
    6e7c:   d009        beq.n 0x6e92
    6e7e:   2802        cmp r0, #2
    6e80:   d10f        bne.n 0x6ea2
    6e82:   f894 0032   ldrb.w r0, [r4, #50]    ; 0x32
    6e86:   2806        cmp r0, #6
    6e88:   d101        bne.n 0x6e8e
    6e8a:   f000 fb7f   bl 0x758c
    6e8e:   2002        movs r0, #2
    6e90:   bd10        pop {r4, pc}
    6e92:   2000        movs r0, #0
    6e94:   7148        strb r0, [r1, #5]
    6e96:   2003        movs r0, #3
    6e98:   bd10        pop {r4, pc}
    6e9a:   f894 0032   ldrb.w r0, [r4, #50]    ; 0x32
    6e9e:   2806        cmp r0, #6
    6ea0:   d001        beq.n 0x6ea6
    6ea2:   2000        movs r0, #0
    6ea4:   bd10        pop {r4, pc}
    6ea6:   2002        movs r0, #2
    6ea8:   7148        strb r0, [r1, #5]
    6eaa:   2001        movs r0, #1
    6eac:   bd10        pop {r4, pc}
    6eae:   0000        movs r0, r0
    6eb0:   06cc        lsls r4, r1, #27
    6eb2:   2000        movs r0, #0
    6eb4:   0044        lsls r4, r0, #1
    6eb6:   2000        movs r0, #0
    6eb8:   4902        ldr r1, [pc, #8]    ; (0x6ec4)
    6eba:   680a        ldr r2, [r1, #0]
    6ebc:   6002        str r2, [r0, #0]
    6ebe:   6849        ldr r1, [r1, #4]
    6ec0:   6041        str r1, [r0, #4]
    6ec2:   4770        bx lr
    6ec4:   a000        add r0, pc, #0    ; (adr r0, 0x6ec8)
    6ec6:   400a        ands r2, r1
    6ec8:   4802        ldr r0, [pc, #8]    ; (0x6ed4)
    6eca:   6801        ldr r1, [r0, #0]
    6ecc:   f041 0120   orr.w r1, r1, #32
    6ed0:   6001        str r1, [r0, #0]
    6ed2:   4770        bx lr
    6ed4:   8000        strh r0, [r0, #0]
    6ed6:   400a        ands r2, r1
    6ed8:   4903        ldr r1, [pc, #12]    ; (0x6ee8)
    6eda:   680a        ldr r2, [r1, #0]
    6edc:   f442 7280   orr.w r2, r2, #256    ; 0x100
    6ee0:   600a        str r2, [r1, #0]
    6ee2:   6108        str r0, [r1, #16]
    6ee4:   4770        bx lr
    6ee6:   0000        movs r0, r0
    6ee8:   8000        strh r0, [r0, #0]
    6eea:   400a        ands r2, r1
    6eec:   4801        ldr r0, [pc, #4]    ; (0x6ef4)
    6eee:   f7ff bd1f   b.w 0x6930
    6ef2:   0000        movs r0, r0
    6ef4:   06cc        lsls r4, r1, #27
    6ef6:   2000        movs r0, #0
    6ef8:   4907        ldr r1, [pc, #28]    ; (0x6f18)
    6efa:   2010        movs r0, #16
    6efc:   f8c1 010c   str.w r0, [r1, #268]    ; 0x10c
    6f00:   4806        ldr r0, [pc, #24]    ; (0x6f1c)
    6f02:   f645 71ff   movw r1, #24575    ; 0x5fff
    6f06:   6081        str r1, [r0, #8]
    6f08:   4905        ldr r1, [pc, #20]    ; (0x6f20)
    6f0a:   6041        str r1, [r0, #4]
    6f0c:   f64c 2135   movw r1, #51765    ; 0xca35
    6f10:   6101        str r1, [r0, #16]
    6f12:   4904        ldr r1, [pc, #16]    ; (0x6f24)
    6f14:   6001        str r1, [r0, #0]
    6f16:   4770        bx lr
    6f18:   8000        strh r0, [r0, #0]
    6f1a:   4008        ands r0, r1
    6f1c:   8000        strh r0, [r0, #0]
    6f1e:   4006        ands r6, r0
    6f20:   a7d0        add r7, pc, #832    ; (adr r7, 0x7264)
    6f22:   0001        movs r1, r0
    6f24:   0001        movs r1, r0
    6f26:   5fa0        ldrsh r0, [r4, r6]
    6f28:   4902        ldr r1, [pc, #8]    ; (0x6f34)
    6f2a:   4801        ldr r0, [pc, #4]    ; (0x6f30)
    6f2c:   6008        str r0, [r1, #0]
    6f2e:   4770        bx lr
    6f30:   0001        movs r1, r0
    6f32:   5fa0        ldrsh r0, [r4, r6]
    6f34:   8000        strh r0, [r0, #0]
    6f36:   4006        ands r6, r0
    6f38:   b510        push {r4, lr}
    6f3a:   f7fd f857   bl 0x3fec
    6f3e:   4904        ldr r1, [pc, #16]    ; (0x6f50)
    6f40:   2000        movs r0, #0
    6f42:   6048        str r0, [r1, #4]
    6f44:   4903        ldr r1, [pc, #12]    ; (0x6f54)
    6f46:   7188        strb r0, [r1, #6]
    6f48:   2001        movs r0, #1
    6f4a:   7008        strb r0, [r1, #0]
    6f4c:   bd10        pop {r4, pc}
    6f4e:   0000        movs r0, r0
    6f50:   0010        movs r0, r2
    6f52:   2000        movs r0, #0
    6f54:   0644        lsls r4, r0, #25
    6f56:   2000        movs r0, #0
    6f58:   b570        push {r4, r5, r6, lr}
    6f5a:   4606        mov r6, r0
    6f5c:   4615        mov r5, r2
    6f5e:   460c        mov r4, r1
    6f60:   4608        mov r0, r1
    6f62:   f7fd faa3   bl 0x44ac
    6f66:   462a        mov r2, r5
    6f68:   4621        mov r1, r4
    6f6a:   4630        mov r0, r6
    6f6c:   e8bd 4070   ldmia.w sp!, {r4, r5, r6, lr}
    6f70:   f7fd bac4   b.w 0x44fc
    6f74:   b530        push {r4, r5, lr}
    6f76:   4909        ldr r1, [pc, #36]    ; (0x6f9c)
    6f78:   200a        movs r0, #10
    6f7a:   4a07        ldr r2, [pc, #28]    ; (0x6f98)
    6f7c:   4b08        ldr r3, [pc, #32]    ; (0x6fa0)
    6f7e:   f891 1025   ldrb.w r1, [r1, #37]    ; 0x25
    6f82:   e004        b.n 0x6f8e
    6f84:   5c14        ldrb r4, [r2, r0]
    6f86:   434c        muls r4, r1
    6f88:   08e4        lsrs r4, r4, #3
    6f8a:   181d        adds r5, r3, r0
    6f8c:   712c        strb r4, [r5, #4]
    6f8e:   1e40        subs r0, r0, #1
    6f90:   b2c0        uxtb r0, r0
    6f92:   d2f7        bcs.n 0x6f84
    6f94:   bd30        pop {r4, r5, pc}
    6f96:   0000        movs r0, r0
    6f98:   7edd        ldrb r5, [r3, #27]
    6f9a:   0000        movs r0, r0
    6f9c:   0708        lsls r0, r1, #28
    6f9e:   2000        movs r0, #0
    6fa0:   00ac        lsls r4, r5, #2
    6fa2:   2000        movs r0, #0
    6fa4:   b5f0        push {r4, r5, r6, r7, lr}
    6fa6:   4e65        ldr r6, [pc, #404]    ; (0x713c)
    6fa8:   4c65        ldr r4, [pc, #404]    ; (0x7140)
    6faa:   b089        sub sp, #36    ; 0x24
    6fac:   78f0        ldrb r0, [r6, #3]
    6fae:   2805        cmp r0, #5
    6fb0:   d84d        bhi.n 0x704e
    6fb2:   2806        cmp r0, #6
    6fb4:   d219        bcs.n 0x6fea
    6fb6:   e8df f000   tbb [pc, r0]
    6fba:   0303        lsls r3, r0, #12
    6fbc:   561d        ldrsb r5, [r3, r0]
    6fbe:   4343        muls r3, r0
    6fc0:   2503        movs r5, #3
    6fc2:   4f60        ldr r7, [pc, #384]    ; (0x7144)
    6fc4:   e00e        b.n 0x6fe4
    6fc6:   78f0        ldrb r0, [r6, #3]
    6fc8:   b188        cbz r0, 0x6fee
    6fca:   1960        adds r0, r4, r5
    6fcc:   7900        ldrb r0, [r0, #4]
    6fce:   6821        ldr r1, [r4, #0]
    6fd0:   78c9        ldrb r1, [r1, #3]
    6fd2:   4348        muls r0, r1
    6fd4:   08c2        lsrs r2, r0, #3
    6fd6:   eb05 00c5   add.w r0, r5, r5, lsl #3
    6fda:   eb07 00c0   add.w r0, r7, r0, lsl #3
    6fde:   2148        movs r1, #72    ; 0x48
    6fe0:   f7fc fafc   bl 0x35dc
    6fe4:   1e6d        subs r5, r5, #1
    6fe6:   b2ed        uxtb r5, r5
    6fe8:   d2ed        bcs.n 0x6fc6
    6fea:   b009        add sp, #36    ; 0x24
    6fec:   bdf0        pop {r4, r5, r6, r7, pc}
    6fee:   6820        ldr r0, [r4, #0]
    6ff0:   5d40        ldrb r0, [r0, r5]
    6ff2:   e7ec        b.n 0x6fce
    6ff4:   7927        ldrb r7, [r4, #4]
    6ff6:   250c        movs r5, #12
    6ff8:   466e        mov r6, sp
    6ffa:   e00d        b.n 0x7018
    6ffc:   6820        ldr r0, [r4, #0]
    6ffe:   78c0        ldrb r0, [r0, #3]
    7000:   0141        lsls r1, r0, #5
    7002:   eba1 0040   sub.w r0, r1, r0, lsl #1
    7006:   b2c1        uxtb r1, r0
    7008:   eb05 0045   add.w r0, r5, r5, lsl #1
    700c:   1982        adds r2, r0, r6
    700e:   4638        mov r0, r7
    7010:   f7fd f836   bl 0x4080
    7014:   3720        adds r7, #32
    7016:   b2ff        uxtb r7, r7
    7018:   1e6d        subs r5, r5, #1
    701a:   b2ed        uxtb r5, r5
    701c:   d2ee        bcs.n 0x6ffc
    701e:   4d4a        ldr r5, [pc, #296]    ; (0x7148)
    7020:   2448        movs r4, #72    ; 0x48
    7022:   e009        b.n 0x7038
    7024:   7828        ldrb r0, [r5, #0]
    7026:   280c        cmp r0, #12
    7028:   d205        bcs.n 0x7036
    702a:   eb00 0040   add.w r0, r0, r0, lsl #1
    702e:   1981        adds r1, r0, r6
    7030:   4620        mov r0, r4
    7032:   f7fd f877   bl 0x4124
    7036:   1e6d        subs r5, r5, #1
    7038:   1e64        subs r4, r4, #1
    703a:   b2e4        uxtb r4, r4
    703c:   d2f2        bcs.n 0x7024
    703e:   e7d4        b.n 0x6fea
    7040:   b009        add sp, #36    ; 0x24
    7042:   1f00        subs r0, r0, #4
    7044:   e8bd 40f0   ldmia.w sp!, {r4, r5, r6, r7, lr}
    7048:   b2c0        uxtb r0, r0
    704a:   f7fc bd01   b.w 0x3a50
    704e:   2807        cmp r0, #7
    7050:   d9cb        bls.n 0x6fea
    7052:   f020 0001   bic.w r0, r0, #1
    7056:   2808        cmp r0, #8
    7058:   d005        beq.n 0x7066
    705a:   280a        cmp r0, #10
    705c:   d009        beq.n 0x7072
    705e:   280c        cmp r0, #12
    7060:   d1c3        bne.n 0x6fea
    7062:   2548        movs r5, #72    ; 0x48
    7064:   e065        b.n 0x7132
    7066:   b009        add sp, #36    ; 0x24
    7068:   1d20        adds r0, r4, #4
    706a:   e8bd 40f0   ldmia.w sp!, {r4, r5, r6, r7, lr}
    706e:   f7fd b845   b.w 0x40fc
    7072:   2000        movs r0, #0
    7074:   250c        movs r5, #12
    7076:   9001        str r0, [sp, #4]
    7078:   e02a        b.n 0x70d0
    707a:   eb05 0045   add.w r0, r5, r5, lsl #1
    707e:   eb04 0140   add.w r1, r4, r0, lsl #1
    7082:   f811 0f04   ldrb.w r0, [r1, #4]!
    7086:   b918        cbnz r0, 0x7090
    7088:   7848        ldrb r0, [r1, #1]
    708a:   b908        cbnz r0, 0x7090
    708c:   7888        ldrb r0, [r1, #2]
    708e:   b1a8        cbz r0, 0x70bc
    7090:   78c8        ldrb r0, [r1, #3]
    7092:   b918        cbnz r0, 0x709c
    7094:   7908        ldrb r0, [r1, #4]
    7096:   b908        cbnz r0, 0x709c
    7098:   7948        ldrb r0, [r1, #5]
    709a:   b168        cbz r0, 0x70b8
    709c:   2203        movs r2, #3
    709e:   466e        mov r6, sp
    70a0:   e006        b.n 0x70b0
    70a2:   188b        adds r3, r1, r2
    70a4:   5c88        ldrb r0, [r1, r2]
    70a6:   78db        ldrb r3, [r3, #3]
    70a8:   4298        cmp r0, r3
    70aa:   d800        bhi.n 0x70ae
    70ac:   4618        mov r0, r3
    70ae:   54b0        strb r0, [r6, r2]
    70b0:   1e52        subs r2, r2, #1
    70b2:   b2d2        uxtb r2, r2
    70b4:   d2f5        bcs.n 0x70a2
    70b6:   4631        mov r1, r6
    70b8:   4628        mov r0, r5
    70ba:   e007        b.n 0x70cc
    70bc:   78c8        ldrb r0, [r1, #3]
    70be:   b918        cbnz r0, 0x70c8
    70c0:   7908        ldrb r0, [r1, #4]
    70c2:   b908        cbnz r0, 0x70c8
    70c4:   7948        ldrb r0, [r1, #5]
    70c6:   b138        cbz r0, 0x70d8
    70c8:   4628        mov r0, r5
    70ca:   1cc9        adds r1, r1, #3
    70cc:   f000 f83e   bl 0x714c
    70d0:   1e6d        subs r5, r5, #1
    70d2:   b2ed        uxtb r5, r5
    70d4:   d2d1        bcs.n 0x707a
    70d6:   e788        b.n 0x6fea
    70d8:   a901        add r1, sp, #4
    70da:   e7ed        b.n 0x70b8
    70dc:   481a        ldr r0, [pc, #104]    ; (0x7148)
    70de:   1c40        adds r0, r0, #1
    70e0:   5d41        ldrb r1, [r0, r5]
    70e2:   f001 0007   and.w r0, r1, #7
    70e6:   eb00 0080   add.w r0, r0, r0, lsl #2
    70ea:   4420        add r0, r4
    70ec:   f990 2012   ldrsb.w r2, [r0, #18]
    70f0:   300e        adds r0, #14
    70f2:   b1d2        cbz r2, 0x712a
    70f4:   78c3        ldrb r3, [r0, #3]
    70f6:   ebd3 01d1   rsbs r1, r3, r1, lsr #3
    70fa:   d500        bpl.n 0x70fe
    70fc:   4249        negs r1, r1
    70fe:   1a89        subs r1, r1, r2
    7100:   310a        adds r1, #10
    7102:   b2ca        uxtb r2, r1
    7104:   2a0a        cmp r2, #10
    7106:   d210        bcs.n 0x712a
    7108:   2103        movs r1, #3
    710a:   466b        mov r3, sp
    710c:   18a6        adds r6, r4, r2
    710e:   e004        b.n 0x711a
    7110:   5c42        ldrb r2, [r0, r1]
    7112:   7937        ldrb r7, [r6, #4]
    7114:   437a        muls r2, r7
    7116:   0a12        lsrs r2, r2, #8
    7118:   545a        strb r2, [r3, r1]
    711a:   1e49        subs r1, r1, #1
    711c:   b2c9        uxtb r1, r1
    711e:   d2f7        bcs.n 0x7110
    7120:   4619        mov r1, r3
    7122:   4628        mov r0, r5
    7124:   f7fc fffe   bl 0x4124
    7128:   e003        b.n 0x7132
    712a:   2100        movs r1, #0
    712c:   4628        mov r0, r5
    712e:   f7fd f81b   bl 0x4168
    7132:   1e6d        subs r5, r5, #1
    7134:   b2ed        uxtb r5, r5
    7136:   d2d1        bcs.n 0x70dc
    7138:   e757        b.n 0x6fea
    713a:   0000        movs r0, r0
    713c:   0708        lsls r0, r1, #28
    713e:   2000        movs r0, #0
    7140:   00ac        lsls r4, r5, #2
    7142:   2000        movs r0, #0
    7144:   032c        lsls r4, r5, #12
    7146:   2000        movs r0, #0
    7148:   7e94        ldrb r4, [r2, #26]
    714a:   0000        movs r0, r0
    714c:   e92d 41f0   stmdb sp!, {r4, r5, r6, r7, r8, lr}
    7150:   460f        mov r7, r1
    7152:   4606        mov r6, r0
    7154:   2448        movs r4, #72    ; 0x48
    7156:   4d07        ldr r5, [pc, #28]    ; (0x7174)
    7158:   e007        b.n 0x716a
    715a:   7828        ldrb r0, [r5, #0]
    715c:   42b0        cmp r0, r6
    715e:   d103        bne.n 0x7168
    7160:   4639        mov r1, r7
    7162:   4620        mov r0, r4
    7164:   f7fc ffde   bl 0x4124
    7168:   1e6d        subs r5, r5, #1
    716a:   1e64        subs r4, r4, #1
    716c:   b2e4        uxtb r4, r4
    716e:   d2f4        bcs.n 0x715a
    7170:   e8bd 81f0   ldmia.w sp!, {r4, r5, r6, r7, r8, pc}
    7174:   7e94        ldrb r4, [r2, #26]
    7176:   0000        movs r0, r0
    7178:   b538        push {r3, r4, r5, lr}
    717a:   4604        mov r4, r0
    717c:   4809        ldr r0, [pc, #36]    ; (0x71a4)
    717e:   6800        ldr r0, [r0, #0]
    7180:   78c5        ldrb r5, [r0, #3]
    7182:   b919        cbnz r1, 0x718c
    7184:   4668        mov r0, sp
    7186:   f7fc ff6a   bl 0x405e
    718a:   4669        mov r1, sp
    718c:   2203        movs r2, #3
    718e:   e005        b.n 0x719c
    7190:   f811 0b01   ldrb.w r0, [r1], #1
    7194:   4368        muls r0, r5
    7196:   08c0        lsrs r0, r0, #3
    7198:   f804 0b01   strb.w r0, [r4], #1
    719c:   1e52        subs r2, r2, #1
    719e:   b2d2        uxtb r2, r2
    71a0:   d2f6        bcs.n 0x7190
    71a2:   bd38        pop {r3, r4, r5, pc}
    71a4:   00ac        lsls r4, r5, #2
    71a6:   2000        movs r0, #0
    71a8:   f44f 4100   mov.w r1, #32768    ; 0x8000
    71ac:   4288        cmp r0, r1
    71ae:   d301        bcc.n 0x71b4
    71b0:   ea01 2090   and.w r0, r1, r0, lsr #10
    71b4:   b280        uxth r0, r0
    71b6:   4770        bx lr
    71b8:   4a05        ldr r2, [pc, #20]    ; (0x71d0)
    71ba:   b500        push {lr}
    71bc:   6810        ldr r0, [r2, #0]
    71be:   b120        cbz r0, 0x71ca
    71c0:   f7ff fff2   bl 0x71a8
    71c4:   211e        movs r1, #30
    71c6:   6011        str r1, [r2, #0]
    71c8:   bd00        pop {pc}
    71ca:   201e        movs r0, #30
    71cc:   bd00        pop {pc}
    71ce:   0000        movs r0, r0
    71d0:   196c        adds r4, r5, r5
    71d2:   2000        movs r0, #0
    71d4:   0401        lsls r1, r0, #16
    71d6:   d500        bpl.n 0x71da
    71d8:   0280        lsls r0, r0, #10
    71da:   4770        bx lr
    71dc:   480f        ldr r0, [pc, #60]    ; (0x721c)
    71de:   b510        push {r4, lr}
    71e0:   7800        ldrb r0, [r0, #0]
    71e2:   f000 0003   and.w r0, r0, #3
    71e6:   eb00 0040   add.w r0, r0, r0, lsl #1
    71ea:   00c4        lsls r4, r0, #3
    71ec:   480c        ldr r0, [pc, #48]    ; (0x7220)
    71ee:   6800        ldr r0, [r0, #0]
    71f0:   f7fd fc55   bl 0x4a9e
    71f4:   4603        mov r3, r0
    71f6:   2018        movs r0, #24
    71f8:   490a        ldr r1, [pc, #40]    ; (0x7224)
    71fa:   e00a        b.n 0x7212
    71fc:   eb01 0244   add.w r2, r1, r4, lsl #1
    7200:   8d12        ldrh r2, [r2, #40]    ; 0x28
    7202:   f3c2 0209   ubfx r2, r2, #0, #10
    7206:   429a        cmp r2, r3
    7208:   d101        bne.n 0x720e
    720a:   4620        mov r0, r4
    720c:   bd10        pop {r4, pc}
    720e:   1c64        adds r4, r4, #1
    7210:   b2e4        uxtb r4, r4
    7212:   1e40        subs r0, r0, #1
    7214:   b2c0        uxtb r0, r0
    7216:   d2f1        bcs.n 0x71fc
    7218:   2060        movs r0, #96    ; 0x60
    721a:   bd10        pop {r4, pc}
    721c:   000d        movs r5, r1
    721e:   2000        movs r0, #0
    7220:   0038        movs r0, r7
    7222:   2000        movs r0, #0
    7224:   0708        lsls r0, r1, #28
    7226:   2000        movs r0, #0
    7228:   4803        ldr r0, [pc, #12]    ; (0x7238)
    722a:   2100        movs r1, #0
    722c:   f840 1f07   str.w r1, [r0, #7]!
    7230:   8081        strh r1, [r0, #4]
    7232:   7181        strb r1, [r0, #6]
    7234:   4770        bx lr
    7236:   0000        movs r0, r0
    7238:   01d0        lsls r0, r2, #7
    723a:   2000        movs r0, #0
    723c:   b570        push {r4, r5, r6, lr}
    723e:   4c1a        ldr r4, [pc, #104]    ; (0x72a8)
    7240:   491a        ldr r1, [pc, #104]    ; (0x72ac)
    7242:   2060        movs r0, #96    ; 0x60
    7244:   70a0        strb r0, [r4, #2]
    7246:   7848        ldrb r0, [r1, #1]
    7248:   07c0        lsls r0, r0, #31
    724a:   d006        beq.n 0x725a
    724c:   7888        ldrb r0, [r1, #2]
    724e:   2100        movs r1, #0
    7250:   f7fd fa9e   bl 0x4790
    7254:   2800        cmp r0, #0
    7256:   d026        beq.n 0x72a6
    7258:   e009        b.n 0x726e
    725a:   2002        movs r0, #2
    725c:   4a14        ldr r2, [pc, #80]    ; (0x72b0)
    725e:   7809        ldrb r1, [r1, #0]
    7260:   e002        b.n 0x7268
    7262:   5c13        ldrb r3, [r2, r0]
    7264:   4299        cmp r1, r3
    7266:   d01e        beq.n 0x72a6
    7268:   1e40        subs r0, r0, #1
    726a:   b2c0        uxtb r0, r0
    726c:   d2f9        bcs.n 0x7262
    726e:   f7fe fdb9   bl 0x5de4
    7272:   2800        cmp r0, #0
    7274:   d117        bne.n 0x72a6
    7276:   480f        ldr r0, [pc, #60]    ; (0x72b4)
    7278:   4a0f        ldr r2, [pc, #60]    ; (0x72b8)
    727a:   4b10        ldr r3, [pc, #64]    ; (0x72bc)
    727c:   7800        ldrb r0, [r0, #0]
    727e:   f000 0003   and.w r0, r0, #3
    7282:   eb00 0040   add.w r0, r0, r0, lsl #1
    7286:   00c0        lsls r0, r0, #3
    7288:   70a0        strb r0, [r4, #2]
    728a:   2018        movs r0, #24
    728c:   e008        b.n 0x72a0
    728e:   78a1        ldrb r1, [r4, #2]
    7290:   eb02 0541   add.w r5, r2, r1, lsl #1
    7294:   8d2d        ldrh r5, [r5, #40]    ; 0x28
    7296:   ebb3 5f85   cmp.w r3, r5, lsl #22
    729a:   d004        beq.n 0x72a6
    729c:   1c49        adds r1, r1, #1
    729e:   70a1        strb r1, [r4, #2]
    72a0:   1e40        subs r0, r0, #1
    72a2:   b2c0        uxtb r0, r0
    72a4:   d2f3        bcs.n 0x728e
    72a6:   bd70        pop {r4, r5, r6, pc}
    72a8:   1968        adds r0, r5, r5
    72aa:   2000        movs r0, #0
    72ac:   0038        movs r0, r7
    72ae:   2000        movs r0, #0
    72b0:   7e07        ldrb r7, [r0, #24]
    72b2:   0000        movs r0, r0
    72b4:   000d        movs r5, r1
    72b6:   2000        movs r0, #0
    72b8:   0708        lsls r0, r1, #28
    72ba:   2000        movs r0, #0
    72bc:   0000        movs r0, r0
    72be:   ffc0 b538   vbic.i32 d27, #8912896    ; 0x00880000
    72c2:   4928        ldr r1, [pc, #160]    ; (0x7364)
    72c4:   4a28        ldr r2, [pc, #160]    ; (0x7368)
    72c6:   8808        ldrh r0, [r1, #0]
    72c8:   6812        ldr r2, [r2, #0]
    72ca:   eb02 0480   add.w r4, r2, r0, lsl #2
    72ce:   1c40        adds r0, r0, #1
    72d0:   8008        strh r0, [r1, #0]
    72d2:   7860        ldrb r0, [r4, #1]
    72d4:   2104        movs r1, #4
    72d6:   ebb1 1f50   cmp.w r1, r0, lsr #5
    72da:   d03c        beq.n 0x7356
    72dc:   2000        movs r0, #0
    72de:   9000        str r0, [sp, #0]
    72e0:   8820        ldrh r0, [r4, #0]
    72e2:   4669        mov r1, sp
    72e4:   f7fd fbd6   bl 0x4a94
    72e8:   7860        ldrb r0, [r4, #1]
    72ea:   0940        lsrs r0, r0, #5
    72ec:   2801        cmp r0, #1
    72ee:   d002        beq.n 0x72f6
    72f0:   2802        cmp r0, #2
    72f2:   d10b        bne.n 0x730c
    72f4:   e004        b.n 0x7300
    72f6:   f89d 0003   ldrb.w r0, [sp, #3]
    72fa:   f040 0002   orr.w r0, r0, #2
    72fe:   e003        b.n 0x7308
    7300:   f89d 0003   ldrb.w r0, [sp, #3]
    7304:   f020 0002   bic.w r0, r0, #2
    7308:   f88d 0003   strb.w r0, [sp, #3]
    730c:   f89d 0001   ldrb.w r0, [sp, #1]
    7310:   07c0        lsls r0, r0, #31
    7312:   f89d 0000   ldrb.w r0, [sp]
    7316:   d002        beq.n 0x731e
    7318:   f7fd fa2a   bl 0x4770
    731c:   e001        b.n 0x7322
    731e:   4913        ldr r1, [pc, #76]    ; (0x736c)
    7320:   5c08        ldrb r0, [r1, r0]
    7322:   f88d 0002   strb.w r0, [sp, #2]
    7326:   f89d 0003   ldrb.w r0, [sp, #3]
    732a:   f040 0005   orr.w r0, r0, #5
    732e:   f88d 0003   strb.w r0, [sp, #3]
    7332:   f89d 1001   ldrb.w r1, [sp, #1]
    7336:   f89d 2002   ldrb.w r2, [sp, #2]
    733a:   f001 0101   and.w r1, r1, #1
    733e:   ebc1 01c1   rsb r1, r1, r1, lsl #3
    7342:   4411        add r1, r2
    7344:   f3c0 0240   ubfx r2, r0, #1, #1
    7348:   b2c9        uxtb r1, r1
    734a:   4809        ldr r0, [pc, #36]    ; (0x7370)
    734c:   f7fc fe78   bl 0x4040
    7350:   9800        ldr r0, [sp, #0]
    7352:   f7fd fa5f   bl 0x4814
    7356:   8860        ldrh r0, [r4, #2]
    7358:   f7ff ff3c   bl 0x71d4
    735c:   4905        ldr r1, [pc, #20]    ; (0x7374)
    735e:   6008        str r0, [r1, #0]
    7360:   bd38        pop {r3, r4, r5, pc}
    7362:   0000        movs r0, r0
    7364:   1968        adds r0, r5, r5
    7366:   2000        movs r0, #0
    7368:   0068        lsls r0, r5, #1
    736a:   2000        movs r0, #0
    736c:   01de        lsls r6, r3, #7
    736e:   2000        movs r0, #0
    7370:   01d7        lsls r7, r2, #7
    7372:   2000        movs r0, #0
    7374:   0070        lsls r0, r6, #1
    7376:   2000        movs r0, #0
    7378:   b570        push {r4, r5, r6, lr}
    737a:   4d18        ldr r5, [pc, #96]    ; (0x73dc)
    737c:   8828        ldrh r0, [r5, #0]
    737e:   28ff        cmp r0, #255    ; 0xff
    7380:   d903        bls.n 0x738a
    7382:   2001        movs r0, #1
    7384:   1d29        adds r1, r5, #4
    7386:   71c8        strb r0, [r1, #7]
    7388:   e006        b.n 0x7398
    738a:   4e15        ldr r6, [pc, #84]    ; (0x73e0)
    738c:   7871        ldrb r1, [r6, #1]
    738e:   07c9        lsls r1, r1, #31
    7390:   d004        beq.n 0x739c
    7392:   7831        ldrb r1, [r6, #0]
    7394:   29c0        cmp r1, #192    ; 0xc0
    7396:   d201        bcs.n 0x739c
    7398:   2001        movs r0, #1
    739a:   bd70        pop {r4, r5, r6, pc}
    739c:   4911        ldr r1, [pc, #68]    ; (0x73e4)
    739e:   6809        ldr r1, [r1, #0]
    73a0:   eb01 0480   add.w r4, r1, r0, lsl #2
    73a4:   1c40        adds r0, r0, #1
    73a6:   8028        strh r0, [r5, #0]
    73a8:   6830        ldr r0, [r6, #0]
    73aa:   f7fd fb78   bl 0x4a9e
    73ae:   8020        strh r0, [r4, #0]
    73b0:   78f1        ldrb r1, [r6, #3]
    73b2:   0789        lsls r1, r1, #30
    73b4:   d502        bpl.n 0x73bc
    73b6:   f500 5070   add.w r0, r0, #15360    ; 0x3c00
    73ba:   e001        b.n 0x73c0
    73bc:   f500 40b8   add.w r0, r0, #23552    ; 0x5c00
    73c0:   8020        strh r0, [r4, #0]
    73c2:   8828        ldrh r0, [r5, #0]
    73c4:   2801        cmp r0, #1
    73c6:   d903        bls.n 0x73d0
    73c8:   f7ff fef6   bl 0x71b8
    73cc:   f824 0c02   strh.w r0, [r4, #-2]
    73d0:   4905        ldr r1, [pc, #20]    ; (0x73e8)
    73d2:   f04f 30ff   mov.w r0, #4294967295    ; 0xffffffff
    73d6:   6008        str r0, [r1, #0]
    73d8:   2000        movs r0, #0
    73da:   bd70        pop {r4, r5, r6, pc}
    73dc:   1968        adds r0, r5, r5
    73de:   2000        movs r0, #0
    73e0:   0038        movs r0, r7
    73e2:   2000        movs r0, #0
    73e4:   0068        lsls r0, r5, #1
    73e6:   2000        movs r0, #0
    73e8:   0070        lsls r0, r6, #1
    73ea:   2000        movs r0, #0
    73ec:   b510        push {r4, lr}
    73ee:   4c06        ldr r4, [pc, #24]    ; (0x7408)
    73f0:   2100        movs r1, #0
    73f2:   78a0        ldrb r0, [r4, #2]
    73f4:   f7fc fd0c   bl 0x3e10
    73f8:   2000        movs r0, #0
    73fa:   1d21        adds r1, r4, #4
    73fc:   8020        strh r0, [r4, #0]
    73fe:   6008        str r0, [r1, #0]
    7400:   2004        movs r0, #4
    7402:   71c8        strb r0, [r1, #7]
    7404:   bd10        pop {r4, pc}
    7406:   0000        movs r0, r0
    7408:   1968        adds r0, r5, r5
    740a:   2000        movs r0, #0
    740c:   e92d 41f0   stmdb sp!, {r4, r5, r6, r7, r8, lr}
    7410:   4c28        ldr r4, [pc, #160]    ; (0x74b4)
    7412:   4d29        ldr r5, [pc, #164]    ; (0x74b8)
    7414:   f8df 80a4   ldr.w r8, [pc, #164]    ; 0x74bc
    7418:   4f29        ldr r7, [pc, #164]    ; (0x74c0)
    741a:   2607        movs r6, #7
    741c:   e9d5 0100   ldrd r0, r1, [r5]
    7420:   6281        str r1, [r0, #40]    ; 0x28
    7422:   1e76        subs r6, r6, #1
    7424:   b2f6        uxtb r6, r6
    7426:   1ee4        subs r4, r4, #3
    7428:   bf00        nop
    742a:   bf00        nop
    742c:   20ff        movs r0, #255    ; 0xff
    742e:   69f9        ldr r1, [r7, #28]
    7430:   0589        lsls r1, r1, #22
    7432:   d400        bmi.n 0x7436
    7434:   20fe        movs r0, #254    ; 0xfe
    7436:   f8d8 201c   ldr.w r2, [r8, #28]
    743a:   4641        mov r1, r8
    743c:   0692        lsls r2, r2, #26
    743e:   d401        bmi.n 0x7444
    7440:   f020 0002   bic.w r0, r0, #2
    7444:   69ca        ldr r2, [r1, #28]
    7446:   0652        lsls r2, r2, #25
    7448:   d401        bmi.n 0x744e
    744a:   f020 0004   bic.w r0, r0, #4
    744e:   69c9        ldr r1, [r1, #28]
    7450:   0609        lsls r1, r1, #24
    7452:   d401        bmi.n 0x7458
    7454:   f020 0008   bic.w r0, r0, #8
    7458:   69f9        ldr r1, [r7, #28]
    745a:   0509        lsls r1, r1, #20
    745c:   d401        bmi.n 0x7462
    745e:   f020 0010   bic.w r0, r0, #16
    7462:   69f9        ldr r1, [r7, #28]
    7464:   0489        lsls r1, r1, #18
    7466:   d401        bmi.n 0x746c
    7468:   f020 0020   bic.w r0, r0, #32
    746c:   69f9        ldr r1, [r7, #28]
    746e:   0449        lsls r1, r1, #17
    7470:   d401        bmi.n 0x7476
    7472:   f020 0040   bic.w r0, r0, #64    ; 0x40
    7476:   69f9        ldr r1, [r7, #28]
    7478:   0409        lsls r1, r1, #16
    747a:   d401        bmi.n 0x7480
    747c:   f020 0080   bic.w r0, r0, #128    ; 0x80
    7480:   e9d5 1200   ldrd r1, r2, [r5]
    7484:   624a        str r2, [r1, #36]    ; 0x24
    7486:   7861        ldrb r1, [r4, #1]
    7488:   4281        cmp r1, r0
    748a:   d002        beq.n 0x7492
    748c:   7060        strb r0, [r4, #1]
    748e:   2003        movs r0, #3
    7490:   e005        b.n 0x749e
    7492:   7820        ldrb r0, [r4, #0]
    7494:   b120        cbz r0, 0x74a0
    7496:   2801        cmp r0, #1
    7498:   d100        bne.n 0x749c
    749a:   70a1        strb r1, [r4, #2]
    749c:   1e40        subs r0, r0, #1
    749e:   7020        strb r0, [r4, #0]
    74a0:   2e00        cmp r6, #0
    74a2:   d004        beq.n 0x74ae
    74a4:   2005        movs r0, #5
    74a6:   f7fc f9cb   bl 0x3840
    74aa:   3d08        subs r5, #8
    74ac:   e7b6        b.n 0x741c
    74ae:   e8bd 81f0   ldmia.w sp!, {r4, r5, r6, r7, r8, pc}
    74b2:   0000        movs r0, r0
    74b4:   032b        lsls r3, r5, #12
    74b6:   2000        movs r0, #0
    74b8:   7fa0        ldrb r0, [r4, #30]
    74ba:   0000        movs r0, r0
    74bc:   0000        movs r0, r0
    74be:   400b        ands r3, r1
    74c0:   4000        ands r0, r0
    74c2:   400b        ands r3, r1
    74c4:   b5fe        push {r1, r2, r3, r4, r5, r6, r7, lr}
    74c6:   4811        ldr r0, [pc, #68]    ; (0x750c)
    74c8:   6800        ldr r0, [r0, #0]
    74ca:   4911        ldr r1, [pc, #68]    ; (0x7510)
    74cc:   4e11        ldr r6, [pc, #68]    ; (0x7514)
    74ce:   fbb0 f4f1   udiv r4, r0, r1
    74d2:   1e64        subs r4, r4, #1
    74d4:   f8ad 4000   strh.w r4, [sp]
    74d8:   2500        movs r5, #0
    74da:   f8ad 5002   strh.w r5, [sp, #2]
    74de:   4669        mov r1, sp
    74e0:   4630        mov r0, r6
    74e2:   f7fd f8da   bl 0x469a
    74e6:   f88d 5000   strb.w r5, [sp]
    74ea:   2007        movs r0, #7
    74ec:   f8ad 0002   strh.w r0, [sp, #2]
    74f0:   2001        movs r0, #1
    74f2:   f88d 0004   strb.w r0, [sp, #4]
    74f6:   f88d 5005   strb.w r5, [sp, #5]
    74fa:   0860        lsrs r0, r4, #1
    74fc:   f8ad 0006   strh.w r0, [sp, #6]
    7500:   4669        mov r1, sp
    7502:   4630        mov r0, r6
    7504:   f7fd f89d   bl 0x4642
    7508:   bdfe        pop {r1, r2, r3, r4, r5, r6, r7, pc}
    750a:   0000        movs r0, r0
    750c:   001c        movs r4, r3
    750e:   2000        movs r0, #0
    7510:   ba00        rev r0, r0
    7512:   00db        lsls r3, r3, #3
    7514:   f000 4006   and.w r0, r0, #2248146944    ; 0x86000000
    7518:   b510        push {r4, lr}
    751a:   490a        ldr r1, [pc, #40]    ; (0x7544)
    751c:   f44f 4400   mov.w r4, #32768    ; 0x8000
    7520:   628c        str r4, [r1, #40]    ; 0x28
    7522:   bf00        nop
    7524:   bf00        nop
    7526:   624c        str r4, [r1, #36]    ; 0x24
    7528:   f44f 4280   mov.w r2, #16384    ; 0x4000
    752c:   e004        b.n 0x7538
    752e:   628a        str r2, [r1, #40]    ; 0x28
    7530:   bf00        nop
    7532:   bf00        nop
    7534:   624a        str r2, [r1, #36]    ; 0x24
    7536:   bf00        nop
    7538:   1e40        subs r0, r0, #1
    753a:   b2c0        uxtb r0, r0
    753c:   d2f7        bcs.n 0x752e
    753e:   628c        str r4, [r1, #40]    ; 0x28
    7540:   bd10        pop {r4, pc}
    7542:   0000        movs r0, r0
    7544:   0000        movs r0, r0
    7546:   400b        ands r3, r1
    7548:   b570        push {r4, r5, r6, lr}
    754a:   f44f 7480   mov.w r4, #256    ; 0x100
    754e:   01a3        lsls r3, r4, #6
    7550:   4a08        ldr r2, [pc, #32]    ; (0x7574)
    7552:   f64f 75ff   movw r5, #65535    ; 0xffff
    7556:   e009        b.n 0x756c
    7558:   bf00        nop
    755a:   6293        str r3, [r2, #40]    ; 0x28
    755c:   0406        lsls r6, r0, #16
    755e:   d501        bpl.n 0x7564
    7560:   6254        str r4, [r2, #36]    ; 0x24
    7562:   e000        b.n 0x7566
    7564:   6294        str r4, [r2, #40]    ; 0x28
    7566:   6253        str r3, [r2, #36]    ; 0x24
    7568:   ea05 0040   and.w r0, r5, r0, lsl #1
    756c:   1e49        subs r1, r1, #1
    756e:   b2c9        uxtb r1, r1
    7570:   d2f2        bcs.n 0x7558
    7572:   bd70        pop {r4, r5, r6, pc}
    7574:   0000        movs r0, r0
    7576:   400b        ands r3, r1
    7578:   2101        movs r1, #1
    757a:   4081        lsls r1, r0
    757c:   4802        ldr r0, [pc, #8]    ; (0x7588)
    757e:   7982        ldrb r2, [r0, #6]
    7580:   4311        orrs r1, r2
    7582:   7181        strb r1, [r0, #6]
    7584:   4770        bx lr
    7586:   0000        movs r0, r0
    7588:   0044        lsls r4, r0, #1
    758a:   2000        movs r0, #0
    758c:   e92d 41f0   stmdb sp!, {r4, r5, r6, r7, r8, lr}
    7590:   4837        ldr r0, [pc, #220]    ; (0x7670)
    7592:   7801        ldrb r1, [r0, #0]
    7594:   2400        movs r4, #0
    7596:   f1a0 050a   sub.w r5, r0, #10
    759a:   2901        cmp r1, #1
    759c:   d105        bne.n 0x75aa
    759e:   7004        strb r4, [r0, #0]
    75a0:   7c28        ldrb r0, [r5, #16]
    75a2:   f000 0007   and.w r0, r0, #7
    75a6:   f7fe fc79   bl 0x5e9c
    75aa:   4e32        ldr r6, [pc, #200]    ; (0x7674)
    75ac:   4f32        ldr r7, [pc, #200]    ; (0x7678)
    75ae:   7830        ldrb r0, [r6, #0]
    75b0:   b128        cbz r0, 0x75be
    75b2:   2802        cmp r0, #2
    75b4:   d018        beq.n 0x75e8
    75b6:   2804        cmp r0, #4
    75b8:   d001        beq.n 0x75be
    75ba:   2805        cmp r0, #5
    75bc:   d11d        bne.n 0x75fa
    75be:   79a8        ldrb r0, [r5, #6]
    75c0:   06c0        lsls r0, r0, #27
    75c2:   d51a        bpl.n 0x75fa
    75c4:   2001        movs r0, #1
    75c6:   7030        strb r0, [r6, #0]
    75c8:   2240        movs r2, #64    ; 0x40
    75ca:   492c        ldr r1, [pc, #176]    ; (0x767c)
    75cc:   2004        movs r0, #4
    75ce:   f7ff fb65   bl 0x6c9c
    75d2:   4a2a        ldr r2, [pc, #168]    ; (0x767c)
    75d4:   f1c0 0140   rsb r1, r0, #64    ; 0x40
    75d8:   4410        add r0, r2
    75da:   f7fc f806   bl 0x35ea
    75de:   79a8        ldrb r0, [r5, #6]
    75e0:   f020 0010   bic.w r0, r0, #16
    75e4:   71a8        strb r0, [r5, #6]
    75e6:   e008        b.n 0x75fa
    75e8:   6d38        ldr r0, [r7, #80]    ; 0x50
    75ea:   0780        lsls r0, r0, #30
    75ec:   d505        bpl.n 0x75fa
    75ee:   2240        movs r2, #64    ; 0x40
    75f0:   4922        ldr r1, [pc, #136]    ; (0x767c)
    75f2:   2003        movs r0, #3
    75f4:   f7ff fb82   bl 0x6cfc
    75f8:   7034        strb r4, [r6, #0]
    75fa:   6ab8        ldr r0, [r7, #40]    ; 0x28
    75fc:   0780        lsls r0, r0, #30
    75fe:   d517        bpl.n 0x7630
    7600:   7828        ldrb r0, [r5, #0]
    7602:   b108        cbz r0, 0x7608
    7604:   702c        strb r4, [r5, #0]
    7606:   e00d        b.n 0x7624
    7608:   491d        ldr r1, [pc, #116]    ; (0x7680)
    760a:   6808        ldr r0, [r1, #0]
    760c:   b980        cbnz r0, 0x7630
    760e:   f101 000c   add.w r0, r1, #12
    7612:   6800        ldr r0, [r0, #0]
    7614:   b160        cbz r0, 0x7630
    7616:   f44f 627a   mov.w r2, #4000    ; 0xfa0
    761a:   4350        muls r0, r2
    761c:   10d2        asrs r2, r2, #3
    761e:   fbb0 f0f2   udiv r0, r0, r2
    7622:   6008        str r0, [r1, #0]
    7624:   4912        ldr r1, [pc, #72]    ; (0x7670)
    7626:   2208        movs r2, #8
    7628:   3112        adds r1, #18
    762a:   2001        movs r0, #1
    762c:   f7ff fb66   bl 0x6cfc
    7630:   6bf8        ldr r0, [r7, #60]    ; 0x3c
    7632:   0780        lsls r0, r0, #30
    7634:   d519        bpl.n 0x766a
    7636:   78a8        ldrb r0, [r5, #2]
    7638:   b120        cbz r0, 0x7644
    763a:   490d        ldr r1, [pc, #52]    ; (0x7670)
    763c:   2205        movs r2, #5
    763e:   70ac        strb r4, [r5, #2]
    7640:   310a        adds r1, #10
    7642:   e00d        b.n 0x7660
    7644:   7868        ldrb r0, [r5, #1]
    7646:   b120        cbz r0, 0x7652
    7648:   4909        ldr r1, [pc, #36]    ; (0x7670)
    764a:   2202        movs r2, #2
    764c:   706c        strb r4, [r5, #1]
    764e:   1e89        subs r1, r1, #2
    7650:   e006        b.n 0x7660
    7652:   78e8        ldrb r0, [r5, #3]
    7654:   2800        cmp r0, #0
    7656:   d008        beq.n 0x766a
    7658:   4909        ldr r1, [pc, #36]    ; (0x7680)
    765a:   221f        movs r2, #31
    765c:   70ec        strb r4, [r5, #3]
    765e:   3118        adds r1, #24
    7660:   e8bd 41f0   ldmia.w sp!, {r4, r5, r6, r7, r8, lr}
    7664:   2002        movs r0, #2
    7666:   f7ff bb49   b.w 0x6cfc
    766a:   e8bd 81f0   ldmia.w sp!, {r4, r5, r6, r7, r8, pc}
    766e:   0000        movs r0, r0
    7670:   004e        lsls r6, r1, #1
    7672:   2000        movs r0, #0
    7674:   002e        movs r6, r5
    7676:   2000        movs r0, #0
    7678:   8000        strh r0, [r0, #0]
    767a:   400a        ands r2, r1
    767c:   0604        lsls r4, r0, #24
    767e:   2000        movs r0, #0
    7680:   0694        lsls r4, r2, #26
    7682:   2000        movs r0, #0
    7684:   b5f0        push {r4, r5, r6, r7, lr}
    7686:   8801        ldrh r1, [r0, #0]
    7688:   f44f 7680   mov.w r6, #256    ; 0x100
    768c:   f640 1521   movw r5, #2337    ; 0x921
    7690:   0077        lsls r7, r6, #1
    7692:   2301        movs r3, #1
    7694:   4c35        ldr r4, [pc, #212]    ; (0x776c)
    7696:   f6a1 1221   subw r2, r1, #2337    ; 0x921
    769a:   42a9        cmp r1, r5
    769c:   d03c        beq.n 0x7718
    769e:   dc0d        bgt.n 0x76bc
    76a0:   f512 61f0   adds.w r1, r2, #1920    ; 0x780
    76a4:   d013        beq.n 0x76ce
    76a6:   42b1        cmp r1, r6
    76a8:   d030        beq.n 0x770c
    76aa:   42b9        cmp r1, r7
    76ac:   d145        bne.n 0x773a
    76ae:   8881        ldrh r1, [r0, #4]
    76b0:   2900        cmp r1, #0
    76b2:   d142        bne.n 0x773a
    76b4:   492e        ldr r1, [pc, #184]    ; (0x7770)
    76b6:   e9c0 1307   strd r1, r3, [r0, #28]
    76ba:   e053        b.n 0x7764
    76bc:   2500        movs r5, #0
    76be:   42b2        cmp r2, r6
    76c0:   d03d        beq.n 0x773e
    76c2:   42ba        cmp r2, r7
    76c4:   d139        bne.n 0x773a
    76c6:   8882        ldrh r2, [r0, #4]
    76c8:   7881        ldrb r1, [r0, #2]
    76ca:   b3ba        cbz r2, 0x773c
    76cc:   e049        b.n 0x7762
    76ce:   78c5        ldrb r5, [r0, #3]
    76d0:   7882        ldrb r2, [r0, #2]
    76d2:   88c4        ldrh r4, [r0, #6]
    76d4:   8881        ldrh r1, [r0, #4]
    76d6:   2d01        cmp r5, #1
    76d8:   d12f        bne.n 0x773a
    76da:   b161        cbz r1, 0x76f6
    76dc:   2901        cmp r1, #1
    76de:   d02c        beq.n 0x773a
    76e0:   2902        cmp r1, #2
    76e2:   d12a        bne.n 0x773a
    76e4:   2a01        cmp r2, #1
    76e6:   d009        beq.n 0x76fc
    76e8:   2a02        cmp r2, #2
    76ea:   d00c        beq.n 0x7706
    76ec:   2a04        cmp r2, #4
    76ee:   d124        bne.n 0x773a
    76f0:   491e        ldr r1, [pc, #120]    ; (0x776c)
    76f2:   310c        adds r1, #12
    76f4:   e004        b.n 0x7700
    76f6:   491e        ldr r1, [pc, #120]    ; (0x7770)
    76f8:   3118        adds r1, #24
    76fa:   e001        b.n 0x7700
    76fc:   491c        ldr r1, [pc, #112]    ; (0x7770)
    76fe:   1d09        adds r1, r1, #4
    7700:   e9c0 1407   strd r1, r4, [r0, #28]
    7704:   e02e        b.n 0x7764
    7706:   491a        ldr r1, [pc, #104]    ; (0x7770)
    7708:   3110        adds r1, #16
    770a:   e7f9        b.n 0x7700
    770c:   8881        ldrh r1, [r0, #4]
    770e:   2900        cmp r1, #0
    7710:   d113        bne.n 0x773a
    7712:   e9c0 4307   strd r4, r3, [r0, #28]
    7716:   e025        b.n 0x7764
    7718:   78c3        ldrb r3, [r0, #3]
    771a:   88c2        ldrh r2, [r0, #6]
    771c:   8881        ldrh r1, [r0, #4]
    771e:   6202        str r2, [r0, #32]
    7720:   2b02        cmp r3, #2
    7722:   d10a        bne.n 0x773a
    7724:   2900        cmp r1, #0
    7726:   d108        bne.n 0x773a
    7728:   4a11        ldr r2, [pc, #68]    ; (0x7770)
    772a:   320c        adds r2, #12
    772c:   61c2        str r2, [r0, #28]
    772e:   4a11        ldr r2, [pc, #68]    ; (0x7774)
    7730:   e9c0 210a   strd r2, r1, [r0, #40]    ; 0x28
    7734:   2102        movs r1, #2
    7736:   f880 1024   strb.w r1, [r0, #36]    ; 0x24
    773a:   bdf0        pop {r4, r5, r6, r7, pc}
    773c:   e00e        b.n 0x775c
    773e:   8882        ldrh r2, [r0, #4]
    7740:   78c1        ldrb r1, [r0, #3]
    7742:   2a00        cmp r2, #0
    7744:   d1f9        bne.n 0x773a
    7746:   f44f 627a   mov.w r2, #4000    ; 0xfa0
    774a:   6021        str r1, [r4, #0]
    774c:   4351        muls r1, r2
    774e:   10d2        asrs r2, r2, #3
    7750:   fbb1 f1f2   udiv r1, r1, r2
    7754:   4a05        ldr r2, [pc, #20]    ; (0x776c)
    7756:   3a0c        subs r2, #12
    7758:   6011        str r1, [r2, #0]
    775a:   e002        b.n 0x7762
    775c:   4a04        ldr r2, [pc, #16]    ; (0x7770)
    775e:   1f12        subs r2, r2, #4
    7760:   7111        strb r1, [r2, #4]
    7762:   6205        str r5, [r0, #32]
    7764:   f880 3024   strb.w r3, [r0, #36]    ; 0x24
    7768:   e7e7        b.n 0x773a
    776a:   0000        movs r0, r0
    776c:   06a0        lsls r0, r4, #26
    776e:   2000        movs r0, #0
    7770:   0048        lsls r0, r1, #1
    7772:   2000        movs r0, #0
    7774:   7779        strb r1, [r7, #29]
    7776:   0000        movs r0, r0
    7778:   4a01        ldr r2, [pc, #4]    ; (0x7780)
    777a:   2101        movs r1, #1
    777c:   5411        strb r1, [r2, r0]
    777e:   4770        bx lr
    7780:   004e        lsls r6, r1, #1
    7782:   2000        movs r0, #0
    7784:   78c2        ldrb r2, [r0, #3]
    7786:   8881        ldrh r1, [r0, #4]
    7788:   2301        movs r3, #1
    778a:   2a21        cmp r2, #33    ; 0x21
    778c:   d007        beq.n 0x779e
    778e:   2a22        cmp r2, #34    ; 0x22
    7790:   d121        bne.n 0x77d6
    7792:   b1a9        cbz r1, 0x77c0
    7794:   2901        cmp r1, #1
    7796:   d017        beq.n 0x77c8
    7798:   2902        cmp r1, #2
    779a:   d11a        bne.n 0x77d2
    779c:   e01c        b.n 0x77d8
    779e:   b121        cbz r1, 0x77aa
    77a0:   2901        cmp r1, #1
    77a2:   d005        beq.n 0x77b0
    77a4:   2902        cmp r1, #2
    77a6:   d106        bne.n 0x77b6
    77a8:   e007        b.n 0x77ba
    77aa:   68c1        ldr r1, [r0, #12]
    77ac:   3112        adds r1, #18
    77ae:   e001        b.n 0x77b4
    77b0:   68c1        ldr r1, [r0, #12]
    77b2:   312b        adds r1, #43    ; 0x2b
    77b4:   61c1        str r1, [r0, #28]
    77b6:   2109        movs r1, #9
    77b8:   e00a        b.n 0x77d0
    77ba:   68c1        ldr r1, [r0, #12]
    77bc:   314b        adds r1, #75    ; 0x4b
    77be:   e7f9        b.n 0x77b4
    77c0:   4908        ldr r1, [pc, #32]    ; (0x77e4)
    77c2:   61c1        str r1, [r0, #28]
    77c4:   2140        movs r1, #64    ; 0x40
    77c6:   e003        b.n 0x77d0
    77c8:   4906        ldr r1, [pc, #24]    ; (0x77e4)
    77ca:   39ac        subs r1, #172    ; 0xac
    77cc:   61c1        str r1, [r0, #28]
    77ce:   2122        movs r1, #34    ; 0x22
    77d0:   6201        str r1, [r0, #32]
    77d2:   f880 3024   strb.w r3, [r0, #36]    ; 0x24
    77d6:   4770        bx lr
    77d8:   4902        ldr r1, [pc, #8]    ; (0x77e4)
    77da:   3988        subs r1, #136    ; 0x88
    77dc:   61c1        str r1, [r0, #28]
    77de:   2186        movs r1, #134    ; 0x86
    77e0:   e7f6        b.n 0x77d0
    77e2:   0000        movs r0, r0
    77e4:   8328        strh r0, [r5, #24]
    77e6:   0000        movs r0, r0
    77e8:   b570        push {r4, r5, r6, lr}
    77ea:   4604        mov r4, r0
    77ec:   2000        movs r0, #0
    77ee:   f7ff fa01   bl 0x6bf4
    77f2:   4605        mov r5, r0
    77f4:   6a20        ldr r0, [r4, #32]
    77f6:   1c41        adds r1, r0, #1
    77f8:   d016        beq.n 0x7828
    77fa:   f894 1024   ldrb.w r1, [r4, #36]    ; 0x24
    77fe:   2901        cmp r1, #1
    7800:   d112        bne.n 0x7828
    7802:   42a8        cmp r0, r5
    7804:   d302        bcc.n 0x780c
    7806:   1b40        subs r0, r0, r5
    7808:   6220        str r0, [r4, #32]
    780a:   e005        b.n 0x7818
    780c:   4605        mov r5, r0
    780e:   2000        movs r0, #0
    7810:   6220        str r0, [r4, #32]
    7812:   2002        movs r0, #2
    7814:   f884 0024   strb.w r0, [r4, #36]    ; 0x24
    7818:   462a        mov r2, r5
    781a:   2000        movs r0, #0
    781c:   69e1        ldr r1, [r4, #28]
    781e:   f7ff fa6d   bl 0x6cfc
    7822:   69e0        ldr r0, [r4, #28]
    7824:   4428        add r0, r5
    7826:   61e0        str r0, [r4, #28]
    7828:   bd70        pop {r4, r5, r6, pc}
    782a:   0000        movs r0, r0
    782c:   b510        push {r4, lr}
    782e:   4604        mov r4, r0
    7830:   2000        movs r0, #0
    7832:   f884 0024   strb.w r0, [r4, #36]    ; 0x24
    7836:   6220        str r0, [r4, #32]
    7838:   7820        ldrb r0, [r4, #0]
    783a:   f010 0060   ands.w r0, r0, #96    ; 0x60
    783e:   d002        beq.n 0x7846
    7840:   2820        cmp r0, #32
    7842:   d109        bne.n 0x7858
    7844:   e003        b.n 0x784e
    7846:   4620        mov r0, r4
    7848:   f000 f840   bl 0x78cc
    784c:   e004        b.n 0x7858
    784e:   4810        ldr r0, [pc, #64]    ; (0x7890)
    7850:   6941        ldr r1, [r0, #20]
    7852:   b109        cbz r1, 0x7858
    7854:   4620        mov r0, r4
    7856:   4788        blx r1
    7858:   f894 0024   ldrb.w r0, [r4, #36]    ; 0x24
    785c:   2801        cmp r0, #1
    785e:   d006        beq.n 0x786e
    7860:   2802        cmp r0, #2
    7862:   d00e        beq.n 0x7882
    7864:   e8bd 4010   ldmia.w sp!, {r4, lr}
    7868:   2000        movs r0, #0
    786a:   f7ff ba37   b.w 0x6cdc
    786e:   88e0        ldrh r0, [r4, #6]
    7870:   6a21        ldr r1, [r4, #32]
    7872:   4281        cmp r1, r0
    7874:   dd00        ble.n 0x7878
    7876:   6220        str r0, [r4, #32]
    7878:   4620        mov r0, r4
    787a:   e8bd 4010   ldmia.w sp!, {r4, lr}
    787e:   f7ff bfb3   b.w 0x77e8
    7882:   2200        movs r2, #0
    7884:   e8bd 4010   ldmia.w sp!, {r4, lr}
    7888:   4611        mov r1, r2
    788a:   4610        mov r0, r2
    788c:   f7ff ba36   b.w 0x6cfc
    7890:   8400        strh r0, [r0, #32]
    7892:   0000        movs r0, r0
    7894:   b510        push {r4, lr}
    7896:   4604        mov r4, r0
    7898:   2000        movs r0, #0
    789a:   7660        strb r0, [r4, #25]
    789c:   b149        cbz r1, 0x78b2
    789e:   2901        cmp r1, #1
    78a0:   d009        beq.n 0x78b6
    78a2:   2902        cmp r1, #2
    78a4:   d110        bne.n 0x78c8
    78a6:   7920        ldrb r0, [r4, #4]
    78a8:   f000 000f   and.w r0, r0, #15
    78ac:   f7ff f9a9   bl 0x6c02
    78b0:   e001        b.n 0x78b6
    78b2:   f894 0034   ldrb.w r0, [r4, #52]    ; 0x34
    78b6:   7620        strb r0, [r4, #24]
    78b8:   f104 0018   add.w r0, r4, #24
    78bc:   61e0        str r0, [r4, #28]
    78be:   2002        movs r0, #2
    78c0:   6220        str r0, [r4, #32]
    78c2:   2001        movs r0, #1
    78c4:   f884 0024   strb.w r0, [r4, #36]    ; 0x24
    78c8:   bd10        pop {r4, pc}
    78ca:   0000        movs r0, r0
    78cc:   b570        push {r4, r5, r6, lr}
    78ce:   4604        mov r4, r0
    78d0:   8800        ldrh r0, [r0, #0]
    78d2:   2501        movs r5, #1
    78d4:   f5b0 6fa0   cmp.w r0, #1280    ; 0x500
    78d8:   d04f        beq.n 0x797a
    78da:   dc20        bgt.n 0x791e
    78dc:   f5b0 7f80   cmp.w r0, #256    ; 0x100
    78e0:   d044        beq.n 0x796c
    78e2:   dc0b        bgt.n 0x78fc
    78e4:   2880        cmp r0, #128    ; 0x80
    78e6:   d03d        beq.n 0x7964
    78e8:   2881        cmp r0, #129    ; 0x81
    78ea:   d03d        beq.n 0x7968
    78ec:   2882        cmp r0, #130    ; 0x82
    78ee:   d166        bne.n 0x79be
    78f0:   2102        movs r1, #2
    78f2:   4620        mov r0, r4
    78f4:   e8bd 4070   ldmia.w sp!, {r4, r5, r6, lr}
    78f8:   f7ff bfcc   b.w 0x7894
    78fc:   f5b0 7f81   cmp.w r0, #258    ; 0x102
    7900:   d036        beq.n 0x7970
    7902:   f5b0 7f40   cmp.w r0, #768    ; 0x300
    7906:   d035        beq.n 0x7974
    7908:   f5a0 7040   sub.w r0, r0, #768    ; 0x300
    790c:   3802        subs r0, #2
    790e:   d156        bne.n 0x79be
    7910:   2201        movs r2, #1
    7912:   2102        movs r1, #2
    7914:   4620        mov r0, r4
    7916:   e8bd 4070   ldmia.w sp!, {r4, r5, r6, lr}
    791a:   f000 b86b   b.w 0x79f4
    791e:   4933        ldr r1, [pc, #204]    ; (0x79ec)
    7920:   f5b0 6f10   cmp.w r0, #2304    ; 0x900
    7924:   d04e        beq.n 0x79c4
    7926:   dc0f        bgt.n 0x7948
    7928:   f5b0 6fd0   cmp.w r0, #1664    ; 0x680
    792c:   d02c        beq.n 0x7988
    792e:   f5a0 60c0   sub.w r0, r0, #1536    ; 0x600
    7932:   3881        subs r0, #129    ; 0x81
    7934:   d044        beq.n 0x79c0
    7936:   f5a0 7080   sub.w r0, r0, #256    ; 0x100
    793a:   38ff        subs r0, #255    ; 0xff
    793c:   d13f        bne.n 0x79be
    793e:   f104 0030   add.w r0, r4, #48    ; 0x30
    7942:   e9c4 0507   strd r0, r5, [r4, #28]
    7946:   e038        b.n 0x79ba
    7948:   f5a0 6020   sub.w r0, r0, #2560    ; 0xa00
    794c:   3881        subs r0, #129    ; 0x81
    794e:   d04a        beq.n 0x79e6
    7950:   2880        cmp r0, #128    ; 0x80
    7952:   d134        bne.n 0x79be
    7954:   68c8        ldr r0, [r1, #12]
    7956:   2800        cmp r0, #0
    7958:   d031        beq.n 0x79be
    795a:   4601        mov r1, r0
    795c:   4620        mov r0, r4
    795e:   e8bd 4070   ldmia.w sp!, {r4, r5, r6, lr}
    7962:   4708        bx r1
    7964:   2100        movs r1, #0
    7966:   e7c4        b.n 0x78f2
    7968:   2101        movs r1, #1
    796a:   e7c2        b.n 0x78f2
    796c:   2200        movs r2, #0
    796e:   e002        b.n 0x7976
    7970:   2200        movs r2, #0
    7972:   e7ce        b.n 0x7912
    7974:   2201        movs r2, #1
    7976:   2100        movs r1, #0
    7978:   e7cc        b.n 0x7914
    797a:   78a0        ldrb r0, [r4, #2]
    797c:   f7ff faac   bl 0x6ed8
    7980:   f884 5024   strb.w r5, [r4, #36]    ; 0x24
    7984:   2005        movs r0, #5
    7986:   e02b        b.n 0x79e0
    7988:   78e0        ldrb r0, [r4, #3]
    798a:   2801        cmp r0, #1
    798c:   d00f        beq.n 0x79ae
    798e:   2802        cmp r0, #2
    7990:   d00f        beq.n 0x79b2
    7992:   2803        cmp r0, #3
    7994:   d113        bne.n 0x79be
    7996:   78a0        ldrb r0, [r4, #2]
    7998:   6961        ldr r1, [r4, #20]
    799a:   4281        cmp r1, r0
    799c:   d90f        bls.n 0x79be
    799e:   6921        ldr r1, [r4, #16]
    79a0:   f851 0020   ldr.w r0, [r1, r0, lsl #2]
    79a4:   2800        cmp r0, #0
    79a6:   d00a        beq.n 0x79be
    79a8:   61e0        str r0, [r4, #28]
    79aa:   7800        ldrb r0, [r0, #0]
    79ac:   e004        b.n 0x79b8
    79ae:   68a0        ldr r0, [r4, #8]
    79b0:   e7fa        b.n 0x79a8
    79b2:   68e0        ldr r0, [r4, #12]
    79b4:   61e0        str r0, [r4, #28]
    79b6:   8840        ldrh r0, [r0, #2]
    79b8:   6220        str r0, [r4, #32]
    79ba:   f884 5024   strb.w r5, [r4, #36]    ; 0x24
    79be:   bd70        pop {r4, r5, r6, pc}
    79c0:   6888        ldr r0, [r1, #8]
    79c2:   e7c8        b.n 0x7956
    79c4:   78a0        ldrb r0, [r4, #2]
    79c6:   f884 0030   strb.w r0, [r4, #48]    ; 0x30
    79ca:   f884 5024   strb.w r5, [r4, #36]    ; 0x24
    79ce:   2501        movs r5, #1
    79d0:   4907        ldr r1, [pc, #28]    ; (0x79f0)
    79d2:   b268        sxtb r0, r5
    79d4:   f7ff f932   bl 0x6c3c
    79d8:   1c6d        adds r5, r5, #1
    79da:   2d08        cmp r5, #8
    79dc:   d3f8        bcc.n 0x79d0
    79de:   2006        movs r0, #6
    79e0:   f884 0032   strb.w r0, [r4, #50]    ; 0x32
    79e4:   bd70        pop {r4, r5, r6, pc}
    79e6:   6908        ldr r0, [r1, #16]
    79e8:   e7b5        b.n 0x7956
    79ea:   0000        movs r0, r0
    79ec:   8400        strh r0, [r0, #32]
    79ee:   0000        movs r0, r0
    79f0:   018c        lsls r4, r1, #6
    79f2:   2000        movs r0, #0
    79f4:   b570        push {r4, r5, r6, lr}
    79f6:   4604        mov r4, r0
    79f8:   2601        movs r6, #1
    79fa:   b161        cbz r1, 0x7a16
    79fc:   2902        cmp r1, #2
    79fe:   d109        bne.n 0x7a14
    7a00:   7920        ldrb r0, [r4, #4]
    7a02:   f010 050f   ands.w r5, r0, #15
    7a06:   d003        beq.n 0x7a10
    7a08:   b182        cbz r2, 0x7a2c
    7a0a:   4628        mov r0, r5
    7a0c:   f7ff f96c   bl 0x6ce8
    7a10:   f884 6024   strb.w r6, [r4, #36]    ; 0x24
    7a14:   bd70        pop {r4, r5, r6, pc}
    7a16:   78a0        ldrb r0, [r4, #2]
    7a18:   2801        cmp r0, #1
    7a1a:   d1fb        bne.n 0x7a14
    7a1c:   f814 0f34   ldrb.w r0, [r4, #52]!
    7a20:   f362 0041   bfi r0, r2, #1, #1
    7a24:   f804 0910   strb.w r0, [r4], #-16
    7a28:   7026        strb r6, [r4, #0]
    7a2a:   bd70        pop {r4, r5, r6, pc}
    7a2c:   6ba0        ldr r0, [r4, #56]    ; 0x38
    7a2e:   2800        cmp r0, #0
    7a30:   d1ee        bne.n 0x7a10
    7a32:   4628        mov r0, r5
    7a34:   f7ff f8b2   bl 0x6b9c
    7a38:   4628        mov r0, r5
    7a3a:   f7ff f8a7   bl 0x6b8c
    7a3e:   e7e7        b.n 0x7a10
    7a40:   1e52        subs r2, r2, #1
    7a42:   d404        bmi.n 0x7a4e
    7a44:   f850 3022   ldr.w r3, [r0, r2, lsl #2]
    7a48:   f841 3022   str.w r3, [r1, r2, lsl #2]
    7a4c:   e7f8        b.n 0x7a40
    7a4e:   4770        bx lr
    7a50:   4902        ldr r1, [pc, #8]    ; (0x7a5c)
    7a52:   eb00 0080   add.w r0, r0, r0, lsl #2
    7a56:   eb01 0080   add.w r0, r1, r0, lsl #2
    7a5a:   4770        bx lr
    7a5c:   8014        strh r4, [r2, #0]
    7a5e:   400a        ands r2, r1
    7a60:   e92d 47f0   stmdb sp!, {r4, r5, r6, r7, r8, r9, sl, lr}
    7a64:   2700        movs r7, #0
    7a66:   f44f 4100   mov.w r1, #32768    ; 0x8000
    7a6a:   463a        mov r2, r7
    7a6c:   468a        mov sl, r1
    7a6e:   2301        movs r3, #1
    7a70:   4610        mov r0, r2
    7a72:   f7fb ff47   bl 0x3904
    7a76:   4824        ldr r0, [pc, #144]    ; (0x7b08)
    7a78:   f7fe ff54   bl 0x6924
    7a7c:   4d23        ldr r5, [pc, #140]    ; (0x7b0c)
    7a7e:   4604        mov r4, r0
    7a80:   f64e 26e0   movw r6, #60128    ; 0xeae0
    7a84:   2801        cmp r0, #1
    7a86:   d106        bne.n 0x7a96
    7a88:   6d68        ldr r0, [r5, #84]    ; 0x54
    7a8a:   4330        orrs r0, r6
    7a8c:   6568        str r0, [r5, #84]    ; 0x54
    7a8e:   65ae        str r6, [r5, #88]    ; 0x58
    7a90:   6d28        ldr r0, [r5, #80]    ; 0x50
    7a92:   4330        orrs r0, r6
    7a94:   6528        str r0, [r5, #80]    ; 0x50
    7a96:   f8df 8070   ldr.w r8, [pc, #112]    ; 0x7b08
    7a9a:   f898 0032   ldrb.w r0, [r8, #50]    ; 0x32
    7a9e:   2803        cmp r0, #3
    7aa0:   d11e        bne.n 0x7ae0
    7aa2:   f8df 906c   ldr.w r9, [pc, #108]    ; 0x7b10
    7aa6:   f8d9 0000   ldr.w r0, [r9]
    7aaa:   f010 0fc0   tst.w r0, #192    ; 0xc0
    7aae:   d017        beq.n 0x7ae0
    7ab0:   2001        movs r0, #1
    7ab2:   f7fd fef7   bl 0x58a4
    7ab6:   4917        ldr r1, [pc, #92]    ; (0x7b14)
    7ab8:   714f        strb r7, [r1, #5]
    7aba:   f898 0032   ldrb.w r0, [r8, #50]    ; 0x32
    7abe:   2803        cmp r0, #3
    7ac0:   d10e        bne.n 0x7ae0
    7ac2:   f8d9 0000   ldr.w r0, [r9]
    7ac6:   f010 0fc0   tst.w r0, #192    ; 0xc0
    7aca:   d009        beq.n 0x7ae0
    7acc:   f7ff fa2c   bl 0x6f28
    7ad0:   f44f 707a   mov.w r0, #1000    ; 0x3e8
    7ad4:   f7fb feb4   bl 0x3840
    7ad8:   65ae        str r6, [r5, #88]    ; 0x58
    7ada:   2000        movs r0, #0
    7adc:   f7fe fa0c   bl 0x5ef8
    7ae0:   6da8        ldr r0, [r5, #88]    ; 0x58
    7ae2:   4230        tst r0, r6
    7ae4:   d008        beq.n 0x7af8
    7ae6:   2c01        cmp r4, #1
    7ae8:   d106        bne.n 0x7af8
    7aea:   4807        ldr r0, [pc, #28]    ; (0x7b08)
    7aec:   f7fe ffe0   bl 0x6ab0
    7af0:   2801        cmp r0, #1
    7af2:   d101        bne.n 0x7af8
    7af4:   f7fe ffe4   bl 0x6ac0
    7af8:   463a        mov r2, r7
    7afa:   4651        mov r1, sl
    7afc:   e8bd 47f0   ldmia.w sp!, {r4, r5, r6, r7, r8, r9, sl, lr}
    7b00:   2300        movs r3, #0
    7b02:   4610        mov r0, r2
    7b04:   f7fb befe   b.w 0x3904
    7b08:   06cc        lsls r4, r1, #27
    7b0a:   2000        movs r0, #0
    7b0c:   4000        ands r0, r0
    7b0e:   4002        ands r2, r0
    7b10:   8000        strh r0, [r0, #0]
    7b12:   400a        ands r2, r1
    7b14:   0044        lsls r4, r0, #1
    7b16:   2000        movs r0, #0
    7b18:   e002        b.n 0x7b20
    7b1a:   c808        ldmia r0!, {r3}
    7b1c:   1f12        subs r2, r2, #4
    7b1e:   c108        stmia r1!, {r3}
    7b20:   2a00        cmp r2, #0
    7b22:   d1fa        bne.n 0x7b1a
    7b24:   4770        bx lr
    7b26:   4770        bx lr
    7b28:   2000        movs r0, #0
    7b2a:   e001        b.n 0x7b30
    7b2c:   c101        stmia r1!, {r0}
    7b2e:   1f12        subs r2, r2, #4
    7b30:   2a00        cmp r2, #0
    7b32:   d1fb        bne.n 0x7b2c
    7b34:   4770        bx lr
    7b36:   0000        movs r0, r0
    7b38:   4601        mov r1, r0
    7b3a:   4a05        ldr r2, [pc, #20]    ; (0x7b50)
    7b3c:   2000        movs r0, #0
    7b3e:   5c13        ldrb r3, [r2, r0]
    7b40:   428b        cmp r3, r1
    7b42:   d004        beq.n 0x7b4e
    7b44:   1c40        adds r0, r0, #1
    7b46:   b2c0        uxtb r0, r0
    7b48:   2808        cmp r0, #8
    7b4a:   d3f8        bcc.n 0x7b3e
    7b4c:   20ff        movs r0, #255    ; 0xff
    7b4e:   4770        bx lr
    7b50:   7d88        ldrb r0, [r1, #22]
    7b52:   0000        movs r0, r0
    7b54:   b538        push {r3, r4, r5, lr}
    7b56:   2400        movs r4, #0
    7b58:   9400        str r4, [sp, #0]
    7b5a:   4c08        ldr r4, [pc, #32]    ; (0x7b7c)
    7b5c:   9d04        ldr r5, [sp, #16]
    7b5e:   5ca2        ldrb r2, [r4, r2]
    7b60:   f88d 2000   strb.w r2, [sp]
    7b64:   5ce2        ldrb r2, [r4, r3]
    7b66:   f88d 2001   strb.w r2, [sp, #1]
    7b6a:   5d62        ldrb r2, [r4, r5]
    7b6c:   460b        mov r3, r1
    7b6e:   f88d 2002   strb.w r2, [sp, #2]
    7b72:   461a        mov r2, r3
    7b74:   4669        mov r1, sp
    7b76:   f7fc ff95   bl 0x4aa4
    7b7a:   bd38        pop {r3, r4, r5, pc}
    7b7c:   02de        lsls r6, r3, #11
    7b7e:   2000        movs r0, #0

main:
  0x7b80:   f7fd fef6   bl 0x5970
    7b84:   f7fb fe62   bl 0x384c
    7b88:   f7fd ff74   bl 0x5a74
    7b8c:   20ff        movs r0, #255    ; 0xff
    7b8e:   f7fc f987   bl 0x3ea0
    7b92:   f7fe fb7b   bl 0x628c
    7b96:   f7fe f987   bl 0x5ea8
    7b9a:   f7fe fc99   bl 0x64d0
    7b9e:   f7fd f9eb   bl 0x4f78
    7ba2:   2000        movs r0, #0
    7ba4:   f7fc fdba   bl 0x471c
    7ba8:   492f        ldr r1, [pc, #188]    ; (0x7c68)
    7baa:   2000        movs r0, #0
    7bac:   6008        str r0, [r1, #0]
    7bae:   f7fd feb3   bl 0x5918
    7bb2:   f7fd fecb   bl 0x594c
    7bb6:   2000        movs r0, #0
    7bb8:   f7fd fe74   bl 0x58a4
    7bbc:   200a        movs r0, #10
    7bbe:   f7fb fe3f   bl 0x3840
    7bc2:   2001        movs r0, #1
    7bc4:   f7fe fb24   bl 0x6210
    7bc8:   f7fd f9dc   bl 0x4f84
    7bcc:   4c27        ldr r4, [pc, #156]    ; (0x7c6c)
    7bce:   b108        cbz r0, 0x7bd4
    7bd0:   2001        movs r0, #1
    7bd2:   80a0        strh r0, [r4, #4]
    7bd4:   88a0        ldrh r0, [r4, #4]
    7bd6:   b188        cbz r0, 0x7bfc
    7bd8:   f7fe fd2a   bl 0x6630
    7bdc:   f7fe f97c   bl 0x5ed8
    7be0:   2000        movs r0, #0
    7be2:   f7fe fb15   bl 0x6210
    7be6:   88a0        ldrh r0, [r4, #4]
    7be8:   1c40        adds r0, r0, #1
    7bea:   80a0        strh r0, [r4, #4]
    7bec:   f000 f844   bl 0x7c78
    7bf0:   2001        movs r0, #1
    7bf2:   f7fe f9c9   bl 0x5f88
    7bf6:   f7ff f997   bl 0x6f28
    7bfa:   e7f4        b.n 0x7be6
    7bfc:   2001        movs r0, #1
    7bfe:   f7fd fe51   bl 0x58a4
    7c02:   f7fe ff6b   bl 0x6adc
    7c06:   4e1a        ldr r6, [pc, #104]    ; (0x7c70)
    7c08:   4d1a        ldr r5, [pc, #104]    ; (0x7c74)

  0x7c0a:   f7ff f92b   bl 0x6e64
    7c0e:   2801        cmp r0, #1
    7c10:   d007        beq.n 0x7c22
    7c12:   2802        cmp r0, #2
    7c14:   d00f        beq.n 0x7c36
    7c16:   2803        cmp r0, #3
    7c18:   d122        bne.n 0x7c60
    7c1a:   2001        movs r0, #1
    7c1c:   f7fd fe42   bl 0x58a4
    7c20:   e01e        b.n 0x7c60
    7c22:   2000        movs r0, #0
    7c24:   f7fd fe3e   bl 0x58a4
    7c28:   f7fe fd02   bl 0x6630
    7c2c:   f7fe f954   bl 0x5ed8
    7c30:   2000        movs r0, #0
    7c32:   f7fe faed   bl 0x6210
    7c36:   88a0        ldrh r0, [r4, #4]
    7c38:   1c40        adds r0, r0, #1
    7c3a:   0400        lsls r0, r0, #16
    7c3c:   0c00        lsrs r0, r0, #16
    7c3e:   80a0        strh r0, [r4, #4]
    7c40:   d105        bne.n 0x7c4e
    7c42:   6828        ldr r0, [r5, #0]
    7c44:   42b0        cmp r0, r6
    7c46:   d902        bls.n 0x7c4e
    7c48:   6828        ldr r0, [r5, #0]
    7c4a:   1e40        subs r0, r0, #1
    7c4c:   6028        str r0, [r5, #0]
    7c4e:   f7fe f9a7   bl 0x5fa0
    7c52:   f000 f811   bl 0x7c78
    7c56:   7820        ldrb r0, [r4, #0]
    7c58:   b910        cbnz r0, 0x7c60
    7c5a:   2001        movs r0, #1
    7c5c:   f7fe f994   bl 0x5f88
    7c60:   f7ff f962   bl 0x6f28
    7c64:   e7d1        b.n 0x7c0a
    7c66:   0000

  0x7c68:   0x20000038
  0x7c6c:   0x2000002e
  0x7c70:   0x55aafaf0
  0x7c74:   0x20003ffc

  0x7c78:   b570        push {r4, r5, r6, lr}
    7c7a:   4e33        ldr r6, [pc, #204]    ; (0x7d48)
    7c7c:   2400        movs r4, #0
    7c7e:   78f0        ldrb r0, [r6, #3]
    7c80:   b160        cbz r0, 0x7c9c
    7c82:   2001        movs r0, #1
    7c84:   f7fc fd4a   bl 0x471c
    7c88:   b140        cbz r0, 0x7c9c
    7c8a:   78f0        ldrb r0, [r6, #3]
    7c8c:   2802        cmp r0, #2
    7c8e:   d019        beq.n 0x7cc4
    7c90:   f7fc f946   bl 0x3f20
    7c94:   70f4        strb r4, [r6, #3]
    7c96:   2001        movs r0, #1
    7c98:   f7fd fe3e   bl 0x5918
    7c9c:   f7fd fb72   bl 0x5384
    7ca0:   2800        cmp r0, #0
    7ca2:   d04f        beq.n 0x7d44
    7ca4:   4d29        ldr r5, [pc, #164]    ; (0x7d4c)
    7ca6:   78a8        ldrb r0, [r5, #2]
    7ca8:   2820        cmp r0, #32
    7caa:   d303        bcc.n 0x7cb4
    7cac:   3820        subs r0, #32
    7cae:   70a8        strb r0, [r5, #2]
    7cb0:   2001        movs r0, #1
    7cb2:   70e8        strb r0, [r5, #3]
    7cb4:   7868        ldrb r0, [r5, #1]
    7cb6:   28ff        cmp r0, #255    ; 0xff
    7cb8:   d011        beq.n 0x7cde
    7cba:   f7fc ff3b   bl 0x4b34
    7cbe:   2801        cmp r0, #1
    7cc0:   d003        beq.n 0x7cca
    7cc2:   e00c        b.n 0x7cde
    7cc4:   f7fc f944   bl 0x3f50
    7cc8:   e7e4        b.n 0x7c94
    7cca:   7868        ldrb r0, [r5, #1]
    7ccc:   f7fc f8e8   bl 0x3ea0
    7cd0:   20ff        movs r0, #255    ; 0xff
    7cd2:   7068        strb r0, [r5, #1]
    7cd4:   2002        movs r0, #2
    7cd6:   f7fd fe1f   bl 0x5918
    7cda:   f7fc ff43   bl 0x4b64
    7cde:   7930        ldrb r0, [r6, #4]
    7ce0:   b138        cbz r0, 0x7cf2
    7ce2:   f7fc ff27   bl 0x4b34
    7ce6:   2801        cmp r0, #1
    7ce8:   d103        bne.n 0x7cf2
    7cea:   7930        ldrb r0, [r6, #4]
    7cec:   f7fc ff38   bl 0x4b60
    7cf0:   7134        strb r4, [r6, #4]
    7cf2:   f7fe fa4f   bl 0x6194
    7cf6:   f7fd fecf   bl 0x5a98
    7cfa:   4815        ldr r0, [pc, #84]    ; (0x7d50)
    7cfc:   7980        ldrb r0, [r0, #6]
    7cfe:   2801        cmp r0, #1
    7d00:   d003        beq.n 0x7d0a
    7d02:   f7fc ff35   bl 0x4b70
    7d06:   f7fb fe91   bl 0x3a2c
    7d0a:   78e8        ldrb r0, [r5, #3]
    7d0c:   b108        cbz r0, 0x7d12
    7d0e:   f7fc ffe9   bl 0x4ce4
    7d12:   7830        ldrb r0, [r6, #0]
    7d14:   b120        cbz r0, 0x7d20
    7d16:   7034        strb r4, [r6, #0]
    7d18:   f7fd fd66   bl 0x57e8
    7d1c:   f7fd fd6a   bl 0x57f4
    7d20:   7870        ldrb r0, [r6, #1]
    7d22:   b110        cbz r0, 0x7d2a
    7d24:   7074        strb r4, [r6, #1]
    7d26:   f7fe fb93   bl 0x6450
    7d2a:   78e8        ldrb r0, [r5, #3]
    7d2c:   2800        cmp r0, #0
    7d2e:   d009        beq.n 0x7d44
    7d30:   4806        ldr r0, [pc, #24]    ; (0x7d4c)
    7d32:   78aa        ldrb r2, [r5, #2]
    7d34:   1d80        adds r0, r0, #6
    7d36:   7841        ldrb r1, [r0, #1]
    7d38:   4411        add r1, r2
    7d3a:   7041        strb r1, [r0, #1]
    7d3c:   88e8        ldrh r0, [r5, #6]
    7d3e:   0840        lsrs r0, r0, #1
    7d40:   80e8        strh r0, [r5, #6]
    7d42:   70ec        strb r4, [r5, #3]
    7d44:   bd70        pop {r4, r5, r6, pc}
    7d46:   0000        movs r0, r0
    7d48:   0644        lsls r4, r0, #25
    7d4a:   2000        movs r0, #0
    7d4c:   002e        movs r6, r5
    7d4e:   2000        movs r0, #0
    7d50:   196c        adds r4, r5, r5
    7d52:   2000        movs r0, #0
    7d54:   29e6        cmp r1, #230    ; 0xe6
    7d56:   2b14        cmp r3, #20
    7d58:   e104        b.n 0x7f64
    7d5a:   ce1d        ldmia r6!, {r0, r2, r3, r4}
    7d5c:   1a65        subs r5, r4, r1
    7d5e:   1608        asrs r0, r1, #24
    7d60:   1b07        subs r7, r0, r4
    7d62:   cc06        ldmia r4!, {r1, r2}
    7d64:   1715        asrs r5, r2, #28
    7d66:   0a09        lsrs r1, r1, #8
    7d68:   0519        lsls r1, r3, #20
    7d6a:   1cc9        adds r1, r1, #3
    7d6c:   0b18        lsrs r0, r3, #12
    7d6e:   110d        asrs r5, r1, #4
    7d70:   2810        cmp r0, #16
    7d72:   120c        asrs r4, r1, #8
    7d74:   0f0e        lsrs r6, r1, #28
    7d76:   3736        adds r7, #54    ; 0x36
    7d78:   132a        asrs r2, r5, #12
    7d7a:   33e4        adds r3, #228    ; 0xe4
    7d7c:   e54c        b.n 0x7818
    7d7e:   cbca        ldmia r3, {r1, r3, r6, r7}
    7d80:   0000        movs r0, r0
    7d82:   e3e2        b.n 0x854a
    7d84:   082c        lsrs r4, r5, #32
    7d86:   1a14        subs r4, r2, r0
    7d88:   192e        adds r6, r5, r4
    7d8a:   2118        movs r1, #24
    7d8c:   1029        asrs r1, r5, #32
    7d8e:   3000        adds r0, #0
    7d90:   101f        asrs r7, r3, #32
    7d92:   2601        movs r6, #1
    7d94:   0111        lsls r1, r2, #4
    7d96:   1227        asrs r7, r4, #8
    7d98:   2f01        cmp r7, #1
    7d9a:   0113        lsls r3, r2, #4
    7d9c:   5f2b        ldrsh r3, [r5, r4]
    7d9e:   0301        lsls r1, r0, #12
    7da0:   0af5        lsrs r5, r6, #11
    7da2:   0bf6        lsrs r6, r6, #15
    7da4:   1af4        subs r4, r6, r3
    7da6:   1bee        subs r6, r5, r7
    7da8:   224b        movs r2, #75    ; 0x4b
    7daa:   2352        movs r3, #82    ; 0x52
    7dac:   2a4e        cmp r2, #78    ; 0x4e
    7dae:   2d46        cmp r5, #70    ; 0x46
    7db0:   2847        cmp r0, #71    ; 0x47
    7db2:   0448        lsls r0, r1, #17
    7db4:   0539        lsls r1, r7, #20
    7db6:   0cf2        lsrs r2, r6, #19
    7db8:   0df0        lsrs r0, r6, #23
    7dba:   1cf3        adds r3, r6, #3
    7dbc:   1d4a        adds r2, r1, #5
    7dbe:   2450        movs r4, #80    ; 0x50
    7dc0:   2551        movs r5, #81    ; 0x51
    7dc2:   2c4f        cmp r4, #79    ; 0x4f
    7dc4:   0749        lsls r1, r1, #29
    7dc6:   1e65        subs r5, r4, #1
    7dc8:   004d        lsls r5, r1, #1
    7dca:   2900        cmp r1, #0
    7dcc:   1435        asrs r5, r6, #16
    7dce:   1a3a        subs r2, r7, r0
    7dd0:   083b        lsrs r3, r7, #32
    7dd2:   153c        asrs r4, r7, #20
    7dd4:   173d        asrs r5, r7, #28
    7dd6:   1c3e        adds r6, r7, #0
    7dd8:   183f        adds r7, r7, r0
    7dda:   0c40        lsrs r0, r0, #17
    7ddc:   1241        asrs r1, r0, #9
    7dde:   1342        asrs r2, r0, #13
    7de0:   4c43        ldr r4, [pc, #268]    ; (0x7ef0)
    7de2:   2a44        cmp r2, #68    ; 0x44
    7de4:   2b45        cmp r3, #69    ; 0x45
    7de6:   041e        lsls r6, r3, #16
    7de8:   161f        asrs r7, r3, #24
    7dea:   0720        lsls r0, r4, #28
    7dec:   0921        lsrs r1, r4, #4
    7dee:   0a22        lsrs r2, r4, #8
    7df0:   0b23        lsrs r3, r4, #12
    7df2:   0d24        lsrs r4, r4, #20
    7df4:   0e25        lsrs r5, r4, #24
    7df6:   0f26        lsrs r6, r4, #28
    7df8:   3327        adds r3, #39    ; 0x27
    7dfa:   282d        cmp r0, #45    ; 0x2d
    7dfc:   052e        lsls r6, r5, #20
    7dfe:   1134        asrs r4, r6, #4
    7e00:   1038        asrs r0, r7, #32
    7e02:   362f        adds r6, #47    ; 0x2f
    7e04:   3730        adds r7, #48    ; 0x30
    7e06:   e831 ffcf        ; <UNDEFINED> instruction: 0xe831ffcf
    7e0a:   ffff 0000   vaddl.u<illegal width 64> q8, d15, d0
    7e0e:   ffff 0000   vaddl.u<illegal width 64> q8, d15, d0
    7e12:   ff00 0000   vhadd.u8 d0, d0, d0
    7e16:   0201        lsls r1, r0, #8
    7e18:   ff03 ffff   vmaxnm.f32 <illegal reg q7.5>, <illegal reg q9.5>, <illegal reg q15.5>
    7e1c:   04ff        lsls r7, r7, #19
    7e1e:   0504        lsls r4, r0, #20
    7e20:   0605        lsls r5, r0, #24
    7e22:   0106        lsls r6, r0, #4
    7e24:   0101        lsls r1, r0, #4
    7e26:   0101        lsls r1, r0, #4
    7e28:   0101        lsls r1, r0, #4
    7e2a:   0503        lsls r3, r0, #20
    7e2c:   0907        lsrs r7, r0, #4
    7e2e:   010b        lsls r3, r1, #4
    7e30:   0503        lsls r3, r0, #20
    7e32:   0907        lsrs r7, r0, #4
    7e34:   aa0b        add r2, sp, #44    ; 0x2c
    7e36:   466e        mov r6, sp
    7e38:   1428        asrs r0, r5, #16
    7e3a:   010a        lsls r2, r1, #4
    7e3c:   0302        lsls r2, r0, #12
    7e3e:   0604        lsls r4, r0, #24
    7e40:   1009        asrs r1, r1, #32
    7e42:   070b        lsls r3, r1, #28
    7e44:   0204        lsls r4, r0, #8
    7e46:   1001        asrs r1, r0, #32
    7e48:   070b        lsls r3, r1, #28
    7e4a:   0204        lsls r4, r0, #8
    7e4c:   0901        lsrs r1, r0, #4
    7e4e:   0108        lsls r0, r1, #4
    7e50:   0101        lsls r1, r0, #4
    7e52:   0b01        lsrs r1, r0, #12
    7e54:   ff0b 0207   vhsub.u8 d0, d11, d7
    7e58:   0202        lsls r2, r0, #8
    7e5a:   0a02        lsrs r2, r0, #8
    7e5c:   0a0a        lsrs r2, r1, #8
    7e5e:   03ff        lsls r7, r7, #15
    7e60:   0303        lsls r3, r0, #12
    7e62:   0903        lsrs r3, r0, #4
    7e64:   0709        lsls r1, r1, #28
    7e66:   040a        lsls r2, r1, #16
    7e68:   0404        lsls r4, r0, #16
    7e6a:   0904        lsrs r4, r0, #4
    7e6c:   0609        lsls r1, r1, #24
    7e6e:   050b        lsls r3, r1, #20
    7e70:   0505        lsls r5, r0, #20
    7e72:   0805        lsrs r5, r0, #32
    7e74:   0608        lsls r0, r1, #24
    7e76:   060b        lsls r3, r1, #24
    7e78:   0607        lsls r7, r0, #24
    7e7a:   0806        lsrs r6, r0, #32
    7e7c:   0907        lsrs r7, r0, #4
    7e7e:   ffff ffff        ; <UNDEFINED> instruction: 0xffffffff
    7e82:   ffff 00ff   vshr.u64 q8, <illegal reg q15.5>, #1
    7e86:   0000        movs r0, r0
    7e88:   0000        movs r0, r0
    7e8a:   0000        movs r0, r0
    7e8c:   0000        movs r0, r0
    7e8e:   0000        movs r0, r0
    7e90:   0000        movs r0, r0
    7e92:   0000        movs r0, r0
    7e94:   2300        movs r3, #0
    7e96:   0053        lsls r3, r2, #1
    7e98:   0108        lsls r0, r1, #4
    7e9a:   0209        lsls r1, r1, #8
    7e9c:   ff0a 105b   vqadd.u8 <illegal reg q0.5>, q5, <illegal reg q5.5>
    7ea0:   1118        asrs r0, r3, #4
    7ea2:   1219        asrs r1, r3, #8
    7ea4:   131a        asrs r2, r3, #12
    7ea6:   20ff        movs r0, #255    ; 0xff
    7ea8:   2128        movs r1, #40    ; 0x28
    7eaa:   2229        movs r2, #41    ; 0x29
    7eac:   622a        str r2, [r5, #32]
    7eae:   301b        adds r0, #27
    7eb0:   3138        adds r1, #56    ; 0x38
    7eb2:   3239        adds r2, #57    ; 0x39
    7eb4:   613a        str r2, [r7, #16]
    7eb6:   4003        ands r3, r0
    7eb8:   4148        adcs r0, r1
    7eba:   4249        negs r1, r1
    7ebc:   604a        str r2, [r1, #4]
    7ebe:   500b        str r3, [r1, r0]
    7ec0:   5163        str r3, [r4, r5]
    7ec2:   4b58        ldr r3, [pc, #352]    ; (0x8024)
    7ec4:   335a        adds r3, #90    ; 0x5a
    7ec6:   ffff ffff        ; <UNDEFINED> instruction: 0xffffffff
    7eca:   ffff 00ff   vshr.u64 q8, <illegal reg q15.5>, #1
    7ece:   0000        movs r0, r0
    7ed0:   0000        movs r0, r0
    7ed2:   0000        movs r0, r0
    7ed4:   0000        movs r0, r0
    7ed6:   0000        movs r0, r0
    7ed8:   0000        movs r0, r0
    7eda:   0000        movs r0, r0
    7edc:   0000        movs r0, r0
    7ede:   4924        ldr r1, [pc, #144]    ; (0x7f70)
    7ee0:   926d        str r2, [sp, #436]    ; 0x1b4
    7ee2:   dbb6        blt.n 0x7e52
    7ee4:   aaff        add r2, sp, #1020    ; 0x3fc
    7ee6:   0055        lsls r5, r2, #1
    7ee8:   e6c8        b.n 0x7c7c
    7eea:   1429        asrs r1, r5, #16
    7eec:   042b        lsls r3, r5, #16
    7eee:   1de1        adds r1, r4, #7
    7ef0:   65ce        str r6, [r1, #92]    ; 0x5c
    7ef2:   081a        lsrs r2, r3, #32
    7ef4:   0716        lsls r6, r2, #28
    7ef6:   061b        lsls r3, r3, #24
    7ef8:   cce2        ldmia r4!, {r1, r5, r6, r7}
    7efa:   1715        asrs r5, r2, #28
    7efc:   0a09        lsrs r1, r1, #8
    7efe:   0519        lsls r1, r3, #20
    7f00:   cfc9        ldmia r7, {r0, r3, r6, r7}
    7f02:   181c        adds r4, r3, r0
    7f04:   0d0b        lsrs r3, r1, #20
    7f06:   1011        asrs r1, r2, #32
    7f08:   e028        b.n 0x7f5c
    7f0a:   120c        asrs r4, r1, #8
    7f0c:   0f0e        lsrs r6, r1, #28
    7f0e:   3736        adds r7, #54    ; 0x36
    7f10:   e32a        b.n 0x8568
    7f12:   e413        b.n 0x773c
    7f14:   4c33        ldr r4, [pc, #204]    ; (0x7fe4)
    7f16:   e5e8        b.n 0x7aea
    7f18:   ca2c        ldmia r2, {r2, r3, r5}
    7f1a:   00cb        lsls r3, r1, #3
    7f1c:   0000        movs r0, r0
    7f1e:   0000        movs r0, r0
    7f20:   4000        ands r0, r0
    7f22:   400b        ands r3, r1
    7f24:   0200        lsls r0, r0, #8
    7f26:   0000        movs r0, r0
    7f28:   0000        movs r0, r0
    7f2a:   400b        ands r3, r1
    7f2c:   0020        movs r0, r4
    7f2e:   0000        movs r0, r0
    7f30:   0000        movs r0, r0
    7f32:   400b        ands r3, r1
    7f34:   0040        lsls r0, r0, #1
    7f36:   0000        movs r0, r0
    7f38:   0000        movs r0, r0
    7f3a:   400b        ands r3, r1
    7f3c:   0080        lsls r0, r0, #2
    7f3e:   0000        movs r0, r0
    7f40:   4000        ands r0, r0
    7f42:   400b        ands r3, r1
    7f44:   0800        lsrs r0, r0, #32
    7f46:   0000        movs r0, r0
    7f48:   4000        ands r0, r0
    7f4a:   400b        ands r3, r1
    7f4c:   2000        movs r0, #0
    7f4e:   0000        movs r0, r0
    7f50:   4000        ands r0, r0
    7f52:   400b        ands r3, r1
    7f54:   4000        ands r0, r0
    7f56:   0000        movs r0, r0
    7f58:   4000        ands r0, r0
    7f5a:   400b        ands r3, r1
    7f5c:   8000        strh r0, [r0, #0]
    7f5e:   0000        movs r0, r0
    7f60:   0902        lsrs r2, r0, #4
    7f62:   0500        lsls r0, r0, #20
    7f64:   0600        lsls r0, r0, #24
    7f66:   0700        lsls r0, r0, #28
    7f68:   0b02        lsrs r2, r0, #12
    7f6a:   0d02        lsrs r2, r0, #20
    7f6c:   0e02        lsrs r2, r0, #24
    7f6e:   0f02        lsrs r2, r0, #28
    7f70:   0000        movs r0, r0
    7f72:   400b        ands r3, r1
    7f74:   0010        movs r0, r2
    7f76:   0000        movs r0, r0
    7f78:   2000        movs r0, #0
    7f7a:   400b        ands r3, r1
    7f7c:   0400        lsls r0, r0, #16
    7f7e:   0000        movs r0, r0
    7f80:   6000        str r0, [r0, #0]
    7f82:   400b        ands r3, r1
    7f84:   0001        movs r1, r0
    7f86:   0000        movs r0, r0
    7f88:   2000        movs r0, #0
    7f8a:   400b        ands r3, r1
    7f8c:   0800        lsrs r0, r0, #32
    7f8e:   0000        movs r0, r0
    7f90:   0000        movs r0, r0
    7f92:   400b        ands r3, r1
    7f94:   0800        lsrs r0, r0, #32
    7f96:   0000        movs r0, r0
    7f98:   0000        movs r0, r0
    7f9a:   400b        ands r3, r1
    7f9c:   0001        movs r1, r0
    7f9e:   0000        movs r0, r0
    7fa0:   0000        movs r0, r0
    7fa2:   400b        ands r3, r1
    7fa4:   0002        movs r2, r0
    7fa6:   0000        movs r0, r0
    7fa8:   2f2d        cmp r7, #45    ; 0x2d
    7faa:   302e        adds r0, #46    ; 0x2e
    7fac:   3414        adds r4, #20
    7fae:   361a        adds r6, #26
    7fb0:   3708        adds r7, #8
    7fb2:   1315        asrs r5, r2, #12
    7fb4:   1c17        adds r7, r2, #0
    7fb6:   091c        lsrs r4, r3, #4
    7fb8:   0a18        lsrs r0, r3, #8
    7fba:   060c        lsls r4, r1, #24
    7fbc:   1512        asrs r2, r2, #20
    7fbe:   0f13        lsrs r3, r2, #28
    7fc0:   382f        subs r0, #47    ; 0x2f
    7fc2:   2e30        cmp r6, #48    ; 0x30
    7fc4:   1216        asrs r6, r2, #8
    7fc6:   0807        lsrs r7, r0, #32
    7fc8:   1809        adds r1, r1, r0
    7fca:   0c0a        lsrs r2, r1, #16
    7fcc:   070b        lsls r3, r1, #28
    7fce:   0b0d        lsrs r5, r1, #12
    7fd0:   170e        asrs r6, r1, #28
    7fd2:   110f        asrs r7, r1, #4
    7fd4:   1633        asrs r3, r6, #24
    7fd6:   2d34        cmp r5, #52    ; 0x34
    7fd8:   331d        adds r3, #29
    7fda:   141b        asrs r3, r3, #16
    7fdc:   0d06        lsrs r6, r0, #20
    7fde:   0e19        lsrs r1, r3, #24
    7fe0:   1b05        subs r5, r0, r4
    7fe2:   0511        lsls r1, r2, #20
    7fe4:   1010        asrs r0, r2, #32
    7fe6:   1a36        subs r6, r6, r0
    7fe8:   1937        adds r7, r6, r4
    7fea:   1d38        adds r0, r7, #4
    7fec:   0908        lsrs r0, r1, #4
    7fee:   1315        asrs r5, r2, #12
    7ff0:   0a17        lsrs r7, r2, #8
    7ff2:   0d1c        lsrs r4, r3, #20
    7ff4:   0f18        lsrs r0, r3, #28
    7ff6:   180c        adds r4, r1, r0
    7ff8:   1c12        adds r2, r2, #0
    7ffa:   3313        adds r3, #19
    7ffc:   1516        asrs r6, r2, #20
    7ffe:   1607        asrs r7, r0, #24
    8000:   1709        asrs r1, r1, #28
    8002:   070a        lsls r2, r1, #28
    8004:   110d        asrs r5, r1, #4
    8006:   080e        lsrs r6, r1, #32
    8008:   0c0f        lsrs r7, r1, #16
    800a:   1233        asrs r3, r6, #8
    800c:   0e11        lsrs r1, r2, #24
    800e:   0000        movs r0, r0
    8010:   0100        lsls r0, r0, #4
    8012:   0002        movs r2, r0
    8014:   4000        ands r0, r0
    8016:   400b        ands r3, r1
    8018:   0010        movs r0, r2
    801a:   0000        movs r0, r0
    801c:   4000        ands r0, r0
    801e:   400b        ands r3, r1
    8020:   0020        movs r0, r4
    8022:   0000        movs r0, r0
    8024:   4000        ands r0, r0
    8026:   400b        ands r3, r1
    8028:   0040        lsls r0, r0, #1
    802a:   0000        movs r0, r0
    802c:   2000        movs r0, #0
    802e:   400b        ands r3, r1
    8030:   0002        movs r2, r0
    8032:   0000        movs r0, r0
    8034:   0000        movs r0, r0
    8036:   0013        movs r3, r2
    8038:   0026        movs r6, r4
    803a:   003a        movs r2, r7
    803c:   004e        lsls r6, r1, #1
    803e:   0062        lsls r2, r4, #1
    8040:   0077        lsls r7, r6, #1
    8042:   008c        lsls r4, r1, #2
    8044:   00a1        lsls r1, r4, #2
    8046:   00b7        lsls r7, r6, #2
    8048:   00cd        lsls r5, r1, #3
    804a:   00e3        lsls r3, r4, #3
    804c:   00fa        lsls r2, r7, #3
    804e:   0111        lsls r1, r2, #4
    8050:   0128        lsls r0, r5, #4
    8052:   0140        lsls r0, r0, #5
    8054:   0158        lsls r0, r3, #5
    8056:   0171        lsls r1, r6, #5
    8058:   018a        lsls r2, r1, #6
    805a:   01a3        lsls r3, r4, #6
    805c:   01bd        lsls r5, r7, #6
    805e:   01d7        lsls r7, r2, #7
    8060:   01f1        lsls r1, r6, #7
    8062:   020c        lsls r4, r1, #8
    8064:   0228        lsls r0, r5, #8
    8066:   0243        lsls r3, r0, #9
    8068:   0260        lsls r0, r4, #9
    806a:   027c        lsls r4, r7, #9
    806c:   029a        lsls r2, r3, #10
    806e:   02b7        lsls r7, r6, #10
    8070:   02d5        lsls r5, r2, #11
    8072:   02f4        lsls r4, r6, #11
    8074:   0313        lsls r3, r2, #12
    8076:   0332        lsls r2, r6, #12
    8078:   0353        lsls r3, r2, #13
    807a:   0373        lsls r3, r6, #13
    807c:   0394        lsls r4, r2, #14
    807e:   03b6        lsls r6, r6, #14
    8080:   03d8        lsls r0, r3, #15
    8082:   03fb        lsls r3, r7, #15
    8084:   041e        lsls r6, r3, #16
    8086:   0442        lsls r2, r0, #17
    8088:   0466        lsls r6, r4, #17
    808a:   048b        lsls r3, r1, #18
    808c:   04b1        lsls r1, r6, #18
    808e:   04d7        lsls r7, r2, #19
    8090:   04fd        lsls r5, r7, #19
    8092:   0525        lsls r5, r4, #20
    8094:   054d        lsls r5, r1, #21
    8096:   0575        lsls r5, r6, #21
    8098:   059f        lsls r7, r3, #22
    809a:   05c8        lsls r0, r1, #23
    809c:   05f3        lsls r3, r6, #23
    809e:   061e        lsls r6, r3, #24
    80a0:   064a        lsls r2, r1, #25
    80a2:   0677        lsls r7, r6, #25
    80a4:   06a4        lsls r4, r4, #26
    80a6:   06d2        lsls r2, r2, #27
    80a8:   0701        lsls r1, r0, #28
    80aa:   0731        lsls r1, r6, #28
    80ac:   0761        lsls r1, r4, #29
    80ae:   0792        lsls r2, r2, #30
    80b0:   07c4        lsls r4, r0, #31
    80b2:   07f6        lsls r6, r6, #31
    80b4:   082a        lsrs r2, r5, #32
    80b6:   085e        lsrs r6, r3, #1
    80b8:   0893        lsrs r3, r2, #2
    80ba:   08c9        lsrs r1, r1, #3
    80bc:   0900        lsrs r0, r0, #4
    80be:   0938        lsrs r0, r7, #4
    80c0:   0970        lsrs r0, r6, #5
    80c2:   09aa        lsrs r2, r5, #6
    80c4:   09e4        lsrs r4, r4, #7
    80c6:   0a1f        lsrs r7, r3, #8
    80c8:   0a5b        lsrs r3, r3, #9
    80ca:   0a99        lsrs r1, r3, #10
    80cc:   0ad7        lsrs r7, r2, #11
    80ce:   0b16        lsrs r6, r2, #12
    80d0:   0b56        lsrs r6, r2, #13
    80d2:   0b97        lsrs r7, r2, #14
    80d4:   0bd9        lsrs r1, r3, #15
    80d6:   0c1d        lsrs r5, r3, #16
    80d8:   0c61        lsrs r1, r4, #17
    80da:   0ca6        lsrs r6, r4, #18
    80dc:   0ced        lsrs r5, r5, #19
    80de:   0d34        lsrs r4, r6, #20
    80e0:   0d7d        lsrs r5, r7, #21
    80e2:   0dc7        lsrs r7, r0, #23
    80e4:   0e12        lsrs r2, r2, #24
    80e6:   0e5e        lsrs r6, r3, #25
    80e8:   0eac        lsrs r4, r5, #26
    80ea:   0efb        lsrs r3, r7, #27
    80ec:   0f4b        lsrs r3, r1, #29
    80ee:   0f9c        lsrs r4, r3, #30
    80f0:   0fee        lsrs r6, r5, #31
    80f2:   1042        asrs r2, r0, #1
    80f4:   1097        asrs r7, r2, #2
    80f6:   10ee        asrs r6, r5, #3
    80f8:   1146        asrs r6, r0, #5
    80fa:   119f        asrs r7, r3, #6
    80fc:   11fa        asrs r2, r7, #7
    80fe:   1256        asrs r6, r2, #9
    8100:   12b4        asrs r4, r6, #10
    8102:   1313        asrs r3, r2, #12
    8104:   1373        asrs r3, r6, #13
    8106:   13d5        asrs r5, r2, #15
    8108:   1439        asrs r1, r7, #16
    810a:   149e        asrs r6, r3, #18
    810c:   1505        asrs r5, r0, #20
    810e:   156e        asrs r6, r5, #21
    8110:   15d8        asrs r0, r3, #23
    8112:   1644        asrs r4, r0, #25
    8114:   16b2        asrs r2, r6, #26
    8116:   1721        asrs r1, r4, #28
    8118:   1792        asrs r2, r2, #30
    811a:   1805        adds r5, r0, r0
    811c:   187a        adds r2, r7, r1
    811e:   18f0        adds r0, r6, r3
    8120:   1969        adds r1, r5, r5
    8122:   19e3        adds r3, r4, r7
    8124:   1a5f        subs r7, r3, r1
    8126:   1ade        subs r6, r3, r3
    8128:   1b5e        subs r6, r3, r5
    812a:   1be0        subs r0, r4, r7
    812c:   1c65        adds r5, r4, #1
    812e:   1ceb        adds r3, r5, #3
    8130:   1d74        adds r4, r6, #5
    8132:   1dff        adds r7, r7, #7
    8134:   1e8c        subs r4, r1, #2
    8136:   1f1b        subs r3, r3, #4
    8138:   1fac        subs r4, r5, #6
    813a:   2040        movs r0, #64    ; 0x40
    813c:   20d6        movs r0, #214    ; 0xd6
    813e:   216f        movs r1, #111    ; 0x6f
    8140:   220a        movs r2, #10
    8142:   22a8        movs r2, #168    ; 0xa8
    8144:   2348        movs r3, #72    ; 0x48
    8146:   23ea        movs r3, #234    ; 0xea
    8148:   248f        movs r4, #143    ; 0x8f
    814a:   2537        movs r5, #55    ; 0x37
    814c:   25e1        movs r5, #225    ; 0xe1
    814e:   268e        movs r6, #142    ; 0x8e
    8150:   273e        movs r7, #62    ; 0x3e
    8152:   27f1        movs r7, #241    ; 0xf1
    8154:   28a6        cmp r0, #166    ; 0xa6
    8156:   295f        cmp r1, #95    ; 0x5f
    8158:   2a1a        cmp r2, #26
    815a:   2ad8        cmp r2, #216    ; 0xd8
    815c:   2b99        cmp r3, #153    ; 0x99
    815e:   2c5e        cmp r4, #94    ; 0x5e
    8160:   2d25        cmp r5, #37    ; 0x25
    8162:   2df0        cmp r5, #240    ; 0xf0
    8164:   2ebe        cmp r6, #190    ; 0xbe
    8166:   2f8f        cmp r7, #143    ; 0x8f
    8168:   3063        adds r0, #99    ; 0x63
    816a:   313b        adds r1, #59    ; 0x3b
    816c:   3216        adds r2, #22
    816e:   32f5        adds r2, #245    ; 0xf5
    8170:   33d7        adds r3, #215    ; 0xd7
    8172:   34bd        adds r4, #189    ; 0xbd
    8174:   35a7        adds r5, #167    ; 0xa7
    8176:   3694        adds r6, #148    ; 0x94
    8178:   3785        adds r7, #133    ; 0x85
    817a:   387a        subs r0, #122    ; 0x7a
    817c:   3972        subs r1, #114    ; 0x72
    817e:   3a6f        subs r2, #111    ; 0x6f
    8180:   3b70        subs r3, #112    ; 0x70
    8182:   3c74        subs r4, #116    ; 0x74
    8184:   3d7d        subs r5, #125    ; 0x7d
    8186:   3e8a        subs r6, #138    ; 0x8a
    8188:   3f9c        subs r7, #156    ; 0x9c
    818a:   40b1        lsls r1, r6
    818c:   41cb        rors r3, r1
    818e:   42ea        cmn r2, r5
    8190:   440d        add r5, r1
    8192:   4535        cmp r5, r6
    8194:   4661        mov r1, ip
    8196:   4793             ; <UNDEFINED> instruction: 0x4793
    8198:   48c9        ldr r0, [pc, #804]    ; (0x84c0)
    819a:   4a04        ldr r2, [pc, #16]    ; (0x81ac)
    819c:   4b44        ldr r3, [pc, #272]    ; (0x82b0)
    819e:   4c89        ldr r4, [pc, #548]    ; (0x83c4)
    81a0:   4dd3        ldr r5, [pc, #844]    ; (0x84f0)
    81a2:   4f22        ldr r7, [pc, #136]    ; (0x822c)
    81a4:   5077        str r7, [r6, r1]
    81a6:   51d2        str r2, [r2, r7]
    81a8:   5331        strh r1, [r6, r4]
    81aa:   5497        strb r7, [r2, r2]
    81ac:   5602        ldrsb r2, [r0, r0]
    81ae:   5772        ldrsb r2, [r6, r5]
    81b0:   58e9        ldr r1, [r5, r3]
    81b2:   5a66        ldrh r6, [r4, r1]
    81b4:   5be8        ldrh r0, [r5, r7]
    81b6:   5d71        ldrb r1, [r6, r5]
    81b8:   5f00        ldrsh r0, [r0, r4]
    81ba:   6095        str r5, [r2, #8]
    81bc:   6231        str r1, [r6, #32]
    81be:   63d3        str r3, [r2, #60]    ; 0x3c
    81c0:   657c        str r4, [r7, #84]    ; 0x54
    81c2:   672c        str r4, [r5, #112]    ; 0x70
    81c4:   68e3        ldr r3, [r4, #12]
    81c6:   6aa0        ldr r0, [r4, #40]    ; 0x28
    81c8:   6c65        ldr r5, [r4, #68]    ; 0x44
    81ca:   6e31        ldr r1, [r6, #96]    ; 0x60
    81cc:   7004        strb r4, [r0, #0]
    81ce:   71de        strb r6, [r3, #7]
    81d0:   73c0        strb r0, [r0, #15]
    81d2:   75aa        strb r2, [r5, #22]
    81d4:   779c        strb r4, [r3, #30]
    81d6:   7995        ldrb r5, [r2, #6]
    81d8:   7b96        ldrb r6, [r2, #14]
    81da:   7da0        ldrb r0, [r4, #22]
    81dc:   7fb2        ldrb r2, [r6, #30]
    81de:   81cc        strh r4, [r1, #14]
    81e0:   83ef        strh r7, [r5, #30]
    81e2:   861a        strh r2, [r3, #48]    ; 0x30
    81e4:   884f        ldrh r7, [r1, #2]
    81e6:   8a8c        ldrh r4, [r1, #20]
    81e8:   8cd3        ldrh r3, [r2, #38]    ; 0x26
    81ea:   8f22        ldrh r2, [r4, #56]    ; 0x38
    81ec:   917b        str r1, [sp, #492]    ; 0x1ec
    81ee:   93de        str r3, [sp, #888]    ; 0x378
    81f0:   964a        str r6, [sp, #296]    ; 0x128
    81f2:   98c0        ldr r0, [sp, #768]    ; 0x300
    81f4:   9b40        ldr r3, [sp, #256]    ; 0x100
    81f6:   9dcb        ldr r5, [sp, #812]    ; 0x32c
    81f8:   a05f        add r0, pc, #380    ; (adr r0, 0x8378)
    81fa:   a2ff        add r2, pc, #1020    ; (adr r2, 0x85f8)
    81fc:   a5a8        add r5, pc, #672    ; (adr r5, 0x84a0)
    81fe:   a85d        add r0, sp, #372    ; 0x174
    8200:   ab1d        add r3, sp, #116    ; 0x74
    8202:   ade8        add r5, sp, #928    ; 0x3a0
    8204:   b0be        sub sp, #248    ; 0xf8
    8206:   b39f        cbz r7, 0x8270
    8208:   b68d             ; <UNDEFINED> instruction: 0xb68d
    820a:   b986        cbnz r6, 0x822e
    820c:   bc8c        pop {r2, r3, r7}
    820e:   bf9d        ittte ls
    8210:   c2bc        stmials r2!, {r2, r3, r4, r5, r7}
    8212:   c5e6        stmials r5!, {r1, r2, r5, r6, r7}
    8214:   c91e        ldmials r1, {r1, r2, r3, r4}
    8216:   cc63        ldmiahi r4!, {r0, r1, r5, r6}
    8218:   cfb5        ldmia r7, {r0, r2, r4, r5, r7}
    821a:   d315        bcc.n 0x8248
    821c:   d682        bvs.n 0x8124
    821e:   d9fd        bls.n 0x821c
    8220:   dd87        ble.n 0x8132
    8222:   e11f        b.n 0x8464
    8224:   e4c5        b.n 0x7bb2
    8226:   e87a ec3f   ldrd lr, ip, [sl], #-252    ; 0xfc
    822a:   f012 f3f5   bl 0x41aa18
    822e:   f7e9 fbec   bl 0xffff1a0a
    8232:   ffff 0800   vtbl.8 d16, {d15}, d0
    8236:   1810        adds r0, r2, r0
    8238:   2820        cmp r0, #32
    823a:   0030        movs r0, r6
    823c:   0901        lsrs r1, r0, #4
    823e:   1911        adds r1, r2, r4
    8240:   292b        cmp r1, #43    ; 0x2b
    8242:   0031        movs r1, r6
    8244:   0a02        lsrs r2, r0, #8
    8246:   1a12        subs r2, r2, r0
    8248:   2a22        cmp r2, #34    ; 0x22
    824a:   0032        movs r2, r6
    824c:   0b03        lsrs r3, r0, #12
    824e:   1b13        subs r3, r2, r4
    8250:   2123        movs r1, #35    ; 0x23
    8252:   00ff        lsls r7, r7, #3
    8254:   0c04        lsrs r4, r0, #16
    8256:   1c14        adds r4, r2, #0
    8258:   2c24        cmp r4, #36    ; 0x24
    825a:   00ff        lsls r7, r7, #3
    825c:   0d05        lsrs r5, r0, #20
    825e:   1d15        adds r5, r2, #4
    8260:   2d25        cmp r5, #37    ; 0x25
    8262:   00ff        lsls r7, r7, #3
    8264:   0e06        lsrs r6, r0, #24
    8266:   1e16        subs r6, r2, #0
    8268:   2e26        cmp r6, #38    ; 0x26
    826a:   00ff        lsls r7, r7, #3
    826c:   0f07        lsrs r7, r0, #28
    826e:   1f17        subs r7, r2, #4
    8270:   2f27        cmp r7, #39    ; 0x27
    8272:   00ff        lsls r7, r7, #3
    8274:   83d8        strh r0, [r3, #30]
    8276:   0000        movs r0, r0
    8278:   83dc        strh r4, [r3, #30]
    827a:   0000        movs r0, r0
    827c:   0006        movs r6, r0
    827e:   09ff        lsrs r7, r7, #7
    8280:   a101        add r1, pc, #4    ; (adr r1, 0x8288)
    8282:   0901        lsrs r1, r0, #4
    8284:   1502        asrs r2, r0, #20
    8286:   2600        movs r6, #0
    8288:   00ff        lsls r7, r7, #3
    828a:   0875        lsrs r5, r6, #1
    828c:   4095        lsls r5, r2
    828e:   0281        lsls r1, r0, #10
    8290:   0309        lsls r1, r1, #12
    8292:   0015        movs r5, r2
    8294:   ff26 7500   vrshl.u32 d7, d0, d6
    8298:   9508        str r5, [sp, #32]
    829a:   9140        str r1, [sp, #256]    ; 0x100
    829c:   c002        stmia r0!, {r1}
    829e:   0000        movs r0, r0
    82a0:   0105        lsls r5, r0, #4
    82a2:   8009        strh r1, [r1, #0]
    82a4:   01a1        lsls r1, r4, #6
    82a6:   0185        lsls r5, r0, #6
    82a8:   8119        strh r1, [r3, #8]
    82aa:   8329        strh r1, [r5, #24]
    82ac:   0015        movs r5, r2
    82ae:   0125        lsls r5, r4, #4
    82b0:   0395        lsls r5, r2, #14
    82b2:   0175        lsls r5, r6, #5
    82b4:   0281        lsls r1, r0, #10
    82b6:   0195        lsls r5, r2, #6
    82b8:   0575        lsls r5, r6, #21
    82ba:   0181        lsls r1, r0, #6
    82bc:   05c0        lsls r0, r0, #23
    82be:   090c        lsrs r4, r1, #4
    82c0:   a101        add r1, pc, #4    ; (adr r1, 0x82c8)
    82c2:   8501        strh r1, [r0, #40]    ; 0x28
    82c4:   1502        asrs r2, r0, #20
    82c6:   2500        movs r5, #0
    82c8:   9501        str r5, [sp, #4]
    82ca:   7512        strb r2, [r2, #20]
    82cc:   0a01        lsrs r1, r0, #8
    82ce:   0183        lsls r3, r0, #6
    82d0:   8a0a        ldrh r2, [r1, #16]
    82d2:   0a01        lsrs r1, r0, #8
    82d4:   0192        lsls r2, r2, #6
    82d6:   940a        str r4, [sp, #40]    ; 0x28
    82d8:   0901        lsrs r1, r0, #4
    82da:   09cd        lsrs r5, r1, #7
    82dc:   09b7        lsrs r7, r6, #6
    82de:   09b6        lsrs r6, r6, #6
    82e0:   09b5        lsrs r5, r6, #6
    82e2:   09e2        lsrs r2, r4, #7
    82e4:   09ea        lsrs r2, r5, #7
    82e6:   0ae9        lsrs r1, r5, #11
    82e8:   0221        lsls r1, r4, #8
    82ea:   230a        movs r3, #10
    82ec:   0a02        lsrs r2, r0, #8
    82ee:   0224        lsls r4, r4, #8
    82f0:   250a        movs r5, #10
    82f2:   0a02        lsrs r2, r0, #8
    82f4:   0226        lsls r6, r4, #8
    82f6:   270a        movs r7, #10
    82f8:   0a02        lsrs r2, r0, #8
    82fa:   022a        lsls r2, r5, #8
    82fc:   0281        lsls r1, r0, #10
    82fe:   0195        lsls r5, r2, #6
    8300:   0e75        lsrs r5, r6, #25
    8302:   0181        lsls r1, r0, #6
    8304:   05c0        lsls r0, r0, #23
    8306:   0901        lsrs r1, r0, #4
    8308:   a106        add r1, pc, #24    ; (adr r1, 0x8324)
    830a:   8501        strh r1, [r0, #40]    ; 0x28
    830c:   0504        lsls r4, r0, #20
    830e:   9507        str r5, [sp, #28]
    8310:   7501        strb r1, [r0, #20]
    8312:   8108        strh r0, [r1, #8]
    8314:   9503        str r5, [sp, #12]
    8316:   75e8        strb r0, [r5, #23]
    8318:   1501        asrs r1, r0, #20
    831a:   2500        movs r5, #0
    831c:   0501        lsls r1, r0, #20
    831e:   1907        adds r7, r0, r4
    8320:   2900        cmp r1, #0
    8322:   81e7        strh r7, [r4, #14]
    8324:   c000        stmia r0!, {}
    8326:   0000        movs r0, r0
    8328:   0105        lsls r5, r0, #4
    832a:   0609        lsls r1, r1, #24
    832c:   01a1        lsls r1, r4, #6
    832e:   0705        lsls r5, r0, #28
    8330:   e019        b.n 0x8366
    8332:   e729        b.n 0x8188
    8334:   0015        movs r5, r2
    8336:   0125        lsls r5, r4, #4
    8338:   0175        lsls r5, r6, #5
    833a:   0895        lsrs r5, r2, #2
    833c:   0281        lsls r1, r0, #10
    833e:   0195        lsls r5, r2, #6
    8340:   0875        lsrs r5, r6, #1
    8342:   0381        lsls r1, r0, #14
    8344:   0395        lsls r5, r2, #14
    8346:   0175        lsls r5, r6, #5
    8348:   0805        lsrs r5, r0, #32
    834a:   0119        lsls r1, r3, #4
    834c:   0329        lsls r1, r5, #12
    834e:   0291        lsls r1, r2, #10
    8350:   0195        lsls r5, r2, #6
    8352:   0575        lsls r5, r6, #21
    8354:   0391        lsls r1, r2, #14
    8356:   0695        lsls r5, r2, #26
    8358:   0875        lsrs r5, r6, #1
    835a:   0015        movs r5, r2
    835c:   a426        add r4, pc, #152    ; (adr r4, 0x83f8)
    835e:   0500        lsls r0, r0, #20
    8360:   1907        adds r7, r0, r4
    8362:   2900        cmp r1, #0
    8364:   81a4        strh r4, [r4, #12]
    8366:   c000        stmia r0!, {}
    8368:   0209        lsls r1, r1, #8
    836a:   005b        lsls r3, r3, #1
    836c:   0103        lsls r3, r0, #4
    836e:   a000        add r0, pc, #0    ; (adr r0, 0x8370)
    8370:   0932        lsrs r2, r6, #4
    8372:   0004        movs r4, r0
    8374:   0100        lsls r0, r0, #4
    8376:   0103        lsls r3, r0, #4
    8378:   0001        movs r1, r0
    837a:   2109        movs r1, #9
    837c:   0111        lsls r1, r2, #4
    837e:   0100        lsls r0, r0, #4
    8380:   4022        ands r2, r4
    8382:   0700        lsls r0, r0, #28
    8384:   8105        strh r5, [r0, #8]
    8386:   0803        lsrs r3, r0, #32
    8388:   0100        lsls r0, r0, #4
    838a:   0409        lsls r1, r1, #16
    838c:   0001        movs r1, r0
    838e:   0302        lsls r2, r0, #12
    8390:   0000        movs r0, r0
    8392:   0900        lsrs r0, r0, #4
    8394:   1121        asrs r1, r4, #4
    8396:   0001        movs r1, r0
    8398:   2201        movs r2, #1
    839a:   0022        movs r2, r4
    839c:   0507        lsls r7, r0, #20
    839e:   0383        lsls r3, r0, #14
    83a0:   0040        lsls r0, r0, #1
    83a2:   0701        lsls r1, r0, #28
    83a4:   0405        lsls r5, r0, #16
    83a6:   4003        ands r3, r0
    83a8:   0100        lsls r0, r0, #4
    83aa:   0409        lsls r1, r1, #16
    83ac:   0002        movs r2, r0
    83ae:   0301        lsls r1, r0, #12
    83b0:   0000        movs r0, r0
    83b2:   0900        lsrs r0, r0, #4
    83b4:   1121        asrs r1, r4, #4
    83b6:   0001        movs r1, r0
    83b8:   2201        movs r2, #1
    83ba:   0086        lsls r6, r0, #2
    83bc:   0507        lsls r7, r0, #20
    83be:   0382        lsls r2, r0, #14
    83c0:   0040        lsls r0, r0, #1
    83c2:   0001        movs r1, r0
    83c4:   0112        lsls r2, r2, #4
    83c6:   0110        lsls r0, r2, #4
    83c8:   0000        movs r0, r0
    83ca:   4000        ands r0, r0
    83cc:   04d9        lsls r1, r3, #19
    83ce:   0175        lsls r5, r6, #5
    83d0:   1104        asrs r4, r0, #4
    83d2:   0100        lsls r0, r0, #4
    83d4:   0100        lsls r0, r0, #4
    83d6:   0000        movs r0, r0
    83d8:   0304        lsls r4, r0, #12
    83da:   0409        lsls r1, r1, #16
    83dc:   0322        lsls r2, r4, #12
    83de:   0055        lsls r5, r2, #1
    83e0:   0053        lsls r3, r2, #1
    83e2:   0042        lsls r2, r0, #1
    83e4:   002d        movs r5, r5
    83e6:   0048        lsls r0, r1, #1
    83e8:   0049        lsls r1, r1, #1
    83ea:   0044        lsls r4, r0, #1
    83ec:   0020        movs r0, r4
    83ee:   004b        lsls r3, r1, #1
    83f0:   0065        lsls r5, r4, #1
    83f2:   0079        lsls r1, r7, #1
    83f4:   0062        lsls r2, r4, #1
    83f6:   006f        lsls r7, r5, #1
    83f8:   0061        lsls r1, r4, #1
    83fa:   0072        lsls r2, r6, #1
    83fc:   0064        lsls r4, r4, #1
    83fe:   0000        movs r0, r0
    8400:   68f9        ldr r1, [r7, #12]
    8402:   0000        movs r0, r0
    8404:   0000        movs r0, r0
    8406:   0000        movs r0, r0
    8408:   7785        strb r5, [r0, #30]
    840a:   0000        movs r0, r0
    840c:   0000        movs r0, r0
    840e:   0000        movs r0, r0
    8410:   0000        movs r0, r0
    8412:   0000        movs r0, r0
    8414:   7685        strb r5, [r0, #26]
    8416:   0000        movs r0, r0
    8418:   7579        strb r1, [r7, #21]
    841a:   0000        movs r0, r0
    841c:   ffff 08ff        ; <UNDEFINED> instruction: 0xffff08ff
    8420:   0003        movs r3, r0
    8422:   0000        movs r0, r0
    8424:   8444        strh r4, [r0, #34]    ; 0x22
    8426:   0000        movs r0, r0
    8428:   0000        movs r0, r0
    842a:   2000        movs r0, #0
    842c:   0078        lsls r0, r7, #1
    842e:   0000        movs r0, r0
    8430:   7b18        ldrb r0, [r3, #12]
    8432:   0000        movs r0, r0
    8434:   84bc        strh r4, [r7, #36]    ; 0x24
    8436:   0000        movs r0, r0
    8438:   0078        lsls r0, r7, #1
    843a:   2000        movs r0, #0
    843c:   2100        movs r1, #0
    843e:   0000        movs r0, r0
    8440:   7b28        ldrb r0, [r5, #12]
    8442:   0000        movs r0, r0
    8444:   0000        movs r0, r0
    8446:   0000        movs r0, r0
    8448:   0000        movs r0, r0
    844a:   0000        movs r0, r0
    844c:   0000        movs r0, r0
    844e:   0000        movs r0, r0
    8450:   0000        movs r0, r0
    8452:   0000        movs r0, r0
    8454:   0000        movs r0, r0
    8456:   0000        movs r0, r0
    8458:   0000        movs r0, r0
    845a:   0000        movs r0, r0
    845c:   0000        movs r0, r0
    845e:   0000        movs r0, r0
    8460:   a200        add r2, pc, #0    ; (adr r2, 0x8464)
    8462:   044a        lsls r2, r1, #17
    8464:   0001        movs r1, r0
    8466:   0000        movs r0, r0
    8468:   0000        movs r0, r0
    846a:   0000        movs r0, r0
    846c:   0000        movs r0, r0
    846e:   07ff        lsls r7, r7, #31
    8470:   0000        movs r0, r0
    8472:   ff00 0000   vhadd.u8 d0, d0, d0
    8476:   0000        movs r0, r0
    8478:   0000        movs r0, r0
    847a:   0000        movs r0, r0
    847c:   0000        movs r0, r0
    847e:   0000        movs r0, r0
    8480:   0000        movs r0, r0
    8482:   0000        movs r0, r0
    8484:   0000        movs r0, r0
    8486:   0000        movs r0, r0
    8488:   0000        movs r0, r0
    848a:   0000        movs r0, r0
    848c:   0001        movs r1, r0
    848e:   0000        movs r0, r0
    8490:   0000        movs r0, r0
    8492:   0000        movs r0, r0
    8494:   0000        movs r0, r0
    8496:   0000        movs r0, r0
    8498:   0000        movs r0, r0
    849a:   0000        movs r0, r0
    849c:   0000        movs r0, r0
    849e:   0000        movs r0, r0
    84a0:   0000        movs r0, r0
    84a2:   0000        movs r0, r0
    84a4:   0000        movs r0, r0
    84a6:   0000        movs r0, r0
    84a8:   0000        movs r0, r0
    84aa:   0000        movs r0, r0
    84ac:   0968        lsrs r0, r5, #5
    84ae:   2000        movs r0, #0
    84b0:   0000        movs r0, r0
    84b2:   0000        movs r0, r0
    84b4:   0000        movs r0, r0
    84b6:   0000        movs r0, r0
    84b8:   0000        movs r0, r0
    84ba:   0000        movs r0, r0
